
Drone.elf:     file format elf32-avr

Sections:
Idx Name          Size      VMA       LMA       File off  Algn
  0 .text         0000598c  00000000  00000000  00000094  2**1
                  CONTENTS, ALLOC, LOAD, READONLY, CODE
  1 .data         00000618  00802000  0000598c  00005a20  2**0
                  CONTENTS, ALLOC, LOAD, DATA
  2 .bss          000002bb  00802618  00802618  00006038  2**0
                  ALLOC
  3 .comment      00000030  00000000  00000000  00006038  2**0
                  CONTENTS, READONLY
  4 .debug_aranges 00000048  00000000  00000000  00006068  2**3
                  CONTENTS, READONLY, DEBUGGING
  5 .debug_info   00000104  00000000  00000000  000060b0  2**0
                  CONTENTS, READONLY, DEBUGGING
  6 .debug_abbrev 00000026  00000000  00000000  000061b4  2**0
                  CONTENTS, READONLY, DEBUGGING
  7 .debug_line   0000018d  00000000  00000000  000061da  2**0
                  CONTENTS, READONLY, DEBUGGING
  8 .debug_ranges 00000020  00000000  00000000  00006368  2**3
                  CONTENTS, READONLY, DEBUGGING

Disassembly of section .text:

00000000 <__vectors>:
       0:	18 c1       	rjmp	.+560    	; 0x232 <__ctors_end>
       2:	00 00       	nop
       4:	35 c1       	rjmp	.+618    	; 0x270 <__bad_interrupt>
       6:	00 00       	nop
       8:	6c c3       	rjmp	.+1752   	; 0x6e2 <__vector_2>
       a:	00 00       	nop
       c:	31 c1       	rjmp	.+610    	; 0x270 <__bad_interrupt>
       e:	00 00       	nop
      10:	2f c1       	rjmp	.+606    	; 0x270 <__bad_interrupt>
      12:	00 00       	nop
      14:	2d c1       	rjmp	.+602    	; 0x270 <__bad_interrupt>
      16:	00 00       	nop
      18:	2b c1       	rjmp	.+598    	; 0x270 <__bad_interrupt>
      1a:	00 00       	nop
      1c:	29 c1       	rjmp	.+594    	; 0x270 <__bad_interrupt>
      1e:	00 00       	nop
      20:	27 c1       	rjmp	.+590    	; 0x270 <__bad_interrupt>
      22:	00 00       	nop
      24:	25 c1       	rjmp	.+586    	; 0x270 <__bad_interrupt>
      26:	00 00       	nop
      28:	23 c1       	rjmp	.+582    	; 0x270 <__bad_interrupt>
      2a:	00 00       	nop
      2c:	21 c1       	rjmp	.+578    	; 0x270 <__bad_interrupt>
      2e:	00 00       	nop
      30:	1f c1       	rjmp	.+574    	; 0x270 <__bad_interrupt>
      32:	00 00       	nop
      34:	1d c1       	rjmp	.+570    	; 0x270 <__bad_interrupt>
      36:	00 00       	nop
      38:	0c 94 03 1b 	jmp	0x3606	; 0x3606 <__vector_14>
      3c:	0c 94 30 1b 	jmp	0x3660	; 0x3660 <__vector_15>
      40:	0c 94 5d 1b 	jmp	0x36ba	; 0x36ba <__vector_16>
      44:	0c 94 8a 1b 	jmp	0x3714	; 0x3714 <__vector_17>
      48:	0c 94 b7 1b 	jmp	0x376e	; 0x376e <__vector_18>
      4c:	0c 94 e4 1b 	jmp	0x37c8	; 0x37c8 <__vector_19>
      50:	0c 94 11 1c 	jmp	0x3822	; 0x3822 <__vector_20>
      54:	0c 94 3e 1c 	jmp	0x387c	; 0x387c <__vector_21>
      58:	0c 94 6b 1c 	jmp	0x38d6	; 0x38d6 <__vector_22>
      5c:	0c 94 98 1c 	jmp	0x3930	; 0x3930 <__vector_23>
      60:	07 c1       	rjmp	.+526    	; 0x270 <__bad_interrupt>
      62:	00 00       	nop
      64:	0c 94 ea 17 	jmp	0x2fd4	; 0x2fd4 <__vector_25>
      68:	0c 94 25 18 	jmp	0x304a	; 0x304a <__vector_26>
      6c:	01 c1       	rjmp	.+514    	; 0x270 <__bad_interrupt>
      6e:	00 00       	nop
      70:	ff c0       	rjmp	.+510    	; 0x270 <__bad_interrupt>
      72:	00 00       	nop
      74:	fd c0       	rjmp	.+506    	; 0x270 <__bad_interrupt>
      76:	00 00       	nop
      78:	fb c0       	rjmp	.+502    	; 0x270 <__bad_interrupt>
      7a:	00 00       	nop
      7c:	f9 c0       	rjmp	.+498    	; 0x270 <__bad_interrupt>
      7e:	00 00       	nop
      80:	f7 c0       	rjmp	.+494    	; 0x270 <__bad_interrupt>
      82:	00 00       	nop
      84:	f5 c0       	rjmp	.+490    	; 0x270 <__bad_interrupt>
      86:	00 00       	nop
      88:	f3 c0       	rjmp	.+486    	; 0x270 <__bad_interrupt>
      8a:	00 00       	nop
      8c:	f1 c0       	rjmp	.+482    	; 0x270 <__bad_interrupt>
      8e:	00 00       	nop
      90:	ef c0       	rjmp	.+478    	; 0x270 <__bad_interrupt>
      92:	00 00       	nop
      94:	ed c0       	rjmp	.+474    	; 0x270 <__bad_interrupt>
      96:	00 00       	nop
      98:	eb c0       	rjmp	.+470    	; 0x270 <__bad_interrupt>
      9a:	00 00       	nop
      9c:	e9 c0       	rjmp	.+466    	; 0x270 <__bad_interrupt>
      9e:	00 00       	nop
      a0:	e7 c0       	rjmp	.+462    	; 0x270 <__bad_interrupt>
      a2:	00 00       	nop
      a4:	e5 c0       	rjmp	.+458    	; 0x270 <__bad_interrupt>
      a6:	00 00       	nop
      a8:	e3 c0       	rjmp	.+454    	; 0x270 <__bad_interrupt>
      aa:	00 00       	nop
      ac:	e1 c0       	rjmp	.+450    	; 0x270 <__bad_interrupt>
      ae:	00 00       	nop
      b0:	df c0       	rjmp	.+446    	; 0x270 <__bad_interrupt>
      b2:	00 00       	nop
      b4:	dd c0       	rjmp	.+442    	; 0x270 <__bad_interrupt>
      b6:	00 00       	nop
      b8:	db c0       	rjmp	.+438    	; 0x270 <__bad_interrupt>
      ba:	00 00       	nop
      bc:	0c 94 d3 1d 	jmp	0x3ba6	; 0x3ba6 <__vector_47>
      c0:	0c 94 00 1e 	jmp	0x3c00	; 0x3c00 <__vector_48>
      c4:	0c 94 2d 1e 	jmp	0x3c5a	; 0x3c5a <__vector_49>
      c8:	0c 94 5a 1e 	jmp	0x3cb4	; 0x3cb4 <__vector_50>
      cc:	0c 94 87 1e 	jmp	0x3d0e	; 0x3d0e <__vector_51>
      d0:	0c 94 b4 1e 	jmp	0x3d68	; 0x3d68 <__vector_52>
      d4:	cd c0       	rjmp	.+410    	; 0x270 <__bad_interrupt>
      d6:	00 00       	nop
      d8:	cb c0       	rjmp	.+406    	; 0x270 <__bad_interrupt>
      da:	00 00       	nop
      dc:	c9 c0       	rjmp	.+402    	; 0x270 <__bad_interrupt>
      de:	00 00       	nop
      e0:	c7 c0       	rjmp	.+398    	; 0x270 <__bad_interrupt>
      e2:	00 00       	nop
      e4:	c5 c0       	rjmp	.+394    	; 0x270 <__bad_interrupt>
      e6:	00 00       	nop
      e8:	c3 c0       	rjmp	.+390    	; 0x270 <__bad_interrupt>
      ea:	00 00       	nop
      ec:	c1 c0       	rjmp	.+386    	; 0x270 <__bad_interrupt>
      ee:	00 00       	nop
      f0:	bf c0       	rjmp	.+382    	; 0x270 <__bad_interrupt>
      f2:	00 00       	nop
      f4:	bd c0       	rjmp	.+378    	; 0x270 <__bad_interrupt>
      f6:	00 00       	nop
      f8:	bb c0       	rjmp	.+374    	; 0x270 <__bad_interrupt>
      fa:	00 00       	nop
      fc:	b9 c0       	rjmp	.+370    	; 0x270 <__bad_interrupt>
      fe:	00 00       	nop
     100:	b7 c0       	rjmp	.+366    	; 0x270 <__bad_interrupt>
     102:	00 00       	nop
     104:	b5 c0       	rjmp	.+362    	; 0x270 <__bad_interrupt>
     106:	00 00       	nop
     108:	b3 c0       	rjmp	.+358    	; 0x270 <__bad_interrupt>
     10a:	00 00       	nop
     10c:	b1 c0       	rjmp	.+354    	; 0x270 <__bad_interrupt>
     10e:	00 00       	nop
     110:	af c0       	rjmp	.+350    	; 0x270 <__bad_interrupt>
     112:	00 00       	nop
     114:	ad c0       	rjmp	.+346    	; 0x270 <__bad_interrupt>
     116:	00 00       	nop
     118:	ab c0       	rjmp	.+342    	; 0x270 <__bad_interrupt>
     11a:	00 00       	nop
     11c:	a9 c0       	rjmp	.+338    	; 0x270 <__bad_interrupt>
     11e:	00 00       	nop
     120:	a7 c0       	rjmp	.+334    	; 0x270 <__bad_interrupt>
     122:	00 00       	nop
     124:	a5 c0       	rjmp	.+330    	; 0x270 <__bad_interrupt>
     126:	00 00       	nop
     128:	a3 c0       	rjmp	.+326    	; 0x270 <__bad_interrupt>
     12a:	00 00       	nop
     12c:	a1 c0       	rjmp	.+322    	; 0x270 <__bad_interrupt>
     12e:	00 00       	nop
     130:	9f c0       	rjmp	.+318    	; 0x270 <__bad_interrupt>
     132:	00 00       	nop
     134:	0c 94 c5 1c 	jmp	0x398a	; 0x398a <__vector_77>
     138:	0c 94 f2 1c 	jmp	0x39e4	; 0x39e4 <__vector_78>
     13c:	0c 94 1f 1d 	jmp	0x3a3e	; 0x3a3e <__vector_79>
     140:	0c 94 4c 1d 	jmp	0x3a98	; 0x3a98 <__vector_80>
     144:	0c 94 79 1d 	jmp	0x3af2	; 0x3af2 <__vector_81>
     148:	0c 94 a6 1d 	jmp	0x3b4c	; 0x3b4c <__vector_82>
     14c:	91 c0       	rjmp	.+290    	; 0x270 <__bad_interrupt>
     14e:	00 00       	nop
     150:	8f c0       	rjmp	.+286    	; 0x270 <__bad_interrupt>
     152:	00 00       	nop
     154:	8d c0       	rjmp	.+282    	; 0x270 <__bad_interrupt>
     156:	00 00       	nop
     158:	8b c0       	rjmp	.+278    	; 0x270 <__bad_interrupt>
     15a:	00 00       	nop
     15c:	89 c0       	rjmp	.+274    	; 0x270 <__bad_interrupt>
     15e:	00 00       	nop
     160:	87 c0       	rjmp	.+270    	; 0x270 <__bad_interrupt>
     162:	00 00       	nop
     164:	85 c0       	rjmp	.+266    	; 0x270 <__bad_interrupt>
     166:	00 00       	nop
     168:	83 c0       	rjmp	.+262    	; 0x270 <__bad_interrupt>
     16a:	00 00       	nop
     16c:	81 c0       	rjmp	.+258    	; 0x270 <__bad_interrupt>
     16e:	00 00       	nop
     170:	7f c0       	rjmp	.+254    	; 0x270 <__bad_interrupt>
     172:	00 00       	nop
     174:	7d c0       	rjmp	.+250    	; 0x270 <__bad_interrupt>
     176:	00 00       	nop
     178:	7b c0       	rjmp	.+246    	; 0x270 <__bad_interrupt>
     17a:	00 00       	nop
     17c:	79 c0       	rjmp	.+242    	; 0x270 <__bad_interrupt>
     17e:	00 00       	nop
     180:	77 c0       	rjmp	.+238    	; 0x270 <__bad_interrupt>
     182:	00 00       	nop
     184:	75 c0       	rjmp	.+234    	; 0x270 <__bad_interrupt>
     186:	00 00       	nop
     188:	73 c0       	rjmp	.+230    	; 0x270 <__bad_interrupt>
     18a:	00 00       	nop
     18c:	71 c0       	rjmp	.+226    	; 0x270 <__bad_interrupt>
     18e:	00 00       	nop
     190:	6f c0       	rjmp	.+222    	; 0x270 <__bad_interrupt>
     192:	00 00       	nop
     194:	6d c0       	rjmp	.+218    	; 0x270 <__bad_interrupt>
     196:	00 00       	nop
     198:	6b c0       	rjmp	.+214    	; 0x270 <__bad_interrupt>
     19a:	00 00       	nop
     19c:	69 c0       	rjmp	.+210    	; 0x270 <__bad_interrupt>
     19e:	00 00       	nop
     1a0:	0c 94 b0 2b 	jmp	0x5760	; 0x5760 <__vector_104>
     1a4:	65 c0       	rjmp	.+202    	; 0x270 <__bad_interrupt>
     1a6:	00 00       	nop
     1a8:	63 c0       	rjmp	.+198    	; 0x270 <__bad_interrupt>
     1aa:	00 00       	nop
     1ac:	61 c0       	rjmp	.+194    	; 0x270 <__bad_interrupt>
     1ae:	00 00       	nop
     1b0:	0c 94 e1 1e 	jmp	0x3dc2	; 0x3dc2 <__vector_108>
     1b4:	0c 94 0e 1f 	jmp	0x3e1c	; 0x3e1c <__vector_109>
     1b8:	0c 94 3b 1f 	jmp	0x3e76	; 0x3e76 <__vector_110>
     1bc:	0c 94 68 1f 	jmp	0x3ed0	; 0x3ed0 <__vector_111>
     1c0:	0c 94 95 1f 	jmp	0x3f2a	; 0x3f2a <__vector_112>
     1c4:	0c 94 c2 1f 	jmp	0x3f84	; 0x3f84 <__vector_113>
     1c8:	b8 09       	sbc	r27, r8
     1ca:	cc 09       	sbc	r28, r12
     1cc:	c2 09       	sbc	r28, r2
     1ce:	c7 09       	sbc	r28, r7
     1d0:	bd 09       	sbc	r27, r13
     1d2:	b8 09       	sbc	r27, r8
     1d4:	cc 09       	sbc	r28, r12
     1d6:	c7 09       	sbc	r28, r7
     1d8:	c2 09       	sbc	r28, r2
     1da:	bd 09       	sbc	r27, r13
     1dc:	d1 09       	sbc	r29, r1
     1de:	e9 09       	sbc	r30, r9
     1e0:	f6 09       	sbc	r31, r6
     1e2:	03 0a       	sbc	r0, r19
     1e4:	10 0a       	sbc	r1, r16
     1e6:	1d 0a       	sbc	r1, r29
     1e8:	e9 09       	sbc	r30, r9
     1ea:	f6 09       	sbc	r31, r6
     1ec:	10 0a       	sbc	r1, r16
     1ee:	03 0a       	sbc	r0, r19
     1f0:	1d 0a       	sbc	r1, r29
     1f2:	dc 09       	sbc	r29, r12
     1f4:	4a 0f       	add	r20, r26
     1f6:	47 0f       	add	r20, r23
     1f8:	44 0f       	add	r20, r20
     1fa:	41 0f       	add	r20, r17
     1fc:	3e 0f       	add	r19, r30
     1fe:	4d 0f       	add	r20, r29
     200:	50 0f       	add	r21, r16
     202:	74 11       	cpse	r23, r4
     204:	71 11       	cpse	r23, r1
     206:	6e 11       	cpse	r22, r14
     208:	6b 11       	cpse	r22, r11
     20a:	68 11       	cpse	r22, r8
     20c:	77 11       	cpse	r23, r7
     20e:	7a 11       	cpse	r23, r10

00000210 <__trampolines_end>:
     210:	44 45       	sbci	r20, 0x54	; 84
     212:	42 55       	subi	r20, 0x52	; 82
     214:	47 20       	and	r4, r7
     216:	55 41       	sbci	r21, 0x15	; 21
     218:	52 54       	subi	r21, 0x42	; 66
     21a:	20 49       	sbci	r18, 0x90	; 144
     21c:	4e 49       	sbci	r20, 0x9E	; 158
     21e:	54 3a       	cpi	r21, 0xA4	; 164
     220:	20 00       	.word	0x0020	; ????

00000222 <bad>:
     222:	42 41 44 00                                         BAD.

00000226 <good>:
     226:	47 4f 4f 44 00                                      GOOD.

0000022b <sleepmgr_configs>:
     22b:	00 0e 06 0c 04 00 00                                .......

00000232 <__ctors_end>:
     232:	11 24       	eor	r1, r1
     234:	1f be       	out	0x3f, r1	; 63
     236:	cf ef       	ldi	r28, 0xFF	; 255
     238:	cd bf       	out	0x3d, r28	; 61
     23a:	df e2       	ldi	r29, 0x2F	; 47
     23c:	de bf       	out	0x3e, r29	; 62

0000023e <__do_copy_data>:
     23e:	16 e2       	ldi	r17, 0x26	; 38
     240:	a0 e0       	ldi	r26, 0x00	; 0
     242:	b0 e2       	ldi	r27, 0x20	; 32
     244:	ec e8       	ldi	r30, 0x8C	; 140
     246:	f9 e5       	ldi	r31, 0x59	; 89
     248:	00 e0       	ldi	r16, 0x00	; 0
     24a:	0b bf       	out	0x3b, r16	; 59
     24c:	02 c0       	rjmp	.+4      	; 0x252 <__do_copy_data+0x14>
     24e:	07 90       	elpm	r0, Z+
     250:	0d 92       	st	X+, r0
     252:	a8 31       	cpi	r26, 0x18	; 24
     254:	b1 07       	cpc	r27, r17
     256:	d9 f7       	brne	.-10     	; 0x24e <__do_copy_data+0x10>

00000258 <__do_clear_bss>:
     258:	28 e2       	ldi	r18, 0x28	; 40
     25a:	a8 e1       	ldi	r26, 0x18	; 24
     25c:	b6 e2       	ldi	r27, 0x26	; 38
     25e:	01 c0       	rjmp	.+2      	; 0x262 <.do_clear_bss_start>

00000260 <.do_clear_bss_loop>:
     260:	1d 92       	st	X+, r1

00000262 <.do_clear_bss_start>:
     262:	a3 3d       	cpi	r26, 0xD3	; 211
     264:	b2 07       	cpc	r27, r18
     266:	e1 f7       	brne	.-8      	; 0x260 <.do_clear_bss_loop>
     268:	0e 94 1d 28 	call	0x503a	; 0x503a <main>
     26c:	0c 94 c4 2c 	jmp	0x5988	; 0x5988 <_exit>

00000270 <__bad_interrupt>:
     270:	c7 ce       	rjmp	.-626    	; 0x0 <__vectors>

00000272 <setupAnalog>:
     272:	6b e1       	ldi	r22, 0x1B	; 27
     274:	76 e2       	ldi	r23, 0x26	; 38
     276:	80 e0       	ldi	r24, 0x00	; 0
     278:	92 e0       	ldi	r25, 0x02	; 2
     27a:	0e 94 dc 19 	call	0x33b8	; 0x33b8 <adc_read_configuration>
     27e:	48 e1       	ldi	r20, 0x18	; 24
     280:	56 e2       	ldi	r21, 0x26	; 38
     282:	61 e0       	ldi	r22, 0x01	; 1
     284:	80 e0       	ldi	r24, 0x00	; 0
     286:	92 e0       	ldi	r25, 0x02	; 2
     288:	0e 94 16 1a 	call	0x342c	; 0x342c <adcch_read_configuration>
     28c:	eb e1       	ldi	r30, 0x1B	; 27
     28e:	f6 e2       	ldi	r31, 0x26	; 38
     290:	90 81       	ld	r25, Z
     292:	81 81       	ldd	r24, Z+1	; 0x01
     294:	8f 7c       	andi	r24, 0xCF	; 207
     296:	80 62       	ori	r24, 0x20	; 32
     298:	81 83       	std	Z+1, r24	; 0x01
     29a:	91 7e       	andi	r25, 0xE1	; 225
     29c:	90 83       	st	Z, r25
     29e:	12 82       	std	Z+2, r1	; 0x02
     2a0:	84 e0       	ldi	r24, 0x04	; 4
     2a2:	83 83       	std	Z+3, r24	; 0x03
     2a4:	bf 01       	movw	r22, r30
     2a6:	80 e0       	ldi	r24, 0x00	; 0
     2a8:	92 e0       	ldi	r25, 0x02	; 2
     2aa:	0c 94 93 19 	jmp	0x3326	; 0x3326 <adc_write_configuration>

000002ae <sampleAnalogChannel>:
     2ae:	80 31       	cpi	r24, 0x10	; 16
     2b0:	20 f5       	brcc	.+72     	; 0x2fa <sampleAnalogChannel+0x4c>
     2b2:	91 e0       	ldi	r25, 0x01	; 1
     2b4:	90 93 18 26 	sts	0x2618, r25
     2b8:	88 0f       	add	r24, r24
     2ba:	88 0f       	add	r24, r24
     2bc:	88 0f       	add	r24, r24
     2be:	80 93 19 26 	sts	0x2619, r24
     2c2:	48 e1       	ldi	r20, 0x18	; 24
     2c4:	56 e2       	ldi	r21, 0x26	; 38
     2c6:	61 e0       	ldi	r22, 0x01	; 1
     2c8:	80 e0       	ldi	r24, 0x00	; 0
     2ca:	92 e0       	ldi	r25, 0x02	; 2
     2cc:	0e 94 fc 19 	call	0x33f8	; 0x33f8 <adcch_write_configuration>
     2d0:	9f b7       	in	r25, 0x3f	; 63
     2d2:	f8 94       	cli
     2d4:	80 91 00 02 	lds	r24, 0x0200
     2d8:	84 60       	ori	r24, 0x04	; 4
     2da:	80 93 00 02 	sts	0x0200, r24
     2de:	9f bf       	out	0x3f, r25	; 63
     2e0:	80 91 06 02 	lds	r24, 0x0206
     2e4:	98 2f       	mov	r25, r24
     2e6:	91 70       	andi	r25, 0x01	; 1
     2e8:	80 ff       	sbrs	r24, 0
     2ea:	fa cf       	rjmp	.-12     	; 0x2e0 <sampleAnalogChannel+0x32>
     2ec:	90 93 06 02 	sts	0x0206, r25
     2f0:	80 91 24 02 	lds	r24, 0x0224
     2f4:	90 91 25 02 	lds	r25, 0x0225
     2f8:	08 95       	ret
     2fa:	10 92 18 26 	sts	0x2618, r1
     2fe:	80 51       	subi	r24, 0x10	; 16
     300:	88 0f       	add	r24, r24
     302:	88 0f       	add	r24, r24
     304:	88 0f       	add	r24, r24
     306:	80 93 19 26 	sts	0x2619, r24
     30a:	db cf       	rjmp	.-74     	; 0x2c2 <sampleAnalogChannel+0x14>

0000030c <enableAnalog>:
     30c:	80 e0       	ldi	r24, 0x00	; 0
     30e:	92 e0       	ldi	r25, 0x02	; 2
     310:	0c 94 6d 19 	jmp	0x32da	; 0x32da <adc_enable>

00000314 <board_init>:
     314:	8f 92       	push	r8
     316:	9f 92       	push	r9
     318:	bf 92       	push	r11
     31a:	cf 92       	push	r12
     31c:	df 92       	push	r13
     31e:	ef 92       	push	r14
     320:	ff 92       	push	r15
     322:	0f 93       	push	r16
     324:	1f 93       	push	r17
     326:	cf 93       	push	r28
     328:	df 93       	push	r29
     32a:	80 e4       	ldi	r24, 0x40	; 64
     32c:	88 2e       	mov	r8, r24
     32e:	86 e0       	ldi	r24, 0x06	; 6
     330:	98 2e       	mov	r9, r24
     332:	12 e0       	ldi	r17, 0x02	; 2
     334:	d4 01       	movw	r26, r8
     336:	15 96       	adiw	r26, 0x05	; 5
     338:	1c 93       	st	X, r17
     33a:	15 97       	sbiw	r26, 0x05	; 5
     33c:	11 96       	adiw	r26, 0x01	; 1
     33e:	1c 93       	st	X, r17
     340:	11 97       	sbiw	r26, 0x01	; 1
     342:	e0 eb       	ldi	r30, 0xB0	; 176
     344:	f0 e0       	ldi	r31, 0x00	; 0
     346:	10 83       	st	Z, r17
     348:	00 e2       	ldi	r16, 0x20	; 32
     34a:	50 96       	adiw	r26, 0x10	; 16
     34c:	0c 93       	st	X, r16
     34e:	50 97       	sbiw	r26, 0x10	; 16
     350:	cc 24       	eor	r12, r12
     352:	c3 94       	inc	r12
     354:	12 96       	adiw	r26, 0x02	; 2
     356:	cc 92       	st	X, r12
     358:	12 97       	sbiw	r26, 0x02	; 2
     35a:	c0 82       	st	Z, r12
     35c:	78 e1       	ldi	r23, 0x18	; 24
     35e:	50 96       	adiw	r26, 0x10	; 16
     360:	7c 93       	st	X, r23
     362:	c0 e0       	ldi	r28, 0x00	; 0
     364:	d6 e0       	ldi	r29, 0x06	; 6
     366:	98 e0       	ldi	r25, 0x08	; 8
     368:	d9 2e       	mov	r13, r25
     36a:	da 82       	std	Y+2, r13	; 0x02
     36c:	d0 82       	st	Z, r13
     36e:	18 8a       	std	Y+16, r1	; 0x10
     370:	20 e2       	ldi	r18, 0x20	; 32
     372:	36 e0       	ldi	r19, 0x06	; 6
     374:	d9 01       	movw	r26, r18
     376:	12 96       	adiw	r26, 0x02	; 2
     378:	1c 93       	st	X, r17
     37a:	12 97       	sbiw	r26, 0x02	; 2
     37c:	10 83       	st	Z, r17
     37e:	50 96       	adiw	r26, 0x10	; 16
     380:	7c 93       	st	X, r23
     382:	50 97       	sbiw	r26, 0x10	; 16
     384:	12 96       	adiw	r26, 0x02	; 2
     386:	0c 93       	st	X, r16
     388:	12 97       	sbiw	r26, 0x02	; 2
     38a:	00 83       	st	Z, r16
     38c:	50 96       	adiw	r26, 0x10	; 16
     38e:	7c 93       	st	X, r23
     390:	50 97       	sbiw	r26, 0x10	; 16
     392:	12 96       	adiw	r26, 0x02	; 2
     394:	dc 92       	st	X, r13
     396:	12 97       	sbiw	r26, 0x02	; 2
     398:	d0 82       	st	Z, r13
     39a:	50 96       	adiw	r26, 0x10	; 16
     39c:	7c 93       	st	X, r23
     39e:	1a 83       	std	Y+2, r17	; 0x02
     3a0:	10 83       	st	Z, r17
     3a2:	78 8b       	std	Y+16, r23	; 0x10
     3a4:	0a 83       	std	Y+2, r16	; 0x02
     3a6:	00 83       	st	Z, r16
     3a8:	78 8b       	std	Y+16, r23	; 0x10
     3aa:	40 ea       	ldi	r20, 0xA0	; 160
     3ac:	56 e0       	ldi	r21, 0x06	; 6
     3ae:	60 e1       	ldi	r22, 0x10	; 16
     3b0:	da 01       	movw	r26, r20
     3b2:	12 96       	adiw	r26, 0x02	; 2
     3b4:	6c 93       	st	X, r22
     3b6:	12 97       	sbiw	r26, 0x02	; 2
     3b8:	60 83       	st	Z, r22
     3ba:	50 96       	adiw	r26, 0x10	; 16
     3bc:	7c 93       	st	X, r23
     3be:	50 97       	sbiw	r26, 0x10	; 16
     3c0:	6a 83       	std	Y+2, r22	; 0x02
     3c2:	60 83       	st	Z, r22
     3c4:	78 8b       	std	Y+16, r23	; 0x10
     3c6:	80 e8       	ldi	r24, 0x80	; 128
     3c8:	e8 2e       	mov	r14, r24
     3ca:	ea 82       	std	Y+2, r14	; 0x02
     3cc:	e0 82       	st	Z, r14
     3ce:	78 8b       	std	Y+16, r23	; 0x10
     3d0:	94 e0       	ldi	r25, 0x04	; 4
     3d2:	f9 2e       	mov	r15, r25
     3d4:	12 96       	adiw	r26, 0x02	; 2
     3d6:	fc 92       	st	X, r15
     3d8:	12 97       	sbiw	r26, 0x02	; 2
     3da:	f0 82       	st	Z, r15
     3dc:	50 96       	adiw	r26, 0x10	; 16
     3de:	6c 93       	st	X, r22
     3e0:	50 97       	sbiw	r26, 0x10	; 16
     3e2:	12 96       	adiw	r26, 0x02	; 2
     3e4:	0c 93       	st	X, r16
     3e6:	12 97       	sbiw	r26, 0x02	; 2
     3e8:	00 83       	st	Z, r16
     3ea:	50 96       	adiw	r26, 0x10	; 16
     3ec:	7c 93       	st	X, r23
     3ee:	50 97       	sbiw	r26, 0x10	; 16
     3f0:	12 96       	adiw	r26, 0x02	; 2
     3f2:	ec 92       	st	X, r14
     3f4:	12 97       	sbiw	r26, 0x02	; 2
     3f6:	e0 82       	st	Z, r14
     3f8:	50 96       	adiw	r26, 0x10	; 16
     3fa:	7c 93       	st	X, r23
     3fc:	50 97       	sbiw	r26, 0x10	; 16
     3fe:	80 e4       	ldi	r24, 0x40	; 64
     400:	b8 2e       	mov	r11, r24
     402:	12 96       	adiw	r26, 0x02	; 2
     404:	bc 92       	st	X, r11
     406:	12 97       	sbiw	r26, 0x02	; 2
     408:	b0 82       	st	Z, r11
     40a:	50 96       	adiw	r26, 0x10	; 16
     40c:	7c 93       	st	X, r23
     40e:	fa 82       	std	Y+2, r15	; 0x02
     410:	f0 82       	st	Z, r15
     412:	78 8b       	std	Y+16, r23	; 0x10
     414:	d9 01       	movw	r26, r18
     416:	12 96       	adiw	r26, 0x02	; 2
     418:	6c 93       	st	X, r22
     41a:	12 97       	sbiw	r26, 0x02	; 2
     41c:	60 83       	st	Z, r22
     41e:	50 96       	adiw	r26, 0x10	; 16
     420:	7c 93       	st	X, r23
     422:	80 e6       	ldi	r24, 0x60	; 96
     424:	96 e0       	ldi	r25, 0x06	; 6
     426:	dc 01       	movw	r26, r24
     428:	12 96       	adiw	r26, 0x02	; 2
     42a:	0c 93       	st	X, r16
     42c:	12 97       	sbiw	r26, 0x02	; 2
     42e:	00 83       	st	Z, r16
     430:	50 96       	adiw	r26, 0x10	; 16
     432:	7c 93       	st	X, r23
     434:	50 97       	sbiw	r26, 0x10	; 16
     436:	12 96       	adiw	r26, 0x02	; 2
     438:	6c 93       	st	X, r22
     43a:	12 97       	sbiw	r26, 0x02	; 2
     43c:	60 83       	st	Z, r22
     43e:	50 96       	adiw	r26, 0x10	; 16
     440:	7c 93       	st	X, r23
     442:	ba 82       	std	Y+2, r11	; 0x02
     444:	b0 82       	st	Z, r11
     446:	18 8a       	std	Y+16, r1	; 0x10
     448:	e9 01       	movw	r28, r18
     44a:	ca 82       	std	Y+2, r12	; 0x02
     44c:	c0 82       	st	Z, r12
     44e:	18 8a       	std	Y+16, r1	; 0x10
     450:	ba 82       	std	Y+2, r11	; 0x02
     452:	b0 82       	st	Z, r11
     454:	18 8a       	std	Y+16, r1	; 0x10
     456:	ea 82       	std	Y+2, r14	; 0x02
     458:	e0 82       	st	Z, r14
     45a:	18 8a       	std	Y+16, r1	; 0x10
     45c:	a0 e8       	ldi	r26, 0x80	; 128
     45e:	b6 e0       	ldi	r27, 0x06	; 6
     460:	15 96       	adiw	r26, 0x05	; 5
     462:	cc 92       	st	X, r12
     464:	15 97       	sbiw	r26, 0x05	; 5
     466:	11 96       	adiw	r26, 0x01	; 1
     468:	cc 92       	st	X, r12
     46a:	11 97       	sbiw	r26, 0x01	; 1
     46c:	c0 82       	st	Z, r12
     46e:	50 96       	adiw	r26, 0x10	; 16
     470:	1c 92       	st	X, r1
     472:	50 97       	sbiw	r26, 0x10	; 16
     474:	ea 01       	movw	r28, r20
     476:	cd 82       	std	Y+5, r12	; 0x05
     478:	c9 82       	std	Y+1, r12	; 0x01
     47a:	c0 82       	st	Z, r12
     47c:	18 8a       	std	Y+16, r1	; 0x10
     47e:	16 96       	adiw	r26, 0x06	; 6
     480:	6c 93       	st	X, r22
     482:	16 97       	sbiw	r26, 0x06	; 6
     484:	12 96       	adiw	r26, 0x02	; 2
     486:	6c 93       	st	X, r22
     488:	12 97       	sbiw	r26, 0x02	; 2
     48a:	60 83       	st	Z, r22
     48c:	50 96       	adiw	r26, 0x10	; 16
     48e:	1c 92       	st	X, r1
     490:	50 97       	sbiw	r26, 0x10	; 16
     492:	11 96       	adiw	r26, 0x01	; 1
     494:	1c 93       	st	X, r17
     496:	11 97       	sbiw	r26, 0x01	; 1
     498:	10 83       	st	Z, r17
     49a:	50 96       	adiw	r26, 0x10	; 16
     49c:	1c 92       	st	X, r1
     49e:	50 97       	sbiw	r26, 0x10	; 16
     4a0:	15 96       	adiw	r26, 0x05	; 5
     4a2:	dc 92       	st	X, r13
     4a4:	15 97       	sbiw	r26, 0x05	; 5
     4a6:	11 96       	adiw	r26, 0x01	; 1
     4a8:	dc 92       	st	X, r13
     4aa:	11 97       	sbiw	r26, 0x01	; 1
     4ac:	d0 82       	st	Z, r13
     4ae:	50 96       	adiw	r26, 0x10	; 16
     4b0:	1c 92       	st	X, r1
     4b2:	50 97       	sbiw	r26, 0x10	; 16
     4b4:	15 96       	adiw	r26, 0x05	; 5
     4b6:	fc 92       	st	X, r15
     4b8:	15 97       	sbiw	r26, 0x05	; 5
     4ba:	12 96       	adiw	r26, 0x02	; 2
     4bc:	fc 92       	st	X, r15
     4be:	12 97       	sbiw	r26, 0x02	; 2
     4c0:	f0 82       	st	Z, r15
     4c2:	50 96       	adiw	r26, 0x10	; 16
     4c4:	1c 92       	st	X, r1
     4c6:	50 97       	sbiw	r26, 0x10	; 16
     4c8:	16 96       	adiw	r26, 0x06	; 6
     4ca:	0c 93       	st	X, r16
     4cc:	16 97       	sbiw	r26, 0x06	; 6
     4ce:	11 96       	adiw	r26, 0x01	; 1
     4d0:	0c 93       	st	X, r16
     4d2:	11 97       	sbiw	r26, 0x01	; 1
     4d4:	00 83       	st	Z, r16
     4d6:	50 96       	adiw	r26, 0x10	; 16
     4d8:	1c 92       	st	X, r1
     4da:	50 97       	sbiw	r26, 0x10	; 16
     4dc:	1d 83       	std	Y+5, r17	; 0x05
     4de:	19 83       	std	Y+1, r17	; 0x01
     4e0:	10 83       	st	Z, r17
     4e2:	18 8a       	std	Y+16, r1	; 0x10
     4e4:	ec 01       	movw	r28, r24
     4e6:	cd 82       	std	Y+5, r12	; 0x05
     4e8:	c9 82       	std	Y+1, r12	; 0x01
     4ea:	c0 82       	st	Z, r12
     4ec:	18 8a       	std	Y+16, r1	; 0x10
     4ee:	1d 83       	std	Y+5, r17	; 0x05
     4f0:	19 83       	std	Y+1, r17	; 0x01
     4f2:	10 83       	st	Z, r17
     4f4:	18 8a       	std	Y+16, r1	; 0x10
     4f6:	e9 01       	movw	r28, r18
     4f8:	fa 82       	std	Y+2, r15	; 0x02
     4fa:	f0 82       	st	Z, r15
     4fc:	78 8b       	std	Y+16, r23	; 0x10
     4fe:	e4 01       	movw	r28, r8
     500:	dd 82       	std	Y+5, r13	; 0x05
     502:	d9 82       	std	Y+1, r13	; 0x01
     504:	d0 82       	st	Z, r13
     506:	18 8a       	std	Y+16, r1	; 0x10
     508:	fd 82       	std	Y+5, r15	; 0x05
     50a:	fa 82       	std	Y+2, r15	; 0x02
     50c:	f0 82       	st	Z, r15
     50e:	18 8a       	std	Y+16, r1	; 0x10
     510:	15 96       	adiw	r26, 0x05	; 5
     512:	ec 92       	st	X, r14
     514:	15 97       	sbiw	r26, 0x05	; 5
     516:	11 96       	adiw	r26, 0x01	; 1
     518:	ec 92       	st	X, r14
     51a:	11 97       	sbiw	r26, 0x01	; 1
     51c:	e0 82       	st	Z, r14
     51e:	50 96       	adiw	r26, 0x10	; 16
     520:	1c 92       	st	X, r1
     522:	dc 01       	movw	r26, r24
     524:	15 96       	adiw	r26, 0x05	; 5
     526:	dc 92       	st	X, r13
     528:	15 97       	sbiw	r26, 0x05	; 5
     52a:	11 96       	adiw	r26, 0x01	; 1
     52c:	dc 92       	st	X, r13
     52e:	11 97       	sbiw	r26, 0x01	; 1
     530:	d0 82       	st	Z, r13
     532:	50 96       	adiw	r26, 0x10	; 16
     534:	1c 92       	st	X, r1
     536:	50 97       	sbiw	r26, 0x10	; 16
     538:	12 96       	adiw	r26, 0x02	; 2
     53a:	fc 92       	st	X, r15
     53c:	12 97       	sbiw	r26, 0x02	; 2
     53e:	f0 82       	st	Z, r15
     540:	50 96       	adiw	r26, 0x10	; 16
     542:	1c 92       	st	X, r1
     544:	50 97       	sbiw	r26, 0x10	; 16
     546:	12 96       	adiw	r26, 0x02	; 2
     548:	ec 92       	st	X, r14
     54a:	12 97       	sbiw	r26, 0x02	; 2
     54c:	e0 82       	st	Z, r14
     54e:	50 96       	adiw	r26, 0x10	; 16
     550:	6c 93       	st	X, r22
     552:	6a 83       	std	Y+2, r22	; 0x02
     554:	60 83       	st	Z, r22
     556:	68 8b       	std	Y+16, r22	; 0x10
     558:	0a 83       	std	Y+2, r16	; 0x02
     55a:	00 83       	st	Z, r16
     55c:	68 8b       	std	Y+16, r22	; 0x10
     55e:	ba 82       	std	Y+2, r11	; 0x02
     560:	b0 82       	st	Z, r11
     562:	68 8b       	std	Y+16, r22	; 0x10
     564:	ea 82       	std	Y+2, r14	; 0x02
     566:	e0 82       	st	Z, r14
     568:	68 8b       	std	Y+16, r22	; 0x10
     56a:	df 91       	pop	r29
     56c:	cf 91       	pop	r28
     56e:	1f 91       	pop	r17
     570:	0f 91       	pop	r16
     572:	ff 90       	pop	r15
     574:	ef 90       	pop	r14
     576:	df 90       	pop	r13
     578:	cf 90       	pop	r12
     57a:	bf 90       	pop	r11
     57c:	9f 90       	pop	r9
     57e:	8f 90       	pop	r8
     580:	08 95       	ret

00000582 <IsChargingDone>:
     582:	81 e0       	ldi	r24, 0x01	; 1
     584:	80 93 b0 00 	sts	0x00B0, r24
     588:	80 e1       	ldi	r24, 0x10	; 16
     58a:	80 93 50 06 	sts	0x0650, r24
     58e:	80 e0       	ldi	r24, 0x00	; 0
     590:	90 e0       	ldi	r25, 0x00	; 0
     592:	01 96       	adiw	r24, 0x01	; 1
     594:	8a 36       	cpi	r24, 0x6A	; 106
     596:	91 05       	cpc	r25, r1
     598:	e1 f7       	brne	.-8      	; 0x592 <IsChargingDone+0x10>
     59a:	80 91 48 06 	lds	r24, 0x0648
     59e:	91 e0       	ldi	r25, 0x01	; 1
     5a0:	90 93 b0 00 	sts	0x00B0, r25
     5a4:	10 92 50 06 	sts	0x0650, r1
     5a8:	81 70       	andi	r24, 0x01	; 1
     5aa:	08 95       	ret

000005ac <MaintainControllerStatus>:
     5ac:	ef 92       	push	r14
     5ae:	ff 92       	push	r15
     5b0:	0f 93       	push	r16
     5b2:	1f 93       	push	r17
     5b4:	cf 93       	push	r28
     5b6:	df 93       	push	r29
     5b8:	1f 92       	push	r1
     5ba:	cd b7       	in	r28, 0x3d	; 61
     5bc:	de b7       	in	r29, 0x3e	; 62
     5be:	08 2f       	mov	r16, r24
     5c0:	7a 01       	movw	r14, r20
     5c2:	69 83       	std	Y+1, r22	; 0x01
     5c4:	0e 94 3b 27 	call	0x4e76	; 0x4e76 <btIsConnected>
     5c8:	18 2f       	mov	r17, r24
     5ca:	69 81       	ldd	r22, Y+1	; 0x01
     5cc:	61 11       	cpse	r22, r1
     5ce:	4a c0       	rjmp	.+148    	; 0x664 <MaintainControllerStatus+0xb8>
     5d0:	89 e3       	ldi	r24, 0x39	; 57
     5d2:	e8 16       	cp	r14, r24
     5d4:	8c e0       	ldi	r24, 0x0C	; 12
     5d6:	f8 06       	cpc	r15, r24
     5d8:	08 f0       	brcs	.+2      	; 0x5dc <MaintainControllerStatus+0x30>
     5da:	4f c0       	rjmp	.+158    	; 0x67a <MaintainControllerStatus+0xce>
     5dc:	83 e0       	ldi	r24, 0x03	; 3
     5de:	f8 2e       	mov	r15, r24
     5e0:	40 e0       	ldi	r20, 0x00	; 0
     5e2:	60 e0       	ldi	r22, 0x00	; 0
     5e4:	81 e0       	ldi	r24, 0x01	; 1
     5e6:	0e 94 bc 15 	call	0x2b78	; 0x2b78 <setLEDValue>
     5ea:	4a ea       	ldi	r20, 0xAA	; 170
     5ec:	56 e4       	ldi	r21, 0x46	; 70
     5ee:	60 e1       	ldi	r22, 0x10	; 16
     5f0:	70 e0       	ldi	r23, 0x00	; 0
     5f2:	41 50       	subi	r20, 0x01	; 1
     5f4:	51 09       	sbc	r21, r1
     5f6:	61 09       	sbc	r22, r1
     5f8:	71 09       	sbc	r23, r1
     5fa:	41 15       	cp	r20, r1
     5fc:	51 05       	cpc	r21, r1
     5fe:	61 05       	cpc	r22, r1
     600:	71 05       	cpc	r23, r1
     602:	b9 f7       	brne	.-18     	; 0x5f2 <MaintainControllerStatus+0x46>
     604:	40 e0       	ldi	r20, 0x00	; 0
     606:	60 e0       	ldi	r22, 0x00	; 0
     608:	80 e0       	ldi	r24, 0x00	; 0
     60a:	0e 94 bc 15 	call	0x2b78	; 0x2b78 <setLEDValue>
     60e:	4a ea       	ldi	r20, 0xAA	; 170
     610:	56 e4       	ldi	r21, 0x46	; 70
     612:	60 e1       	ldi	r22, 0x10	; 16
     614:	70 e0       	ldi	r23, 0x00	; 0
     616:	41 50       	subi	r20, 0x01	; 1
     618:	51 09       	sbc	r21, r1
     61a:	61 09       	sbc	r22, r1
     61c:	71 09       	sbc	r23, r1
     61e:	41 15       	cp	r20, r1
     620:	51 05       	cpc	r21, r1
     622:	61 05       	cpc	r22, r1
     624:	71 05       	cpc	r23, r1
     626:	b9 f7       	brne	.-18     	; 0x616 <MaintainControllerStatus+0x6a>
     628:	fa 94       	dec	r15
     62a:	d1 f6       	brne	.-76     	; 0x5e0 <MaintainControllerStatus+0x34>
     62c:	80 91 ee 27 	lds	r24, 0x27EE
     630:	88 1f       	adc	r24, r24
     632:	88 27       	eor	r24, r24
     634:	88 1f       	adc	r24, r24
     636:	90 91 ef 27 	lds	r25, 0x27EF
     63a:	9f 73       	andi	r25, 0x3F	; 63
     63c:	99 0f       	add	r25, r25
     63e:	98 2b       	or	r25, r24
     640:	81 e0       	ldi	r24, 0x01	; 1
     642:	69 f1       	breq	.+90     	; 0x69e <MaintainControllerStatus+0xf2>
     644:	0e 94 13 15 	call	0x2a26	; 0x2a26 <powerOff>
     648:	40 e0       	ldi	r20, 0x00	; 0
     64a:	60 e0       	ldi	r22, 0x00	; 0
     64c:	80 e0       	ldi	r24, 0x00	; 0
     64e:	11 23       	and	r17, r17
     650:	71 f0       	breq	.+28     	; 0x66e <MaintainControllerStatus+0xc2>
     652:	0f 90       	pop	r0
     654:	df 91       	pop	r29
     656:	cf 91       	pop	r28
     658:	1f 91       	pop	r17
     65a:	0f 91       	pop	r16
     65c:	ff 90       	pop	r15
     65e:	ef 90       	pop	r14
     660:	0c 94 bc 15 	jmp	0x2b78	; 0x2b78 <setLEDValue>
     664:	41 e0       	ldi	r20, 0x01	; 1
     666:	61 e0       	ldi	r22, 0x01	; 1
     668:	81 e0       	ldi	r24, 0x01	; 1
     66a:	11 11       	cpse	r17, r1
     66c:	f2 cf       	rjmp	.-28     	; 0x652 <MaintainControllerStatus+0xa6>
     66e:	01 11       	cpse	r16, r1
     670:	f0 cf       	rjmp	.-32     	; 0x652 <MaintainControllerStatus+0xa6>
     672:	40 e0       	ldi	r20, 0x00	; 0
     674:	60 e0       	ldi	r22, 0x00	; 0
     676:	80 e0       	ldi	r24, 0x00	; 0
     678:	ec cf       	rjmp	.-40     	; 0x652 <MaintainControllerStatus+0xa6>
     67a:	e3 e4       	ldi	r30, 0x43	; 67
     67c:	ee 16       	cp	r14, r30
     67e:	ec e0       	ldi	r30, 0x0C	; 12
     680:	fe 06       	cpc	r15, r30
     682:	48 f0       	brcs	.+18     	; 0x696 <MaintainControllerStatus+0xea>
     684:	fa e8       	ldi	r31, 0x8A	; 138
     686:	ef 16       	cp	r14, r31
     688:	fc e0       	ldi	r31, 0x0C	; 12
     68a:	ff 06       	cpc	r15, r31
     68c:	78 f4       	brcc	.+30     	; 0x6ac <MaintainControllerStatus+0x100>
     68e:	40 e0       	ldi	r20, 0x00	; 0
     690:	61 e0       	ldi	r22, 0x01	; 1
     692:	81 e0       	ldi	r24, 0x01	; 1
     694:	ea cf       	rjmp	.-44     	; 0x66a <MaintainControllerStatus+0xbe>
     696:	40 e0       	ldi	r20, 0x00	; 0
     698:	60 e0       	ldi	r22, 0x00	; 0
     69a:	81 e0       	ldi	r24, 0x01	; 1
     69c:	e6 cf       	rjmp	.-52     	; 0x66a <MaintainControllerStatus+0xbe>
     69e:	80 e0       	ldi	r24, 0x00	; 0
     6a0:	0e 94 13 15 	call	0x2a26	; 0x2a26 <powerOff>
     6a4:	40 e0       	ldi	r20, 0x00	; 0
     6a6:	60 e0       	ldi	r22, 0x00	; 0
     6a8:	80 e0       	ldi	r24, 0x00	; 0
     6aa:	d1 cf       	rjmp	.-94     	; 0x64e <MaintainControllerStatus+0xa2>
     6ac:	41 e0       	ldi	r20, 0x01	; 1
     6ae:	60 e0       	ldi	r22, 0x00	; 0
     6b0:	80 e0       	ldi	r24, 0x00	; 0
     6b2:	db cf       	rjmp	.-74     	; 0x66a <MaintainControllerStatus+0xbe>

000006b4 <SetupChrgStatPinExternalInterrupt>:
     6b4:	9f b7       	in	r25, 0x3f	; 63
     6b6:	f8 94       	cli
     6b8:	81 e0       	ldi	r24, 0x01	; 1
     6ba:	80 93 4a 06 	sts	0x064A, r24
     6be:	2f b7       	in	r18, 0x3f	; 63
     6c0:	f8 94       	cli
     6c2:	80 93 b0 00 	sts	0x00B0, r24
     6c6:	e0 e4       	ldi	r30, 0x40	; 64
     6c8:	f6 e0       	ldi	r31, 0x06	; 6
     6ca:	80 89       	ldd	r24, Z+16	; 0x10
     6cc:	88 7f       	andi	r24, 0xF8	; 248
     6ce:	80 8b       	std	Z+16, r24	; 0x10
     6d0:	80 89       	ldd	r24, Z+16	; 0x10
     6d2:	81 60       	ori	r24, 0x01	; 1
     6d4:	80 8b       	std	Z+16, r24	; 0x10
     6d6:	2f bf       	out	0x3f, r18	; 63
     6d8:	82 e0       	ldi	r24, 0x02	; 2
     6da:	80 93 49 06 	sts	0x0649, r24
     6de:	9f bf       	out	0x3f, r25	; 63
     6e0:	08 95       	ret

000006e2 <__vector_2>:
     6e2:	1f 92       	push	r1
     6e4:	0f 92       	push	r0
     6e6:	0f b6       	in	r0, 0x3f	; 63
     6e8:	0f 92       	push	r0
     6ea:	11 24       	eor	r1, r1
     6ec:	0b b6       	in	r0, 0x3b	; 59
     6ee:	0f 92       	push	r0
     6f0:	2f 93       	push	r18
     6f2:	3f 93       	push	r19
     6f4:	4f 93       	push	r20
     6f6:	5f 93       	push	r21
     6f8:	6f 93       	push	r22
     6fa:	7f 93       	push	r23
     6fc:	8f 93       	push	r24
     6fe:	9f 93       	push	r25
     700:	af 93       	push	r26
     702:	bf 93       	push	r27
     704:	cf 93       	push	r28
     706:	ef 93       	push	r30
     708:	ff 93       	push	r31
     70a:	cf b7       	in	r28, 0x3f	; 63
     70c:	f8 94       	cli
     70e:	80 91 4c 06 	lds	r24, 0x064C
     712:	80 ff       	sbrs	r24, 0
     714:	03 c0       	rjmp	.+6      	; 0x71c <__vector_2+0x3a>
     716:	81 e0       	ldi	r24, 0x01	; 1
     718:	80 93 4c 06 	sts	0x064C, r24
     71c:	41 e0       	ldi	r20, 0x01	; 1
     71e:	61 e0       	ldi	r22, 0x01	; 1
     720:	81 e0       	ldi	r24, 0x01	; 1
     722:	0e 94 bc 15 	call	0x2b78	; 0x2b78 <setLEDValue>
     726:	80 91 48 00 	lds	r24, 0x0048
     72a:	8e 70       	andi	r24, 0x0E	; 14
     72c:	84 30       	cpi	r24, 0x04	; 4
     72e:	a9 f0       	breq	.+42     	; 0x75a <__vector_2+0x78>
     730:	cf bf       	out	0x3f, r28	; 63
     732:	ff 91       	pop	r31
     734:	ef 91       	pop	r30
     736:	cf 91       	pop	r28
     738:	bf 91       	pop	r27
     73a:	af 91       	pop	r26
     73c:	9f 91       	pop	r25
     73e:	8f 91       	pop	r24
     740:	7f 91       	pop	r23
     742:	6f 91       	pop	r22
     744:	5f 91       	pop	r21
     746:	4f 91       	pop	r20
     748:	3f 91       	pop	r19
     74a:	2f 91       	pop	r18
     74c:	0f 90       	pop	r0
     74e:	0b be       	out	0x3b, r0	; 59
     750:	0f 90       	pop	r0
     752:	0f be       	out	0x3f, r0	; 63
     754:	0f 90       	pop	r0
     756:	1f 90       	pop	r1
     758:	18 95       	reti
     75a:	80 91 48 00 	lds	r24, 0x0048
     75e:	8e 7f       	andi	r24, 0xFE	; 254
     760:	80 93 48 00 	sts	0x0048, r24
     764:	61 e0       	ldi	r22, 0x01	; 1
     766:	89 e7       	ldi	r24, 0x79	; 121
     768:	90 e0       	ldi	r25, 0x00	; 0
     76a:	0e 94 30 1a 	call	0x3460	; 0x3460 <ccp_write_io>
     76e:	ff cf       	rjmp	.-2      	; 0x76e <__vector_2+0x8c>

00000770 <ManufactureTestButtonPress>:
     770:	cf 93       	push	r28
     772:	df 93       	push	r29
     774:	cd b7       	in	r28, 0x3d	; 61
     776:	de b7       	in	r29, 0x3e	; 62
     778:	28 97       	sbiw	r28, 0x08	; 8
     77a:	cd bf       	out	0x3d, r28	; 61
     77c:	de bf       	out	0x3e, r29	; 62
     77e:	40 ef       	ldi	r20, 0xF0	; 240
     780:	59 e4       	ldi	r21, 0x49	; 73
     782:	62 e0       	ldi	r22, 0x02	; 2
     784:	70 e0       	ldi	r23, 0x00	; 0
     786:	81 ef       	ldi	r24, 0xF1	; 241
     788:	97 e2       	ldi	r25, 0x27	; 39
     78a:	0e 94 b4 16 	call	0x2d68	; 0x2d68 <startTimeout>
     78e:	10 c0       	rjmp	.+32     	; 0x7b0 <ManufactureTestButtonPress+0x40>
     790:	23 2b       	or	r18, r19
     792:	09 f4       	brne	.+2      	; 0x796 <ManufactureTestButtonPress+0x26>
     794:	62 c0       	rjmp	.+196    	; 0x85a <ManufactureTestButtonPress+0xea>
     796:	bb 24       	eor	r11, r11
     798:	b3 94       	inc	r11
     79a:	02 5f       	subi	r16, 0xF2	; 242
     79c:	1f 4f       	sbci	r17, 0xFF	; 255
     79e:	f0 e2       	ldi	r31, 0x20	; 32
     7a0:	0f 35       	cpi	r16, 0x5F	; 95
     7a2:	1f 07       	cpc	r17, r31
     7a4:	19 f5       	brne	.+70     	; 0x7ec <ManufactureTestButtonPress+0x7c>
     7a6:	4b 2d       	mov	r20, r11
     7a8:	6d 2d       	mov	r22, r13
     7aa:	8c 2d       	mov	r24, r12
     7ac:	0e 94 bc 15 	call	0x2b78	; 0x2b78 <setLEDValue>
     7b0:	0e 94 ea 18 	call	0x31d4	; 0x31d4 <WatchdogPet>
     7b4:	88 e0       	ldi	r24, 0x08	; 8
     7b6:	f4 d0       	rcall	.+488    	; 0x9a0 <buttonActivated>
     7b8:	18 2f       	mov	r17, r24
     7ba:	89 e0       	ldi	r24, 0x09	; 9
     7bc:	f1 d0       	rcall	.+482    	; 0x9a0 <buttonActivated>
     7be:	81 11       	cpse	r24, r1
     7c0:	aa c0       	rjmp	.+340    	; 0x916 <ManufactureTestButtonPress+0x1a6>
     7c2:	81 ef       	ldi	r24, 0xF1	; 241
     7c4:	97 e2       	ldi	r25, 0x27	; 39
     7c6:	0e 94 cd 16 	call	0x2d9a	; 0x2d9a <checkTimeout>
     7ca:	81 11       	cpse	r24, r1
     7cc:	8b c0       	rjmp	.+278    	; 0x8e4 <ManufactureTestButtonPress+0x174>
     7ce:	80 e0       	ldi	r24, 0x00	; 0
     7d0:	e7 d0       	rcall	.+462    	; 0x9a0 <buttonActivated>
     7d2:	88 23       	and	r24, r24
     7d4:	09 f4       	brne	.+2      	; 0x7d8 <ManufactureTestButtonPress+0x68>
     7d6:	4a c0       	rjmp	.+148    	; 0x86c <ManufactureTestButtonPress+0xfc>
     7d8:	dd 24       	eor	r13, r13
     7da:	d3 94       	inc	r13
     7dc:	03 e4       	ldi	r16, 0x43	; 67
     7de:	10 e2       	ldi	r17, 0x20	; 32
     7e0:	82 e9       	ldi	r24, 0x92	; 146
     7e2:	e8 2e       	mov	r14, r24
     7e4:	80 e2       	ldi	r24, 0x20	; 32
     7e6:	f8 2e       	mov	r15, r24
     7e8:	b1 2c       	mov	r11, r1
     7ea:	c1 2c       	mov	r12, r1
     7ec:	f8 01       	movw	r30, r16
     7ee:	31 97       	sbiw	r30, 0x01	; 1
     7f0:	80 81       	ld	r24, Z
     7f2:	5d dd       	rcall	.-1350   	; 0x2ae <sampleAnalogChannel>
     7f4:	8d 83       	std	Y+5, r24	; 0x05
     7f6:	9e 83       	std	Y+6, r25	; 0x06
     7f8:	f8 01       	movw	r30, r16
     7fa:	80 81       	ld	r24, Z
     7fc:	58 dd       	rcall	.-1360   	; 0x2ae <sampleAnalogChannel>
     7fe:	8f 83       	std	Y+7, r24	; 0x07
     800:	98 87       	std	Y+8, r25	; 0x08
     802:	9e 01       	movw	r18, r28
     804:	2f 5f       	subi	r18, 0xFF	; 255
     806:	3f 4f       	sbci	r19, 0xFF	; 255
     808:	ae 01       	movw	r20, r28
     80a:	4b 5f       	subi	r20, 0xFB	; 251
     80c:	5f 4f       	sbci	r21, 0xFF	; 255
     80e:	6e e8       	ldi	r22, 0x8E	; 142
     810:	70 e2       	ldi	r23, 0x20	; 32
     812:	f7 01       	movw	r30, r14
     814:	81 91       	ld	r24, Z+
     816:	91 91       	ld	r25, Z+
     818:	7f 01       	movw	r14, r30
     81a:	0e 94 72 13 	call	0x26e4	; 0x26e4 <SimpleJoystickAdj>
     81e:	6f 81       	ldd	r22, Y+7	; 0x07
     820:	78 85       	ldd	r23, Y+8	; 0x08
     822:	8d 81       	ldd	r24, Y+5	; 0x05
     824:	9e 81       	ldd	r25, Y+6	; 0x06
     826:	0e 94 65 18 	call	0x30ca	; 0x30ca <PrintXY>
     82a:	60 e0       	ldi	r22, 0x00	; 0
     82c:	8b e8       	ldi	r24, 0x8B	; 139
     82e:	90 e2       	ldi	r25, 0x20	; 32
     830:	0e 94 79 17 	call	0x2ef2	; 0x2ef2 <sendUSBString>
     834:	6b 81       	ldd	r22, Y+3	; 0x03
     836:	7c 81       	ldd	r23, Y+4	; 0x04
     838:	89 81       	ldd	r24, Y+1	; 0x01
     83a:	9a 81       	ldd	r25, Y+2	; 0x02
     83c:	0e 94 65 18 	call	0x30ca	; 0x30ca <PrintXY>
     840:	89 e2       	ldi	r24, 0x29	; 41
     842:	95 e2       	ldi	r25, 0x25	; 37
     844:	0e 94 ad 17 	call	0x2f5a	; 0x2f5a <sendUSBLine>
     848:	2b 81       	ldd	r18, Y+3	; 0x03
     84a:	3c 81       	ldd	r19, Y+4	; 0x04
     84c:	37 ff       	sbrs	r19, 7
     84e:	a0 cf       	rjmp	.-192    	; 0x790 <ManufactureTestButtonPress+0x20>
     850:	dd 24       	eor	r13, r13
     852:	d3 94       	inc	r13
     854:	cc 24       	eor	r12, r12
     856:	c3 94       	inc	r12
     858:	a0 cf       	rjmp	.-192    	; 0x79a <ManufactureTestButtonPress+0x2a>
     85a:	89 81       	ldd	r24, Y+1	; 0x01
     85c:	9a 81       	ldd	r25, Y+2	; 0x02
     85e:	18 16       	cp	r1, r24
     860:	19 06       	cpc	r1, r25
     862:	0c f0       	brlt	.+2      	; 0x866 <ManufactureTestButtonPress+0xf6>
     864:	6c c0       	rjmp	.+216    	; 0x93e <ManufactureTestButtonPress+0x1ce>
     866:	cc 24       	eor	r12, r12
     868:	c3 94       	inc	r12
     86a:	97 cf       	rjmp	.-210    	; 0x79a <ManufactureTestButtonPress+0x2a>
     86c:	81 e0       	ldi	r24, 0x01	; 1
     86e:	98 d0       	rcall	.+304    	; 0x9a0 <buttonActivated>
     870:	81 11       	cpse	r24, r1
     872:	b2 cf       	rjmp	.-156    	; 0x7d8 <ManufactureTestButtonPress+0x68>
     874:	82 e0       	ldi	r24, 0x02	; 2
     876:	94 d0       	rcall	.+296    	; 0x9a0 <buttonActivated>
     878:	81 11       	cpse	r24, r1
     87a:	ae cf       	rjmp	.-164    	; 0x7d8 <ManufactureTestButtonPress+0x68>
     87c:	83 e0       	ldi	r24, 0x03	; 3
     87e:	90 d0       	rcall	.+288    	; 0x9a0 <buttonActivated>
     880:	81 11       	cpse	r24, r1
     882:	aa cf       	rjmp	.-172    	; 0x7d8 <ManufactureTestButtonPress+0x68>
     884:	84 e0       	ldi	r24, 0x04	; 4
     886:	8c d0       	rcall	.+280    	; 0x9a0 <buttonActivated>
     888:	81 11       	cpse	r24, r1
     88a:	a6 cf       	rjmp	.-180    	; 0x7d8 <ManufactureTestButtonPress+0x68>
     88c:	85 e0       	ldi	r24, 0x05	; 5
     88e:	88 d0       	rcall	.+272    	; 0x9a0 <buttonActivated>
     890:	81 11       	cpse	r24, r1
     892:	a2 cf       	rjmp	.-188    	; 0x7d8 <ManufactureTestButtonPress+0x68>
     894:	86 e0       	ldi	r24, 0x06	; 6
     896:	84 d0       	rcall	.+264    	; 0x9a0 <buttonActivated>
     898:	81 11       	cpse	r24, r1
     89a:	9e cf       	rjmp	.-196    	; 0x7d8 <ManufactureTestButtonPress+0x68>
     89c:	87 e0       	ldi	r24, 0x07	; 7
     89e:	80 d0       	rcall	.+256    	; 0x9a0 <buttonActivated>
     8a0:	81 11       	cpse	r24, r1
     8a2:	9a cf       	rjmp	.-204    	; 0x7d8 <ManufactureTestButtonPress+0x68>
     8a4:	88 e0       	ldi	r24, 0x08	; 8
     8a6:	7c d0       	rcall	.+248    	; 0x9a0 <buttonActivated>
     8a8:	81 11       	cpse	r24, r1
     8aa:	96 cf       	rjmp	.-212    	; 0x7d8 <ManufactureTestButtonPress+0x68>
     8ac:	89 e0       	ldi	r24, 0x09	; 9
     8ae:	78 d0       	rcall	.+240    	; 0x9a0 <buttonActivated>
     8b0:	81 11       	cpse	r24, r1
     8b2:	92 cf       	rjmp	.-220    	; 0x7d8 <ManufactureTestButtonPress+0x68>
     8b4:	8b e0       	ldi	r24, 0x0B	; 11
     8b6:	74 d0       	rcall	.+232    	; 0x9a0 <buttonActivated>
     8b8:	81 11       	cpse	r24, r1
     8ba:	8e cf       	rjmp	.-228    	; 0x7d8 <ManufactureTestButtonPress+0x68>
     8bc:	8a e0       	ldi	r24, 0x0A	; 10
     8be:	70 d0       	rcall	.+224    	; 0x9a0 <buttonActivated>
     8c0:	81 11       	cpse	r24, r1
     8c2:	8a cf       	rjmp	.-236    	; 0x7d8 <ManufactureTestButtonPress+0x68>
     8c4:	8d e0       	ldi	r24, 0x0D	; 13
     8c6:	6c d0       	rcall	.+216    	; 0x9a0 <buttonActivated>
     8c8:	81 11       	cpse	r24, r1
     8ca:	86 cf       	rjmp	.-244    	; 0x7d8 <ManufactureTestButtonPress+0x68>
     8cc:	8c e0       	ldi	r24, 0x0C	; 12
     8ce:	68 d0       	rcall	.+208    	; 0x9a0 <buttonActivated>
     8d0:	81 11       	cpse	r24, r1
     8d2:	82 cf       	rjmp	.-252    	; 0x7d8 <ManufactureTestButtonPress+0x68>
     8d4:	8e e0       	ldi	r24, 0x0E	; 14
     8d6:	64 d0       	rcall	.+200    	; 0x9a0 <buttonActivated>
     8d8:	81 11       	cpse	r24, r1
     8da:	7e cf       	rjmp	.-260    	; 0x7d8 <ManufactureTestButtonPress+0x68>
     8dc:	8f e0       	ldi	r24, 0x0F	; 15
     8de:	60 d0       	rcall	.+192    	; 0x9a0 <buttonActivated>
     8e0:	d8 2e       	mov	r13, r24
     8e2:	7c cf       	rjmp	.-264    	; 0x7dc <ManufactureTestButtonPress+0x6c>
     8e4:	81 ef       	ldi	r24, 0xF1	; 241
     8e6:	97 e2       	ldi	r25, 0x27	; 39
     8e8:	0e 94 fc 16 	call	0x2df8	; 0x2df8 <cancelTimeout>
     8ec:	40 e0       	ldi	r20, 0x00	; 0
     8ee:	60 e0       	ldi	r22, 0x00	; 0
     8f0:	80 e0       	ldi	r24, 0x00	; 0
     8f2:	0e 94 bc 15 	call	0x2b78	; 0x2b78 <setLEDValue>
     8f6:	80 91 ee 27 	lds	r24, 0x27EE
     8fa:	88 1f       	adc	r24, r24
     8fc:	88 27       	eor	r24, r24
     8fe:	88 1f       	adc	r24, r24
     900:	90 91 ef 27 	lds	r25, 0x27EF
     904:	9f 73       	andi	r25, 0x3F	; 63
     906:	99 0f       	add	r25, r25
     908:	98 2b       	or	r25, r24
     90a:	81 e0       	ldi	r24, 0x01	; 1
     90c:	09 f4       	brne	.+2      	; 0x910 <ManufactureTestButtonPress+0x1a0>
     90e:	80 e0       	ldi	r24, 0x00	; 0
     910:	0e 94 13 15 	call	0x2a26	; 0x2a26 <powerOff>
     914:	5c cf       	rjmp	.-328    	; 0x7ce <ManufactureTestButtonPress+0x5e>
     916:	11 23       	and	r17, r17
     918:	09 f4       	brne	.+2      	; 0x91c <ManufactureTestButtonPress+0x1ac>
     91a:	53 cf       	rjmp	.-346    	; 0x7c2 <ManufactureTestButtonPress+0x52>
     91c:	8a ea       	ldi	r24, 0xAA	; 170
     91e:	90 eb       	ldi	r25, 0xB0	; 176
     920:	a8 e2       	ldi	r26, 0x28	; 40
     922:	b0 e0       	ldi	r27, 0x00	; 0
     924:	01 97       	sbiw	r24, 0x01	; 1
     926:	a1 09       	sbc	r26, r1
     928:	b1 09       	sbc	r27, r1
     92a:	00 97       	sbiw	r24, 0x00	; 0
     92c:	a1 05       	cpc	r26, r1
     92e:	b1 05       	cpc	r27, r1
     930:	c9 f7       	brne	.-14     	; 0x924 <ManufactureTestButtonPress+0x1b4>
     932:	61 e0       	ldi	r22, 0x01	; 1
     934:	89 e7       	ldi	r24, 0x79	; 121
     936:	90 e0       	ldi	r25, 0x00	; 0
     938:	0e 94 30 1a 	call	0x3460	; 0x3460 <ccp_write_io>
     93c:	ff cf       	rjmp	.-2      	; 0x93c <ManufactureTestButtonPress+0x1cc>
     93e:	89 2b       	or	r24, r25
     940:	09 f4       	brne	.+2      	; 0x944 <ManufactureTestButtonPress+0x1d4>
     942:	2b cf       	rjmp	.-426    	; 0x79a <ManufactureTestButtonPress+0x2a>
     944:	dd 24       	eor	r13, r13
     946:	d3 94       	inc	r13
     948:	28 cf       	rjmp	.-432    	; 0x79a <ManufactureTestButtonPress+0x2a>

0000094a <biosMain>:
     94a:	80 e0       	ldi	r24, 0x00	; 0
     94c:	0e 94 93 15 	call	0x2b26	; 0x2b26 <setupLEDs>
     950:	c3 e0       	ldi	r28, 0x03	; 3
     952:	d0 e0       	ldi	r29, 0x00	; 0
     954:	40 e0       	ldi	r20, 0x00	; 0
     956:	60 e0       	ldi	r22, 0x00	; 0
     958:	81 e0       	ldi	r24, 0x01	; 1
     95a:	0e 94 bc 15 	call	0x2b78	; 0x2b78 <setLEDValue>
     95e:	8a ea       	ldi	r24, 0xAA	; 170
     960:	96 e4       	ldi	r25, 0x46	; 70
     962:	a0 e1       	ldi	r26, 0x10	; 16
     964:	b0 e0       	ldi	r27, 0x00	; 0
     966:	01 97       	sbiw	r24, 0x01	; 1
     968:	a1 09       	sbc	r26, r1
     96a:	b1 09       	sbc	r27, r1
     96c:	00 97       	sbiw	r24, 0x00	; 0
     96e:	a1 05       	cpc	r26, r1
     970:	b1 05       	cpc	r27, r1
     972:	c9 f7       	brne	.-14     	; 0x966 <biosMain+0x1c>
     974:	40 e0       	ldi	r20, 0x00	; 0
     976:	60 e0       	ldi	r22, 0x00	; 0
     978:	80 e0       	ldi	r24, 0x00	; 0
     97a:	0e 94 bc 15 	call	0x2b78	; 0x2b78 <setLEDValue>
     97e:	8a ea       	ldi	r24, 0xAA	; 170
     980:	96 e4       	ldi	r25, 0x46	; 70
     982:	a0 e1       	ldi	r26, 0x10	; 16
     984:	b0 e0       	ldi	r27, 0x00	; 0
     986:	01 97       	sbiw	r24, 0x01	; 1
     988:	a1 09       	sbc	r26, r1
     98a:	b1 09       	sbc	r27, r1
     98c:	00 97       	sbiw	r24, 0x00	; 0
     98e:	a1 05       	cpc	r26, r1
     990:	b1 05       	cpc	r27, r1
     992:	c9 f7       	brne	.-14     	; 0x986 <biosMain+0x3c>
     994:	21 97       	sbiw	r28, 0x01	; 1
     996:	20 97       	sbiw	r28, 0x00	; 0
     998:	e9 f6       	brne	.-70     	; 0x954 <biosMain+0xa>
     99a:	0e 94 f7 24 	call	0x49ee	; 0x49ee <turnBTOn>
     99e:	e8 de       	rcall	.-560    	; 0x770 <ManufactureTestButtonPress>

000009a0 <buttonActivated>:
     9a0:	94 e0       	ldi	r25, 0x04	; 4
     9a2:	89 9f       	mul	r24, r25
     9a4:	f0 01       	movw	r30, r0
     9a6:	11 24       	eor	r1, r1
     9a8:	e0 50       	subi	r30, 0x00	; 0
     9aa:	f0 4e       	sbci	r31, 0xE0	; 224
     9ac:	80 81       	ld	r24, Z
     9ae:	a8 2f       	mov	r26, r24
     9b0:	a6 95       	lsr	r26
     9b2:	a6 95       	lsr	r26
     9b4:	a6 95       	lsr	r26
     9b6:	90 e2       	ldi	r25, 0x20	; 32
     9b8:	a9 9f       	mul	r26, r25
     9ba:	d0 01       	movw	r26, r0
     9bc:	11 24       	eor	r1, r1
     9be:	ba 5f       	subi	r27, 0xFA	; 250
     9c0:	18 96       	adiw	r26, 0x08	; 8
     9c2:	2c 91       	ld	r18, X
     9c4:	38 2f       	mov	r19, r24
     9c6:	37 70       	andi	r19, 0x07	; 7
     9c8:	81 e0       	ldi	r24, 0x01	; 1
     9ca:	90 e0       	ldi	r25, 0x00	; 0
     9cc:	03 2e       	mov	r0, r19
     9ce:	01 c0       	rjmp	.+2      	; 0x9d2 <buttonActivated+0x32>
     9d0:	88 0f       	add	r24, r24
     9d2:	0a 94       	dec	r0
     9d4:	ea f7       	brpl	.-6      	; 0x9d0 <buttonActivated+0x30>
     9d6:	28 23       	and	r18, r24
     9d8:	81 e0       	ldi	r24, 0x01	; 1
     9da:	93 81       	ldd	r25, Z+3	; 0x03
     9dc:	21 11       	cpse	r18, r1
     9de:	03 c0       	rjmp	.+6      	; 0x9e6 <buttonActivated+0x46>
     9e0:	91 11       	cpse	r25, r1
     9e2:	03 c0       	rjmp	.+6      	; 0x9ea <buttonActivated+0x4a>
     9e4:	08 95       	ret
     9e6:	91 11       	cpse	r25, r1
     9e8:	fd cf       	rjmp	.-6      	; 0x9e4 <buttonActivated+0x44>
     9ea:	80 e0       	ldi	r24, 0x00	; 0
     9ec:	08 95       	ret

000009ee <keyboardiOSInit>:
     9ee:	80 93 21 26 	sts	0x2621, r24
     9f2:	90 93 22 26 	sts	0x2622, r25
     9f6:	0c 94 63 27 	jmp	0x4ec6	; 0x4ec6 <BluetoothKeyboardMode>

000009fa <keyboardiOSButtonHandler>:
     9fa:	cf 93       	push	r28
     9fc:	e0 91 21 26 	lds	r30, 0x2621
     a00:	f0 91 22 26 	lds	r31, 0x2622
     a04:	90 e0       	ldi	r25, 0x00	; 0
     a06:	9c 01       	movw	r18, r24
     a08:	22 0f       	add	r18, r18
     a0a:	33 1f       	adc	r19, r19
     a0c:	22 0f       	add	r18, r18
     a0e:	33 1f       	adc	r19, r19
     a10:	22 0f       	add	r18, r18
     a12:	33 1f       	adc	r19, r19
     a14:	28 0f       	add	r18, r24
     a16:	39 1f       	adc	r19, r25
     a18:	e2 0f       	add	r30, r18
     a1a:	f3 1f       	adc	r31, r19
     a1c:	61 30       	cpi	r22, 0x01	; 1
     a1e:	89 f1       	breq	.+98     	; 0xa82 <keyboardiOSButtonHandler+0x88>
     a20:	c4 81       	ldd	r28, Z+4	; 0x04
     a22:	c1 11       	cpse	r28, r1
     a24:	02 c0       	rjmp	.+4      	; 0xa2a <keyboardiOSButtonHandler+0x30>
     a26:	cf 91       	pop	r28
     a28:	08 95       	ret
     a2a:	8c 2f       	mov	r24, r28
     a2c:	0e 94 40 13 	call	0x2680	; 0x2680 <sendDBGChar>
     a30:	81 ea       	ldi	r24, 0xA1	; 161
     a32:	0e 94 4a 24 	call	0x4894	; 0x4894 <sendBTChar>
     a36:	81 e0       	ldi	r24, 0x01	; 1
     a38:	0e 94 4a 24 	call	0x4894	; 0x4894 <sendBTChar>
     a3c:	80 e0       	ldi	r24, 0x00	; 0
     a3e:	0e 94 4a 24 	call	0x4894	; 0x4894 <sendBTChar>
     a42:	80 e0       	ldi	r24, 0x00	; 0
     a44:	0e 94 4a 24 	call	0x4894	; 0x4894 <sendBTChar>
     a48:	8c 2f       	mov	r24, r28
     a4a:	0e 94 4a 24 	call	0x4894	; 0x4894 <sendBTChar>
     a4e:	c5 e0       	ldi	r28, 0x05	; 5
     a50:	80 e0       	ldi	r24, 0x00	; 0
     a52:	0e 94 4a 24 	call	0x4894	; 0x4894 <sendBTChar>
     a56:	c1 50       	subi	r28, 0x01	; 1
     a58:	d9 f7       	brne	.-10     	; 0xa50 <keyboardiOSButtonHandler+0x56>
     a5a:	81 ea       	ldi	r24, 0xA1	; 161
     a5c:	0e 94 4a 24 	call	0x4894	; 0x4894 <sendBTChar>
     a60:	81 e0       	ldi	r24, 0x01	; 1
     a62:	0e 94 4a 24 	call	0x4894	; 0x4894 <sendBTChar>
     a66:	80 e0       	ldi	r24, 0x00	; 0
     a68:	0e 94 4a 24 	call	0x4894	; 0x4894 <sendBTChar>
     a6c:	80 e0       	ldi	r24, 0x00	; 0
     a6e:	0e 94 4a 24 	call	0x4894	; 0x4894 <sendBTChar>
     a72:	c6 e0       	ldi	r28, 0x06	; 6
     a74:	80 e0       	ldi	r24, 0x00	; 0
     a76:	0e 94 4a 24 	call	0x4894	; 0x4894 <sendBTChar>
     a7a:	c1 50       	subi	r28, 0x01	; 1
     a7c:	d9 f7       	brne	.-10     	; 0xa74 <keyboardiOSButtonHandler+0x7a>
     a7e:	cf 91       	pop	r28
     a80:	08 95       	ret
     a82:	c6 81       	ldd	r28, Z+6	; 0x06
     a84:	ce cf       	rjmp	.-100    	; 0xa22 <keyboardiOSButtonHandler+0x28>

00000a86 <initCB>:
     a86:	fc 01       	movw	r30, r24
     a88:	60 83       	st	Z, r22
     a8a:	71 83       	std	Z+1, r23	; 0x01
     a8c:	45 83       	std	Z+5, r20	; 0x05
     a8e:	12 82       	std	Z+2, r1	; 0x02
     a90:	14 82       	std	Z+4, r1	; 0x04
     a92:	82 81       	ldd	r24, Z+2	; 0x02
     a94:	83 83       	std	Z+3, r24	; 0x03
     a96:	08 95       	ret

00000a98 <addByteToCB>:
     a98:	fc 01       	movw	r30, r24
     a9a:	9f b7       	in	r25, 0x3f	; 63
     a9c:	f8 94       	cli
     a9e:	24 81       	ldd	r18, Z+4	; 0x04
     aa0:	85 81       	ldd	r24, Z+5	; 0x05
     aa2:	28 17       	cp	r18, r24
     aa4:	b8 f4       	brcc	.+46     	; 0xad4 <addByteToCB+0x3c>
     aa6:	a0 81       	ld	r26, Z
     aa8:	b1 81       	ldd	r27, Z+1	; 0x01
     aaa:	82 81       	ldd	r24, Z+2	; 0x02
     aac:	21 e0       	ldi	r18, 0x01	; 1
     aae:	28 0f       	add	r18, r24
     ab0:	22 83       	std	Z+2, r18	; 0x02
     ab2:	a8 0f       	add	r26, r24
     ab4:	b1 1d       	adc	r27, r1
     ab6:	6c 93       	st	X, r22
     ab8:	84 81       	ldd	r24, Z+4	; 0x04
     aba:	8f 5f       	subi	r24, 0xFF	; 255
     abc:	84 83       	std	Z+4, r24	; 0x04
     abe:	22 81       	ldd	r18, Z+2	; 0x02
     ac0:	85 81       	ldd	r24, Z+5	; 0x05
     ac2:	28 17       	cp	r18, r24
     ac4:	20 f0       	brcs	.+8      	; 0xace <addByteToCB+0x36>
     ac6:	12 82       	std	Z+2, r1	; 0x02
     ac8:	81 e0       	ldi	r24, 0x01	; 1
     aca:	9f bf       	out	0x3f, r25	; 63
     acc:	08 95       	ret
     ace:	81 e0       	ldi	r24, 0x01	; 1
     ad0:	9f bf       	out	0x3f, r25	; 63
     ad2:	08 95       	ret
     ad4:	80 e0       	ldi	r24, 0x00	; 0
     ad6:	9f bf       	out	0x3f, r25	; 63
     ad8:	08 95       	ret

00000ada <readByteFromCB>:
     ada:	fc 01       	movw	r30, r24
     adc:	9f b7       	in	r25, 0x3f	; 63
     ade:	f8 94       	cli
     ae0:	84 81       	ldd	r24, Z+4	; 0x04
     ae2:	88 23       	and	r24, r24
     ae4:	c9 f0       	breq	.+50     	; 0xb18 <readByteFromCB+0x3e>
     ae6:	a0 81       	ld	r26, Z
     ae8:	b1 81       	ldd	r27, Z+1	; 0x01
     aea:	83 81       	ldd	r24, Z+3	; 0x03
     aec:	21 e0       	ldi	r18, 0x01	; 1
     aee:	28 0f       	add	r18, r24
     af0:	23 83       	std	Z+3, r18	; 0x03
     af2:	a8 0f       	add	r26, r24
     af4:	b1 1d       	adc	r27, r1
     af6:	8c 91       	ld	r24, X
     af8:	db 01       	movw	r26, r22
     afa:	8c 93       	st	X, r24
     afc:	84 81       	ldd	r24, Z+4	; 0x04
     afe:	81 50       	subi	r24, 0x01	; 1
     b00:	84 83       	std	Z+4, r24	; 0x04
     b02:	23 81       	ldd	r18, Z+3	; 0x03
     b04:	85 81       	ldd	r24, Z+5	; 0x05
     b06:	28 17       	cp	r18, r24
     b08:	20 f0       	brcs	.+8      	; 0xb12 <readByteFromCB+0x38>
     b0a:	13 82       	std	Z+3, r1	; 0x03
     b0c:	81 e0       	ldi	r24, 0x01	; 1
     b0e:	9f bf       	out	0x3f, r25	; 63
     b10:	08 95       	ret
     b12:	81 e0       	ldi	r24, 0x01	; 1
     b14:	9f bf       	out	0x3f, r25	; 63
     b16:	08 95       	ret
     b18:	80 e0       	ldi	r24, 0x00	; 0
     b1a:	9f bf       	out	0x3f, r25	; 63
     b1c:	08 95       	ret

00000b1e <readStringFromCB>:
     b1e:	1f 93       	push	r17
     b20:	cf 93       	push	r28
     b22:	df 93       	push	r29
     b24:	fc 01       	movw	r30, r24
     b26:	1f b7       	in	r17, 0x3f	; 63
     b28:	f8 94       	cli
     b2a:	33 81       	ldd	r19, Z+3	; 0x03
     b2c:	84 81       	ldd	r24, Z+4	; 0x04
     b2e:	84 17       	cp	r24, r20
     b30:	28 f5       	brcc	.+74     	; 0xb7c <readStringFromCB+0x5e>
     b32:	d4 81       	ldd	r29, Z+4	; 0x04
     b34:	dd 23       	and	r29, r29
     b36:	09 f4       	brne	.+2      	; 0xb3a <readStringFromCB+0x1c>
     b38:	5e c0       	rjmp	.+188    	; 0xbf6 <readStringFromCB+0xd8>
     b3a:	80 81       	ld	r24, Z
     b3c:	91 81       	ldd	r25, Z+1	; 0x01
     b3e:	dc 01       	movw	r26, r24
     b40:	a3 0f       	add	r26, r19
     b42:	b1 1d       	adc	r27, r1
     b44:	2c 91       	ld	r18, X
     b46:	22 23       	and	r18, r18
     b48:	09 f4       	brne	.+2      	; 0xb4c <readStringFromCB+0x2e>
     b4a:	4f c0       	rjmp	.+158    	; 0xbea <readStringFromCB+0xcc>
     b4c:	25 81       	ldd	r18, Z+5	; 0x05
     b4e:	c0 e0       	ldi	r28, 0x00	; 0
     b50:	06 c0       	rjmp	.+12     	; 0xb5e <readStringFromCB+0x40>
     b52:	dc 01       	movw	r26, r24
     b54:	a3 0f       	add	r26, r19
     b56:	b1 1d       	adc	r27, r1
     b58:	5c 91       	ld	r21, X
     b5a:	55 23       	and	r21, r21
     b5c:	89 f0       	breq	.+34     	; 0xb80 <readStringFromCB+0x62>
     b5e:	3f 5f       	subi	r19, 0xFF	; 255
     b60:	32 17       	cp	r19, r18
     b62:	08 f0       	brcs	.+2      	; 0xb66 <readStringFromCB+0x48>
     b64:	30 e0       	ldi	r19, 0x00	; 0
     b66:	cf 5f       	subi	r28, 0xFF	; 255
     b68:	cd 13       	cpse	r28, r29
     b6a:	f3 cf       	rjmp	.-26     	; 0xb52 <readStringFromCB+0x34>
     b6c:	80 e0       	ldi	r24, 0x00	; 0
     b6e:	1f bf       	out	0x3f, r17	; 63
     b70:	81 11       	cpse	r24, r1
     b72:	12 c0       	rjmp	.+36     	; 0xb98 <readStringFromCB+0x7a>
     b74:	df 91       	pop	r29
     b76:	cf 91       	pop	r28
     b78:	1f 91       	pop	r17
     b7a:	08 95       	ret
     b7c:	d4 2f       	mov	r29, r20
     b7e:	da cf       	rjmp	.-76     	; 0xb34 <readStringFromCB+0x16>
     b80:	2c 2f       	mov	r18, r28
     b82:	30 e0       	ldi	r19, 0x00	; 0
     b84:	2f 5f       	subi	r18, 0xFF	; 255
     b86:	3f 4f       	sbci	r19, 0xFF	; 255
     b88:	50 e0       	ldi	r21, 0x00	; 0
     b8a:	81 e0       	ldi	r24, 0x01	; 1
     b8c:	24 17       	cp	r18, r20
     b8e:	35 07       	cpc	r19, r21
     b90:	6c f7       	brge	.-38     	; 0xb6c <readStringFromCB+0x4e>
     b92:	1f bf       	out	0x3f, r17	; 63
     b94:	88 23       	and	r24, r24
     b96:	71 f3       	breq	.-36     	; 0xb74 <readStringFromCB+0x56>
     b98:	51 e0       	ldi	r21, 0x01	; 1
     b9a:	5c 0f       	add	r21, r28
     b9c:	59 f3       	breq	.-42     	; 0xb74 <readStringFromCB+0x56>
     b9e:	db 01       	movw	r26, r22
     ba0:	90 e0       	ldi	r25, 0x00	; 0
     ba2:	1a c0       	rjmp	.+52     	; 0xbd8 <readStringFromCB+0xba>
     ba4:	c0 81       	ld	r28, Z
     ba6:	d1 81       	ldd	r29, Z+1	; 0x01
     ba8:	23 81       	ldd	r18, Z+3	; 0x03
     baa:	41 e0       	ldi	r20, 0x01	; 1
     bac:	42 0f       	add	r20, r18
     bae:	43 83       	std	Z+3, r20	; 0x03
     bb0:	c2 0f       	add	r28, r18
     bb2:	d1 1d       	adc	r29, r1
     bb4:	28 81       	ld	r18, Y
     bb6:	2c 93       	st	X, r18
     bb8:	24 81       	ldd	r18, Z+4	; 0x04
     bba:	21 50       	subi	r18, 0x01	; 1
     bbc:	24 83       	std	Z+4, r18	; 0x04
     bbe:	43 81       	ldd	r20, Z+3	; 0x03
     bc0:	25 81       	ldd	r18, Z+5	; 0x05
     bc2:	42 17       	cp	r20, r18
     bc4:	80 f0       	brcs	.+32     	; 0xbe6 <readStringFromCB+0xc8>
     bc6:	13 82       	std	Z+3, r1	; 0x03
     bc8:	21 e0       	ldi	r18, 0x01	; 1
     bca:	3f bf       	out	0x3f, r19	; 63
     bcc:	22 23       	and	r18, r18
     bce:	91 f2       	breq	.-92     	; 0xb74 <readStringFromCB+0x56>
     bd0:	9f 5f       	subi	r25, 0xFF	; 255
     bd2:	11 96       	adiw	r26, 0x01	; 1
     bd4:	59 17       	cp	r21, r25
     bd6:	71 f2       	breq	.-100    	; 0xb74 <readStringFromCB+0x56>
     bd8:	3f b7       	in	r19, 0x3f	; 63
     bda:	f8 94       	cli
     bdc:	24 81       	ldd	r18, Z+4	; 0x04
     bde:	21 11       	cpse	r18, r1
     be0:	e1 cf       	rjmp	.-62     	; 0xba4 <readStringFromCB+0x86>
     be2:	20 e0       	ldi	r18, 0x00	; 0
     be4:	f2 cf       	rjmp	.-28     	; 0xbca <readStringFromCB+0xac>
     be6:	21 e0       	ldi	r18, 0x01	; 1
     be8:	f0 cf       	rjmp	.-32     	; 0xbca <readStringFromCB+0xac>
     bea:	24 2f       	mov	r18, r20
     bec:	30 e0       	ldi	r19, 0x00	; 0
     bee:	81 e0       	ldi	r24, 0x01	; 1
     bf0:	22 30       	cpi	r18, 0x02	; 2
     bf2:	31 05       	cpc	r19, r1
     bf4:	0c f4       	brge	.+2      	; 0xbf8 <readStringFromCB+0xda>
     bf6:	80 e0       	ldi	r24, 0x00	; 0
     bf8:	c0 e0       	ldi	r28, 0x00	; 0
     bfa:	b9 cf       	rjmp	.-142    	; 0xb6e <readStringFromCB+0x50>

00000bfc <commAG>:
     bfc:	fc 01       	movw	r30, r24
     bfe:	80 81       	ld	r24, Z
     c00:	88 23       	and	r24, r24
     c02:	c1 f0       	breq	.+48     	; 0xc34 <commAG+0x38>
     c04:	91 81       	ldd	r25, Z+1	; 0x01
     c06:	99 23       	and	r25, r25
     c08:	a9 f0       	breq	.+42     	; 0xc34 <commAG+0x38>
     c0a:	22 81       	ldd	r18, Z+2	; 0x02
     c0c:	21 11       	cpse	r18, r1
     c0e:	12 c0       	rjmp	.+36     	; 0xc34 <commAG+0x38>
     c10:	80 62       	ori	r24, 0x20	; 32
     c12:	90 62       	ori	r25, 0x20	; 32
     c14:	81 36       	cpi	r24, 0x61	; 97
     c16:	9c f4       	brge	.+38     	; 0xc3e <commAG+0x42>
     c18:	80 53       	subi	r24, 0x30	; 48
     c1a:	82 95       	swap	r24
     c1c:	80 7f       	andi	r24, 0xF0	; 240
     c1e:	91 36       	cpi	r25, 0x61	; 97
     c20:	9c f0       	brlt	.+38     	; 0xc48 <commAG+0x4c>
     c22:	97 55       	subi	r25, 0x57	; 87
     c24:	98 0f       	add	r25, r24
     c26:	90 93 24 26 	sts	0x2624, r25
     c2a:	61 e0       	ldi	r22, 0x01	; 1
     c2c:	89 e9       	ldi	r24, 0x99	; 153
     c2e:	90 e2       	ldi	r25, 0x20	; 32
     c30:	0c 94 79 17 	jmp	0x2ef2	; 0x2ef2 <sendUSBString>
     c34:	61 e0       	ldi	r22, 0x01	; 1
     c36:	86 e9       	ldi	r24, 0x96	; 150
     c38:	90 e2       	ldi	r25, 0x20	; 32
     c3a:	0c 94 79 17 	jmp	0x2ef2	; 0x2ef2 <sendUSBString>
     c3e:	87 55       	subi	r24, 0x57	; 87
     c40:	82 95       	swap	r24
     c42:	80 7f       	andi	r24, 0xF0	; 240
     c44:	91 36       	cpi	r25, 0x61	; 97
     c46:	6c f7       	brge	.-38     	; 0xc22 <commAG+0x26>
     c48:	90 53       	subi	r25, 0x30	; 48
     c4a:	98 0f       	add	r25, r24
     c4c:	90 93 24 26 	sts	0x2624, r25
     c50:	61 e0       	ldi	r22, 0x01	; 1
     c52:	89 e9       	ldi	r24, 0x99	; 153
     c54:	90 e2       	ldi	r25, 0x20	; 32
     c56:	0c 94 79 17 	jmp	0x2ef2	; 0x2ef2 <sendUSBString>

00000c5a <commAC>:
     c5a:	fc 01       	movw	r30, r24
     c5c:	80 81       	ld	r24, Z
     c5e:	88 23       	and	r24, r24
     c60:	c1 f0       	breq	.+48     	; 0xc92 <commAC+0x38>
     c62:	91 81       	ldd	r25, Z+1	; 0x01
     c64:	99 23       	and	r25, r25
     c66:	a9 f0       	breq	.+42     	; 0xc92 <commAC+0x38>
     c68:	22 81       	ldd	r18, Z+2	; 0x02
     c6a:	21 11       	cpse	r18, r1
     c6c:	12 c0       	rjmp	.+36     	; 0xc92 <commAC+0x38>
     c6e:	80 62       	ori	r24, 0x20	; 32
     c70:	90 62       	ori	r25, 0x20	; 32
     c72:	81 36       	cpi	r24, 0x61	; 97
     c74:	9c f4       	brge	.+38     	; 0xc9c <commAC+0x42>
     c76:	80 53       	subi	r24, 0x30	; 48
     c78:	82 95       	swap	r24
     c7a:	80 7f       	andi	r24, 0xF0	; 240
     c7c:	91 36       	cpi	r25, 0x61	; 97
     c7e:	9c f0       	brlt	.+38     	; 0xca6 <commAC+0x4c>
     c80:	97 55       	subi	r25, 0x57	; 87
     c82:	98 0f       	add	r25, r24
     c84:	90 93 23 26 	sts	0x2623, r25
     c88:	61 e0       	ldi	r22, 0x01	; 1
     c8a:	89 e9       	ldi	r24, 0x99	; 153
     c8c:	90 e2       	ldi	r25, 0x20	; 32
     c8e:	0c 94 79 17 	jmp	0x2ef2	; 0x2ef2 <sendUSBString>
     c92:	61 e0       	ldi	r22, 0x01	; 1
     c94:	86 e9       	ldi	r24, 0x96	; 150
     c96:	90 e2       	ldi	r25, 0x20	; 32
     c98:	0c 94 79 17 	jmp	0x2ef2	; 0x2ef2 <sendUSBString>
     c9c:	87 55       	subi	r24, 0x57	; 87
     c9e:	82 95       	swap	r24
     ca0:	80 7f       	andi	r24, 0xF0	; 240
     ca2:	91 36       	cpi	r25, 0x61	; 97
     ca4:	6c f7       	brge	.-38     	; 0xc80 <commAC+0x26>
     ca6:	90 53       	subi	r25, 0x30	; 48
     ca8:	98 0f       	add	r25, r24
     caa:	90 93 23 26 	sts	0x2623, r25
     cae:	61 e0       	ldi	r22, 0x01	; 1
     cb0:	89 e9       	ldi	r24, 0x99	; 153
     cb2:	90 e2       	ldi	r25, 0x20	; 32
     cb4:	0c 94 79 17 	jmp	0x2ef2	; 0x2ef2 <sendUSBString>

00000cb8 <commRG>:
     cb8:	1f 93       	push	r17
     cba:	cf 93       	push	r28
     cbc:	df 93       	push	r29
     cbe:	82 ee       	ldi	r24, 0xE2	; 226
     cc0:	96 e2       	ldi	r25, 0x26	; 38
     cc2:	bd d2       	rcall	.+1402   	; 0x123e <readGlobalHeader>
     cc4:	c2 ee       	ldi	r28, 0xE2	; 226
     cc6:	d6 e2       	ldi	r29, 0x26	; 38
     cc8:	0f c0       	rjmp	.+30     	; 0xce8 <commRG+0x30>
     cca:	17 e5       	ldi	r17, 0x57	; 87
     ccc:	18 0f       	add	r17, r24
     cce:	9a 30       	cpi	r25, 0x0A	; 10
     cd0:	b4 f0       	brlt	.+44     	; 0xcfe <commRG+0x46>
     cd2:	87 e5       	ldi	r24, 0x57	; 87
     cd4:	89 0f       	add	r24, r25
     cd6:	0e 94 68 17 	call	0x2ed0	; 0x2ed0 <sendUSBChar>
     cda:	81 2f       	mov	r24, r17
     cdc:	0e 94 68 17 	call	0x2ed0	; 0x2ed0 <sendUSBChar>
     ce0:	86 e2       	ldi	r24, 0x26	; 38
     ce2:	ca 3e       	cpi	r28, 0xEA	; 234
     ce4:	d8 07       	cpc	r29, r24
     ce6:	71 f0       	breq	.+28     	; 0xd04 <commRG+0x4c>
     ce8:	99 91       	ld	r25, Y+
     cea:	89 2f       	mov	r24, r25
     cec:	8f 70       	andi	r24, 0x0F	; 15
     cee:	92 95       	swap	r25
     cf0:	9f 70       	andi	r25, 0x0F	; 15
     cf2:	8a 30       	cpi	r24, 0x0A	; 10
     cf4:	54 f7       	brge	.-44     	; 0xcca <commRG+0x12>
     cf6:	10 e3       	ldi	r17, 0x30	; 48
     cf8:	18 0f       	add	r17, r24
     cfa:	9a 30       	cpi	r25, 0x0A	; 10
     cfc:	54 f7       	brge	.-44     	; 0xcd2 <commRG+0x1a>
     cfe:	80 e3       	ldi	r24, 0x30	; 48
     d00:	89 0f       	add	r24, r25
     d02:	e9 cf       	rjmp	.-46     	; 0xcd6 <commRG+0x1e>
     d04:	80 e0       	ldi	r24, 0x00	; 0
     d06:	0e 94 68 17 	call	0x2ed0	; 0x2ed0 <sendUSBChar>
     d0a:	61 e0       	ldi	r22, 0x01	; 1
     d0c:	89 e9       	ldi	r24, 0x99	; 153
     d0e:	90 e2       	ldi	r25, 0x20	; 32
     d10:	0e 94 79 17 	call	0x2ef2	; 0x2ef2 <sendUSBString>
     d14:	10 92 24 26 	sts	0x2624, r1
     d18:	df 91       	pop	r29
     d1a:	cf 91       	pop	r28
     d1c:	1f 91       	pop	r17
     d1e:	08 95       	ret

00000d20 <commWG>:
     d20:	cf 93       	push	r28
     d22:	df 93       	push	r29
     d24:	fc 01       	movw	r30, r24
     d26:	01 90       	ld	r0, Z+
     d28:	00 20       	and	r0, r0
     d2a:	e9 f7       	brne	.-6      	; 0xd26 <commWG+0x6>
     d2c:	31 97       	sbiw	r30, 0x01	; 1
     d2e:	e8 1b       	sub	r30, r24
     d30:	f9 0b       	sbc	r31, r25
     d32:	4e 2f       	mov	r20, r30
     d34:	e0 fd       	sbrc	r30, 0
     d36:	35 c0       	rjmp	.+106    	; 0xda2 <commWG+0x82>
     d38:	ee 23       	and	r30, r30
     d3a:	d1 f1       	breq	.+116    	; 0xdb0 <commWG+0x90>
     d3c:	e0 91 24 26 	lds	r30, 0x2624
     d40:	e8 30       	cpi	r30, 0x08	; 8
     d42:	78 f5       	brcc	.+94     	; 0xda2 <commWG+0x82>
     d44:	dc 01       	movw	r26, r24
     d46:	11 96       	adiw	r26, 0x01	; 1
     d48:	20 e0       	ldi	r18, 0x00	; 0
     d4a:	0f c0       	rjmp	.+30     	; 0xd6a <commWG+0x4a>
     d4c:	97 55       	subi	r25, 0x57	; 87
     d4e:	92 95       	swap	r25
     d50:	90 7f       	andi	r25, 0xF0	; 240
     d52:	81 36       	cpi	r24, 0x61	; 97
     d54:	e4 f0       	brlt	.+56     	; 0xd8e <commWG+0x6e>
     d56:	87 55       	subi	r24, 0x57	; 87
     d58:	89 0f       	add	r24, r25
     d5a:	80 83       	st	Z, r24
     d5c:	2e 5f       	subi	r18, 0xFE	; 254
     d5e:	24 17       	cp	r18, r20
     d60:	e0 f4       	brcc	.+56     	; 0xd9a <commWG+0x7a>
     d62:	12 96       	adiw	r26, 0x02	; 2
     d64:	38 30       	cpi	r19, 0x08	; 8
     d66:	c9 f0       	breq	.+50     	; 0xd9a <commWG+0x7a>
     d68:	e3 2f       	mov	r30, r19
     d6a:	31 e0       	ldi	r19, 0x01	; 1
     d6c:	3e 0f       	add	r19, r30
     d6e:	f0 e0       	ldi	r31, 0x00	; 0
     d70:	ee 51       	subi	r30, 0x1E	; 30
     d72:	f9 4d       	sbci	r31, 0xD9	; 217
     d74:	ed 01       	movw	r28, r26
     d76:	21 97       	sbiw	r28, 0x01	; 1
     d78:	98 81       	ld	r25, Y
     d7a:	90 62       	ori	r25, 0x20	; 32
     d7c:	8c 91       	ld	r24, X
     d7e:	80 62       	ori	r24, 0x20	; 32
     d80:	91 36       	cpi	r25, 0x61	; 97
     d82:	24 f7       	brge	.-56     	; 0xd4c <commWG+0x2c>
     d84:	90 53       	subi	r25, 0x30	; 48
     d86:	92 95       	swap	r25
     d88:	90 7f       	andi	r25, 0xF0	; 240
     d8a:	81 36       	cpi	r24, 0x61	; 97
     d8c:	24 f7       	brge	.-56     	; 0xd56 <commWG+0x36>
     d8e:	80 53       	subi	r24, 0x30	; 48
     d90:	89 0f       	add	r24, r25
     d92:	80 83       	st	Z, r24
     d94:	2e 5f       	subi	r18, 0xFE	; 254
     d96:	24 17       	cp	r18, r20
     d98:	20 f3       	brcs	.-56     	; 0xd62 <commWG+0x42>
     d9a:	30 93 24 26 	sts	0x2624, r19
     d9e:	42 17       	cp	r20, r18
     da0:	39 f0       	breq	.+14     	; 0xdb0 <commWG+0x90>
     da2:	61 e0       	ldi	r22, 0x01	; 1
     da4:	86 e9       	ldi	r24, 0x96	; 150
     da6:	90 e2       	ldi	r25, 0x20	; 32
     da8:	df 91       	pop	r29
     daa:	cf 91       	pop	r28
     dac:	0c 94 79 17 	jmp	0x2ef2	; 0x2ef2 <sendUSBString>
     db0:	61 e0       	ldi	r22, 0x01	; 1
     db2:	89 e9       	ldi	r24, 0x99	; 153
     db4:	90 e2       	ldi	r25, 0x20	; 32
     db6:	df 91       	pop	r29
     db8:	cf 91       	pop	r28
     dba:	0c 94 79 17 	jmp	0x2ef2	; 0x2ef2 <sendUSBString>

00000dbe <commWC>:
     dbe:	fc 01       	movw	r30, r24
     dc0:	01 90       	ld	r0, Z+
     dc2:	00 20       	and	r0, r0
     dc4:	e9 f7       	brne	.-6      	; 0xdc0 <commWC+0x2>
     dc6:	31 97       	sbiw	r30, 0x01	; 1
     dc8:	e8 1b       	sub	r30, r24
     dca:	f9 0b       	sbc	r31, r25
     dcc:	6e 2f       	mov	r22, r30
     dce:	e0 fd       	sbrc	r30, 0
     dd0:	34 c0       	rjmp	.+104    	; 0xe3a <commWC+0x7c>
     dd2:	ee 23       	and	r30, r30
     dd4:	b9 f1       	breq	.+110    	; 0xe44 <commWC+0x86>
     dd6:	e0 91 23 26 	lds	r30, 0x2623
     dda:	ed 3b       	cpi	r30, 0xBD	; 189
     ddc:	70 f5       	brcc	.+92     	; 0xe3a <commWC+0x7c>
     dde:	40 e0       	ldi	r20, 0x00	; 0
     de0:	0e c0       	rjmp	.+28     	; 0xdfe <commWC+0x40>
     de2:	37 55       	subi	r19, 0x57	; 87
     de4:	32 95       	swap	r19
     de6:	30 7f       	andi	r19, 0xF0	; 240
     de8:	21 36       	cpi	r18, 0x61	; 97
     dea:	ec f0       	brlt	.+58     	; 0xe26 <commWC+0x68>
     dec:	27 55       	subi	r18, 0x57	; 87
     dee:	23 0f       	add	r18, r19
     df0:	20 83       	st	Z, r18
     df2:	4e 5f       	subi	r20, 0xFE	; 254
     df4:	46 17       	cp	r20, r22
     df6:	e8 f4       	brcc	.+58     	; 0xe32 <commWC+0x74>
     df8:	5d 3b       	cpi	r21, 0xBD	; 189
     dfa:	d9 f0       	breq	.+54     	; 0xe32 <commWC+0x74>
     dfc:	e5 2f       	mov	r30, r21
     dfe:	51 e0       	ldi	r21, 0x01	; 1
     e00:	5e 0f       	add	r21, r30
     e02:	f0 e0       	ldi	r31, 0x00	; 0
     e04:	eb 5d       	subi	r30, 0xDB	; 219
     e06:	f9 4d       	sbci	r31, 0xD9	; 217
     e08:	dc 01       	movw	r26, r24
     e0a:	a4 0f       	add	r26, r20
     e0c:	b1 1d       	adc	r27, r1
     e0e:	3c 91       	ld	r19, X
     e10:	30 62       	ori	r19, 0x20	; 32
     e12:	11 96       	adiw	r26, 0x01	; 1
     e14:	2c 91       	ld	r18, X
     e16:	20 62       	ori	r18, 0x20	; 32
     e18:	31 36       	cpi	r19, 0x61	; 97
     e1a:	1c f7       	brge	.-58     	; 0xde2 <commWC+0x24>
     e1c:	30 53       	subi	r19, 0x30	; 48
     e1e:	32 95       	swap	r19
     e20:	30 7f       	andi	r19, 0xF0	; 240
     e22:	21 36       	cpi	r18, 0x61	; 97
     e24:	1c f7       	brge	.-58     	; 0xdec <commWC+0x2e>
     e26:	20 53       	subi	r18, 0x30	; 48
     e28:	23 0f       	add	r18, r19
     e2a:	20 83       	st	Z, r18
     e2c:	4e 5f       	subi	r20, 0xFE	; 254
     e2e:	46 17       	cp	r20, r22
     e30:	18 f3       	brcs	.-58     	; 0xdf8 <commWC+0x3a>
     e32:	50 93 23 26 	sts	0x2623, r21
     e36:	64 17       	cp	r22, r20
     e38:	29 f0       	breq	.+10     	; 0xe44 <commWC+0x86>
     e3a:	61 e0       	ldi	r22, 0x01	; 1
     e3c:	86 e9       	ldi	r24, 0x96	; 150
     e3e:	90 e2       	ldi	r25, 0x20	; 32
     e40:	0c 94 79 17 	jmp	0x2ef2	; 0x2ef2 <sendUSBString>
     e44:	61 e0       	ldi	r22, 0x01	; 1
     e46:	89 e9       	ldi	r24, 0x99	; 153
     e48:	90 e2       	ldi	r25, 0x20	; 32
     e4a:	0c 94 79 17 	jmp	0x2ef2	; 0x2ef2 <sendUSBString>

00000e4e <commSG>:
     e4e:	82 ee       	ldi	r24, 0xE2	; 226
     e50:	96 e2       	ldi	r25, 0x26	; 38
     e52:	fc d1       	rcall	.+1016   	; 0x124c <writeGlobalHeader>
     e54:	61 e0       	ldi	r22, 0x01	; 1
     e56:	89 e9       	ldi	r24, 0x99	; 153
     e58:	90 e2       	ldi	r25, 0x20	; 32
     e5a:	0e 94 79 17 	call	0x2ef2	; 0x2ef2 <sendUSBString>
     e5e:	10 92 24 26 	sts	0x2624, r1
     e62:	08 95       	ret

00000e64 <commSC>:
     e64:	fc 01       	movw	r30, r24
     e66:	90 81       	ld	r25, Z
     e68:	99 23       	and	r25, r25
     e6a:	e1 f0       	breq	.+56     	; 0xea4 <commSC+0x40>
     e6c:	81 81       	ldd	r24, Z+1	; 0x01
     e6e:	88 23       	and	r24, r24
     e70:	c9 f0       	breq	.+50     	; 0xea4 <commSC+0x40>
     e72:	22 81       	ldd	r18, Z+2	; 0x02
     e74:	21 11       	cpse	r18, r1
     e76:	16 c0       	rjmp	.+44     	; 0xea4 <commSC+0x40>
     e78:	90 62       	ori	r25, 0x20	; 32
     e7a:	80 62       	ori	r24, 0x20	; 32
     e7c:	91 36       	cpi	r25, 0x61	; 97
     e7e:	bc f4       	brge	.+46     	; 0xeae <commSC+0x4a>
     e80:	90 53       	subi	r25, 0x30	; 48
     e82:	92 95       	swap	r25
     e84:	90 7f       	andi	r25, 0xF0	; 240
     e86:	81 36       	cpi	r24, 0x61	; 97
     e88:	bc f0       	brlt	.+46     	; 0xeb8 <commSC+0x54>
     e8a:	87 55       	subi	r24, 0x57	; 87
     e8c:	89 0f       	add	r24, r25
     e8e:	65 e2       	ldi	r22, 0x25	; 37
     e90:	76 e2       	ldi	r23, 0x26	; 38
     e92:	ec d1       	rcall	.+984    	; 0x126c <writeControllerConfig>
     e94:	61 e0       	ldi	r22, 0x01	; 1
     e96:	89 e9       	ldi	r24, 0x99	; 153
     e98:	90 e2       	ldi	r25, 0x20	; 32
     e9a:	0e 94 79 17 	call	0x2ef2	; 0x2ef2 <sendUSBString>
     e9e:	10 92 23 26 	sts	0x2623, r1
     ea2:	08 95       	ret
     ea4:	61 e0       	ldi	r22, 0x01	; 1
     ea6:	86 e9       	ldi	r24, 0x96	; 150
     ea8:	90 e2       	ldi	r25, 0x20	; 32
     eaa:	0c 94 79 17 	jmp	0x2ef2	; 0x2ef2 <sendUSBString>
     eae:	97 55       	subi	r25, 0x57	; 87
     eb0:	92 95       	swap	r25
     eb2:	90 7f       	andi	r25, 0xF0	; 240
     eb4:	81 36       	cpi	r24, 0x61	; 97
     eb6:	4c f7       	brge	.-46     	; 0xe8a <commSC+0x26>
     eb8:	80 53       	subi	r24, 0x30	; 48
     eba:	89 0f       	add	r24, r25
     ebc:	e8 cf       	rjmp	.-48     	; 0xe8e <commSC+0x2a>

00000ebe <commRS>:
     ebe:	61 e0       	ldi	r22, 0x01	; 1
     ec0:	89 e9       	ldi	r24, 0x99	; 153
     ec2:	90 e2       	ldi	r25, 0x20	; 32
     ec4:	0e 94 79 17 	call	0x2ef2	; 0x2ef2 <sendUSBString>
     ec8:	80 e0       	ldi	r24, 0x00	; 0
     eca:	90 e0       	ldi	r25, 0x00	; 0
     ecc:	01 96       	adiw	r24, 0x01	; 1
     ece:	85 35       	cpi	r24, 0x55	; 85
     ed0:	20 ed       	ldi	r18, 0xD0	; 208
     ed2:	92 07       	cpc	r25, r18
     ed4:	d9 f7       	brne	.-10     	; 0xecc <commRS+0xe>
     ed6:	61 e0       	ldi	r22, 0x01	; 1
     ed8:	89 e7       	ldi	r24, 0x79	; 121
     eda:	90 e0       	ldi	r25, 0x00	; 0
     edc:	0e 94 30 1a 	call	0x3460	; 0x3460 <ccp_write_io>
     ee0:	ff cf       	rjmp	.-2      	; 0xee0 <commRS+0x22>

00000ee2 <commBL>:
     ee2:	61 e0       	ldi	r22, 0x01	; 1
     ee4:	89 e9       	ldi	r24, 0x99	; 153
     ee6:	90 e2       	ldi	r25, 0x20	; 32
     ee8:	0e 94 79 17 	call	0x2ef2	; 0x2ef2 <sendUSBString>
     eec:	80 e0       	ldi	r24, 0x00	; 0
     eee:	90 e0       	ldi	r25, 0x00	; 0
     ef0:	01 96       	adiw	r24, 0x01	; 1
     ef2:	85 35       	cpi	r24, 0x55	; 85
     ef4:	20 ed       	ldi	r18, 0xD0	; 208
     ef6:	92 07       	cpc	r25, r18
     ef8:	d9 f7       	brne	.-10     	; 0xef0 <commBL+0xe>
     efa:	0c 94 9b 13 	jmp	0x2736	; 0x2736 <SimpleJoystickAdj+0x52>

00000efe <commBU>:
     efe:	81 e0       	ldi	r24, 0x01	; 1
     f00:	80 93 a5 06 	sts	0x06A5, r24
     f04:	80 e0       	ldi	r24, 0x00	; 0
     f06:	90 e0       	ldi	r25, 0x00	; 0
     f08:	01 96       	adiw	r24, 0x01	; 1
     f0a:	85 3d       	cpi	r24, 0xD5	; 213
     f0c:	24 e1       	ldi	r18, 0x14	; 20
     f0e:	92 07       	cpc	r25, r18
     f10:	d9 f7       	brne	.-10     	; 0xf08 <commBU+0xa>
     f12:	81 e0       	ldi	r24, 0x01	; 1
     f14:	80 93 a6 06 	sts	0x06A6, r24
     f18:	80 e0       	ldi	r24, 0x00	; 0
     f1a:	90 e0       	ldi	r25, 0x00	; 0
     f1c:	01 96       	adiw	r24, 0x01	; 1
     f1e:	85 3d       	cpi	r24, 0xD5	; 213
     f20:	24 e1       	ldi	r18, 0x14	; 20
     f22:	92 07       	cpc	r25, r18
     f24:	d9 f7       	brne	.-10     	; 0xf1c <commBU+0x1e>
     f26:	81 e0       	ldi	r24, 0x01	; 1
     f28:	80 93 a5 06 	sts	0x06A5, r24
     f2c:	80 e0       	ldi	r24, 0x00	; 0
     f2e:	90 e0       	ldi	r25, 0x00	; 0
     f30:	01 96       	adiw	r24, 0x01	; 1
     f32:	85 3d       	cpi	r24, 0xD5	; 213
     f34:	24 e1       	ldi	r18, 0x14	; 20
     f36:	92 07       	cpc	r25, r18
     f38:	d9 f7       	brne	.-10     	; 0xf30 <commBU+0x32>
     f3a:	81 e0       	ldi	r24, 0x01	; 1
     f3c:	80 93 a6 06 	sts	0x06A6, r24
     f40:	80 e0       	ldi	r24, 0x00	; 0
     f42:	90 e0       	ldi	r25, 0x00	; 0
     f44:	01 96       	adiw	r24, 0x01	; 1
     f46:	85 3d       	cpi	r24, 0xD5	; 213
     f48:	24 e1       	ldi	r18, 0x14	; 20
     f4a:	92 07       	cpc	r25, r18
     f4c:	d9 f7       	brne	.-10     	; 0xf44 <commBU+0x46>
     f4e:	81 e0       	ldi	r24, 0x01	; 1
     f50:	80 93 a5 06 	sts	0x06A5, r24
     f54:	80 e0       	ldi	r24, 0x00	; 0
     f56:	90 e0       	ldi	r25, 0x00	; 0
     f58:	01 96       	adiw	r24, 0x01	; 1
     f5a:	85 3d       	cpi	r24, 0xD5	; 213
     f5c:	24 e1       	ldi	r18, 0x14	; 20
     f5e:	92 07       	cpc	r25, r18
     f60:	d9 f7       	brne	.-10     	; 0xf58 <commBU+0x5a>
     f62:	8c e9       	ldi	r24, 0x9C	; 156
     f64:	90 e2       	ldi	r25, 0x20	; 32
     f66:	0c 94 69 24 	jmp	0x48d2	; 0x48d2 <sendBTCmd>

00000f6a <commRC>:
     f6a:	1f 93       	push	r17
     f6c:	cf 93       	push	r28
     f6e:	df 93       	push	r29
     f70:	fc 01       	movw	r30, r24
     f72:	80 81       	ld	r24, Z
     f74:	88 23       	and	r24, r24
     f76:	b1 f1       	breq	.+108    	; 0xfe4 <commRC+0x7a>
     f78:	91 81       	ldd	r25, Z+1	; 0x01
     f7a:	99 23       	and	r25, r25
     f7c:	99 f1       	breq	.+102    	; 0xfe4 <commRC+0x7a>
     f7e:	22 81       	ldd	r18, Z+2	; 0x02
     f80:	21 11       	cpse	r18, r1
     f82:	30 c0       	rjmp	.+96     	; 0xfe4 <commRC+0x7a>
     f84:	80 62       	ori	r24, 0x20	; 32
     f86:	90 62       	ori	r25, 0x20	; 32
     f88:	81 36       	cpi	r24, 0x61	; 97
     f8a:	a4 f5       	brge	.+104    	; 0xff4 <commRC+0x8a>
     f8c:	80 53       	subi	r24, 0x30	; 48
     f8e:	28 2f       	mov	r18, r24
     f90:	22 95       	swap	r18
     f92:	20 7f       	andi	r18, 0xF0	; 240
     f94:	91 36       	cpi	r25, 0x61	; 97
     f96:	a4 f1       	brlt	.+104    	; 0x1000 <commRC+0x96>
     f98:	89 ea       	ldi	r24, 0xA9	; 169
     f9a:	89 0f       	add	r24, r25
     f9c:	82 0f       	add	r24, r18
     f9e:	65 e2       	ldi	r22, 0x25	; 37
     fa0:	76 e2       	ldi	r23, 0x26	; 38
     fa2:	5b d1       	rcall	.+694    	; 0x125a <readControllerConfig>
     fa4:	c5 e2       	ldi	r28, 0x25	; 37
     fa6:	d6 e2       	ldi	r29, 0x26	; 38
     fa8:	0f c0       	rjmp	.+30     	; 0xfc8 <commRC+0x5e>
     faa:	17 e5       	ldi	r17, 0x57	; 87
     fac:	18 0f       	add	r17, r24
     fae:	9a 30       	cpi	r25, 0x0A	; 10
     fb0:	b4 f0       	brlt	.+44     	; 0xfde <commRC+0x74>
     fb2:	87 e5       	ldi	r24, 0x57	; 87
     fb4:	89 0f       	add	r24, r25
     fb6:	0e 94 68 17 	call	0x2ed0	; 0x2ed0 <sendUSBChar>
     fba:	81 2f       	mov	r24, r17
     fbc:	0e 94 68 17 	call	0x2ed0	; 0x2ed0 <sendUSBChar>
     fc0:	86 e2       	ldi	r24, 0x26	; 38
     fc2:	c2 3e       	cpi	r28, 0xE2	; 226
     fc4:	d8 07       	cpc	r29, r24
     fc6:	01 f1       	breq	.+64     	; 0x1008 <commRC+0x9e>
     fc8:	99 91       	ld	r25, Y+
     fca:	89 2f       	mov	r24, r25
     fcc:	8f 70       	andi	r24, 0x0F	; 15
     fce:	92 95       	swap	r25
     fd0:	9f 70       	andi	r25, 0x0F	; 15
     fd2:	8a 30       	cpi	r24, 0x0A	; 10
     fd4:	54 f7       	brge	.-44     	; 0xfaa <commRC+0x40>
     fd6:	10 e3       	ldi	r17, 0x30	; 48
     fd8:	18 0f       	add	r17, r24
     fda:	9a 30       	cpi	r25, 0x0A	; 10
     fdc:	54 f7       	brge	.-44     	; 0xfb2 <commRC+0x48>
     fde:	80 e3       	ldi	r24, 0x30	; 48
     fe0:	89 0f       	add	r24, r25
     fe2:	e9 cf       	rjmp	.-46     	; 0xfb6 <commRC+0x4c>
     fe4:	61 e0       	ldi	r22, 0x01	; 1
     fe6:	86 e9       	ldi	r24, 0x96	; 150
     fe8:	90 e2       	ldi	r25, 0x20	; 32
     fea:	df 91       	pop	r29
     fec:	cf 91       	pop	r28
     fee:	1f 91       	pop	r17
     ff0:	0c 94 79 17 	jmp	0x2ef2	; 0x2ef2 <sendUSBString>
     ff4:	87 55       	subi	r24, 0x57	; 87
     ff6:	28 2f       	mov	r18, r24
     ff8:	22 95       	swap	r18
     ffa:	20 7f       	andi	r18, 0xF0	; 240
     ffc:	91 36       	cpi	r25, 0x61	; 97
     ffe:	64 f6       	brge	.-104    	; 0xf98 <commRC+0x2e>
    1000:	80 ed       	ldi	r24, 0xD0	; 208
    1002:	89 0f       	add	r24, r25
    1004:	82 0f       	add	r24, r18
    1006:	cb cf       	rjmp	.-106    	; 0xf9e <commRC+0x34>
    1008:	80 e0       	ldi	r24, 0x00	; 0
    100a:	0e 94 68 17 	call	0x2ed0	; 0x2ed0 <sendUSBChar>
    100e:	61 e0       	ldi	r22, 0x01	; 1
    1010:	89 e9       	ldi	r24, 0x99	; 153
    1012:	90 e2       	ldi	r25, 0x20	; 32
    1014:	0e 94 79 17 	call	0x2ef2	; 0x2ef2 <sendUSBString>
    1018:	10 92 23 26 	sts	0x2623, r1
    101c:	df 91       	pop	r29
    101e:	cf 91       	pop	r28
    1020:	1f 91       	pop	r17
    1022:	08 95       	ret

00001024 <processComm>:
    1024:	ef 92       	push	r14
    1026:	ff 92       	push	r15
    1028:	0f 93       	push	r16
    102a:	1f 93       	push	r17
    102c:	cf 93       	push	r28
    102e:	df 93       	push	r29
    1030:	cd b7       	in	r28, 0x3d	; 61
    1032:	de b7       	in	r29, 0x3e	; 62
    1034:	c3 54       	subi	r28, 0x43	; 67
    1036:	d1 09       	sbc	r29, r1
    1038:	cd bf       	out	0x3d, r28	; 61
    103a:	de bf       	out	0x3e, r29	; 62
    103c:	60 e4       	ldi	r22, 0x40	; 64
    103e:	ce 01       	movw	r24, r28
    1040:	01 96       	adiw	r24, 0x01	; 1
    1042:	0e 94 e4 17 	call	0x2fc8	; 0x2fc8 <recvUSBString>
    1046:	81 11       	cpse	r24, r1
    1048:	0b c0       	rjmp	.+22     	; 0x1060 <processComm+0x3c>
    104a:	cd 5b       	subi	r28, 0xBD	; 189
    104c:	df 4f       	sbci	r29, 0xFF	; 255
    104e:	cd bf       	out	0x3d, r28	; 61
    1050:	de bf       	out	0x3e, r29	; 62
    1052:	df 91       	pop	r29
    1054:	cf 91       	pop	r28
    1056:	1f 91       	pop	r17
    1058:	0f 91       	pop	r16
    105a:	ff 90       	pop	r15
    105c:	ef 90       	pop	r14
    105e:	08 95       	ret
    1060:	89 81       	ldd	r24, Y+1	; 0x01
    1062:	22 96       	adiw	r28, 0x02	; 2
    1064:	8f af       	std	Y+63, r24	; 0x3f
    1066:	22 97       	sbiw	r28, 0x02	; 2
    1068:	9a 81       	ldd	r25, Y+2	; 0x02
    106a:	23 96       	adiw	r28, 0x03	; 3
    106c:	9f af       	std	Y+63, r25	; 0x3f
    106e:	23 97       	sbiw	r28, 0x03	; 3
    1070:	24 96       	adiw	r28, 0x04	; 4
    1072:	1f ae       	std	Y+63, r1	; 0x3f
    1074:	24 97       	sbiw	r28, 0x04	; 4
    1076:	99 27       	eor	r25, r25
    1078:	87 fd       	sbrc	r24, 7
    107a:	90 95       	com	r25
    107c:	8d 53       	subi	r24, 0x3D	; 61
    107e:	9f 4d       	sbci	r25, 0xDF	; 223
    1080:	0e 94 57 13 	call	0x26ae	; 0x26ae <sendDBGLine>
    1084:	be 01       	movw	r22, r28
    1086:	6f 5b       	subi	r22, 0xBF	; 191
    1088:	7f 4f       	sbci	r23, 0xFF	; 255
    108a:	85 ea       	ldi	r24, 0xA5	; 165
    108c:	90 e2       	ldi	r25, 0x20	; 32
    108e:	0e 94 88 2c 	call	0x5910	; 0x5910 <strcmp>
    1092:	8c 01       	movw	r16, r24
    1094:	00 97       	sbiw	r24, 0x00	; 0
    1096:	09 f4       	brne	.+2      	; 0x109a <processComm+0x76>
    1098:	73 c0       	rjmp	.+230    	; 0x1180 <processComm+0x15c>
    109a:	be 01       	movw	r22, r28
    109c:	6f 5b       	subi	r22, 0xBF	; 191
    109e:	7f 4f       	sbci	r23, 0xFF	; 255
    10a0:	88 ea       	ldi	r24, 0xA8	; 168
    10a2:	90 e2       	ldi	r25, 0x20	; 32
    10a4:	0e 94 88 2c 	call	0x5910	; 0x5910 <strcmp>
    10a8:	89 2b       	or	r24, r25
    10aa:	09 f4       	brne	.+2      	; 0x10ae <processComm+0x8a>
    10ac:	82 c0       	rjmp	.+260    	; 0x11b2 <processComm+0x18e>
    10ae:	be 01       	movw	r22, r28
    10b0:	6f 5b       	subi	r22, 0xBF	; 191
    10b2:	7f 4f       	sbci	r23, 0xFF	; 255
    10b4:	8b ea       	ldi	r24, 0xAB	; 171
    10b6:	90 e2       	ldi	r25, 0x20	; 32
    10b8:	0e 94 88 2c 	call	0x5910	; 0x5910 <strcmp>
    10bc:	89 2b       	or	r24, r25
    10be:	09 f4       	brne	.+2      	; 0x10c2 <processComm+0x9e>
    10c0:	7f c0       	rjmp	.+254    	; 0x11c0 <processComm+0x19c>
    10c2:	be 01       	movw	r22, r28
    10c4:	6f 5b       	subi	r22, 0xBF	; 191
    10c6:	7f 4f       	sbci	r23, 0xFF	; 255
    10c8:	8e ea       	ldi	r24, 0xAE	; 174
    10ca:	90 e2       	ldi	r25, 0x20	; 32
    10cc:	0e 94 88 2c 	call	0x5910	; 0x5910 <strcmp>
    10d0:	89 2b       	or	r24, r25
    10d2:	09 f4       	brne	.+2      	; 0x10d6 <processComm+0xb2>
    10d4:	7c c0       	rjmp	.+248    	; 0x11ce <processComm+0x1aa>
    10d6:	be 01       	movw	r22, r28
    10d8:	6f 5b       	subi	r22, 0xBF	; 191
    10da:	7f 4f       	sbci	r23, 0xFF	; 255
    10dc:	81 eb       	ldi	r24, 0xB1	; 177
    10de:	90 e2       	ldi	r25, 0x20	; 32
    10e0:	0e 94 88 2c 	call	0x5910	; 0x5910 <strcmp>
    10e4:	89 2b       	or	r24, r25
    10e6:	09 f4       	brne	.+2      	; 0x10ea <processComm+0xc6>
    10e8:	79 c0       	rjmp	.+242    	; 0x11dc <processComm+0x1b8>
    10ea:	be 01       	movw	r22, r28
    10ec:	6f 5b       	subi	r22, 0xBF	; 191
    10ee:	7f 4f       	sbci	r23, 0xFF	; 255
    10f0:	84 eb       	ldi	r24, 0xB4	; 180
    10f2:	90 e2       	ldi	r25, 0x20	; 32
    10f4:	0e 94 88 2c 	call	0x5910	; 0x5910 <strcmp>
    10f8:	89 2b       	or	r24, r25
    10fa:	09 f4       	brne	.+2      	; 0x10fe <processComm+0xda>
    10fc:	76 c0       	rjmp	.+236    	; 0x11ea <processComm+0x1c6>
    10fe:	be 01       	movw	r22, r28
    1100:	6f 5b       	subi	r22, 0xBF	; 191
    1102:	7f 4f       	sbci	r23, 0xFF	; 255
    1104:	87 eb       	ldi	r24, 0xB7	; 183
    1106:	90 e2       	ldi	r25, 0x20	; 32
    1108:	0e 94 88 2c 	call	0x5910	; 0x5910 <strcmp>
    110c:	89 2b       	or	r24, r25
    110e:	09 f4       	brne	.+2      	; 0x1112 <processComm+0xee>
    1110:	73 c0       	rjmp	.+230    	; 0x11f8 <processComm+0x1d4>
    1112:	be 01       	movw	r22, r28
    1114:	6f 5b       	subi	r22, 0xBF	; 191
    1116:	7f 4f       	sbci	r23, 0xFF	; 255
    1118:	8a eb       	ldi	r24, 0xBA	; 186
    111a:	90 e2       	ldi	r25, 0x20	; 32
    111c:	0e 94 88 2c 	call	0x5910	; 0x5910 <strcmp>
    1120:	89 2b       	or	r24, r25
    1122:	09 f4       	brne	.+2      	; 0x1126 <processComm+0x102>
    1124:	70 c0       	rjmp	.+224    	; 0x1206 <processComm+0x1e2>
    1126:	be 01       	movw	r22, r28
    1128:	6f 5b       	subi	r22, 0xBF	; 191
    112a:	7f 4f       	sbci	r23, 0xFF	; 255
    112c:	8d eb       	ldi	r24, 0xBD	; 189
    112e:	90 e2       	ldi	r25, 0x20	; 32
    1130:	0e 94 88 2c 	call	0x5910	; 0x5910 <strcmp>
    1134:	89 2b       	or	r24, r25
    1136:	09 f4       	brne	.+2      	; 0x113a <processComm+0x116>
    1138:	6d c0       	rjmp	.+218    	; 0x1214 <processComm+0x1f0>
    113a:	be 01       	movw	r22, r28
    113c:	6f 5b       	subi	r22, 0xBF	; 191
    113e:	7f 4f       	sbci	r23, 0xFF	; 255
    1140:	80 ec       	ldi	r24, 0xC0	; 192
    1142:	90 e2       	ldi	r25, 0x20	; 32
    1144:	0e 94 88 2c 	call	0x5910	; 0x5910 <strcmp>
    1148:	89 2b       	or	r24, r25
    114a:	09 f4       	brne	.+2      	; 0x114e <processComm+0x12a>
    114c:	6a c0       	rjmp	.+212    	; 0x1222 <processComm+0x1fe>
    114e:	be 01       	movw	r22, r28
    1150:	6f 5b       	subi	r22, 0xBF	; 191
    1152:	7f 4f       	sbci	r23, 0xFF	; 255
    1154:	82 ea       	ldi	r24, 0xA2	; 162
    1156:	90 e2       	ldi	r25, 0x20	; 32
    1158:	0e 94 88 2c 	call	0x5910	; 0x5910 <strcmp>
    115c:	89 2b       	or	r24, r25
    115e:	09 f4       	brne	.+2      	; 0x1162 <processComm+0x13e>
    1160:	67 c0       	rjmp	.+206    	; 0x1230 <processComm+0x20c>
    1162:	8a ed       	ldi	r24, 0xDA	; 218
    1164:	90 e2       	ldi	r25, 0x20	; 32
    1166:	0e 94 45 13 	call	0x268a	; 0x268a <sendDBGString>
    116a:	ce 01       	movw	r24, r28
    116c:	8f 5b       	subi	r24, 0xBF	; 191
    116e:	9f 4f       	sbci	r25, 0xFF	; 255
    1170:	0e 94 57 13 	call	0x26ae	; 0x26ae <sendDBGLine>
    1174:	61 e0       	ldi	r22, 0x01	; 1
    1176:	86 e9       	ldi	r24, 0x96	; 150
    1178:	90 e2       	ldi	r25, 0x20	; 32
    117a:	0e 94 79 17 	call	0x2ef2	; 0x2ef2 <sendUSBString>
    117e:	65 cf       	rjmp	.-310    	; 0x104a <processComm+0x26>
    1180:	a5 ea       	ldi	r26, 0xA5	; 165
    1182:	ea 2e       	mov	r14, r26
    1184:	a0 e2       	ldi	r26, 0x20	; 32
    1186:	fa 2e       	mov	r15, r26
    1188:	8b ec       	ldi	r24, 0xCB	; 203
    118a:	90 e2       	ldi	r25, 0x20	; 32
    118c:	0e 94 45 13 	call	0x268a	; 0x268a <sendDBGString>
    1190:	c7 01       	movw	r24, r14
    1192:	0e 94 57 13 	call	0x26ae	; 0x26ae <sendDBGLine>
    1196:	f8 01       	movw	r30, r16
    1198:	ee 0f       	add	r30, r30
    119a:	ff 1f       	adc	r31, r31
    119c:	ee 0f       	add	r30, r30
    119e:	ff 1f       	adc	r31, r31
    11a0:	e1 51       	subi	r30, 0x11	; 17
    11a2:	ff 4d       	sbci	r31, 0xDF	; 223
    11a4:	02 80       	ldd	r0, Z+2	; 0x02
    11a6:	f3 81       	ldd	r31, Z+3	; 0x03
    11a8:	e0 2d       	mov	r30, r0
    11aa:	ce 01       	movw	r24, r28
    11ac:	03 96       	adiw	r24, 0x03	; 3
    11ae:	09 95       	icall
    11b0:	4c cf       	rjmp	.-360    	; 0x104a <processComm+0x26>
    11b2:	f8 ea       	ldi	r31, 0xA8	; 168
    11b4:	ef 2e       	mov	r14, r31
    11b6:	f0 e2       	ldi	r31, 0x20	; 32
    11b8:	ff 2e       	mov	r15, r31
    11ba:	01 e0       	ldi	r16, 0x01	; 1
    11bc:	10 e0       	ldi	r17, 0x00	; 0
    11be:	e4 cf       	rjmp	.-56     	; 0x1188 <processComm+0x164>
    11c0:	eb ea       	ldi	r30, 0xAB	; 171
    11c2:	ee 2e       	mov	r14, r30
    11c4:	e0 e2       	ldi	r30, 0x20	; 32
    11c6:	fe 2e       	mov	r15, r30
    11c8:	02 e0       	ldi	r16, 0x02	; 2
    11ca:	10 e0       	ldi	r17, 0x00	; 0
    11cc:	dd cf       	rjmp	.-70     	; 0x1188 <processComm+0x164>
    11ce:	7e ea       	ldi	r23, 0xAE	; 174
    11d0:	e7 2e       	mov	r14, r23
    11d2:	70 e2       	ldi	r23, 0x20	; 32
    11d4:	f7 2e       	mov	r15, r23
    11d6:	03 e0       	ldi	r16, 0x03	; 3
    11d8:	10 e0       	ldi	r17, 0x00	; 0
    11da:	d6 cf       	rjmp	.-84     	; 0x1188 <processComm+0x164>
    11dc:	61 eb       	ldi	r22, 0xB1	; 177
    11de:	e6 2e       	mov	r14, r22
    11e0:	60 e2       	ldi	r22, 0x20	; 32
    11e2:	f6 2e       	mov	r15, r22
    11e4:	04 e0       	ldi	r16, 0x04	; 4
    11e6:	10 e0       	ldi	r17, 0x00	; 0
    11e8:	cf cf       	rjmp	.-98     	; 0x1188 <processComm+0x164>
    11ea:	54 eb       	ldi	r21, 0xB4	; 180
    11ec:	e5 2e       	mov	r14, r21
    11ee:	50 e2       	ldi	r21, 0x20	; 32
    11f0:	f5 2e       	mov	r15, r21
    11f2:	05 e0       	ldi	r16, 0x05	; 5
    11f4:	10 e0       	ldi	r17, 0x00	; 0
    11f6:	c8 cf       	rjmp	.-112    	; 0x1188 <processComm+0x164>
    11f8:	47 eb       	ldi	r20, 0xB7	; 183
    11fa:	e4 2e       	mov	r14, r20
    11fc:	40 e2       	ldi	r20, 0x20	; 32
    11fe:	f4 2e       	mov	r15, r20
    1200:	06 e0       	ldi	r16, 0x06	; 6
    1202:	10 e0       	ldi	r17, 0x00	; 0
    1204:	c1 cf       	rjmp	.-126    	; 0x1188 <processComm+0x164>
    1206:	3a eb       	ldi	r19, 0xBA	; 186
    1208:	e3 2e       	mov	r14, r19
    120a:	30 e2       	ldi	r19, 0x20	; 32
    120c:	f3 2e       	mov	r15, r19
    120e:	07 e0       	ldi	r16, 0x07	; 7
    1210:	10 e0       	ldi	r17, 0x00	; 0
    1212:	ba cf       	rjmp	.-140    	; 0x1188 <processComm+0x164>
    1214:	2d eb       	ldi	r18, 0xBD	; 189
    1216:	e2 2e       	mov	r14, r18
    1218:	20 e2       	ldi	r18, 0x20	; 32
    121a:	f2 2e       	mov	r15, r18
    121c:	08 e0       	ldi	r16, 0x08	; 8
    121e:	10 e0       	ldi	r17, 0x00	; 0
    1220:	b3 cf       	rjmp	.-154    	; 0x1188 <processComm+0x164>
    1222:	90 ec       	ldi	r25, 0xC0	; 192
    1224:	e9 2e       	mov	r14, r25
    1226:	90 e2       	ldi	r25, 0x20	; 32
    1228:	f9 2e       	mov	r15, r25
    122a:	09 e0       	ldi	r16, 0x09	; 9
    122c:	10 e0       	ldi	r17, 0x00	; 0
    122e:	ac cf       	rjmp	.-168    	; 0x1188 <processComm+0x164>
    1230:	b2 ea       	ldi	r27, 0xA2	; 162
    1232:	eb 2e       	mov	r14, r27
    1234:	b0 e2       	ldi	r27, 0x20	; 32
    1236:	fb 2e       	mov	r15, r27
    1238:	0a e0       	ldi	r16, 0x0A	; 10
    123a:	10 e0       	ldi	r17, 0x00	; 0
    123c:	a5 cf       	rjmp	.-182    	; 0x1188 <processComm+0x164>

0000123e <readGlobalHeader>:
    123e:	48 e0       	ldi	r20, 0x08	; 8
    1240:	50 e0       	ldi	r21, 0x00	; 0
    1242:	bc 01       	movw	r22, r24
    1244:	80 e0       	ldi	r24, 0x00	; 0
    1246:	90 e0       	ldi	r25, 0x00	; 0
    1248:	0c 94 36 1a 	jmp	0x346c	; 0x346c <nvm_eeprom_read_buffer>

0000124c <writeGlobalHeader>:
    124c:	48 e0       	ldi	r20, 0x08	; 8
    124e:	50 e0       	ldi	r21, 0x00	; 0
    1250:	bc 01       	movw	r22, r24
    1252:	80 e0       	ldi	r24, 0x00	; 0
    1254:	90 e0       	ldi	r25, 0x00	; 0
    1256:	0c 94 4b 1a 	jmp	0x3496	; 0x3496 <nvm_eeprom_erase_and_write_buffer>

0000125a <readControllerConfig>:
    125a:	20 ec       	ldi	r18, 0xC0	; 192
    125c:	82 9f       	mul	r24, r18
    125e:	c0 01       	movw	r24, r0
    1260:	11 24       	eor	r1, r1
    1262:	4d eb       	ldi	r20, 0xBD	; 189
    1264:	50 e0       	ldi	r21, 0x00	; 0
    1266:	80 96       	adiw	r24, 0x20	; 32
    1268:	0c 94 36 1a 	jmp	0x346c	; 0x346c <nvm_eeprom_read_buffer>

0000126c <writeControllerConfig>:
    126c:	20 ec       	ldi	r18, 0xC0	; 192
    126e:	82 9f       	mul	r24, r18
    1270:	c0 01       	movw	r24, r0
    1272:	11 24       	eor	r1, r1
    1274:	4d eb       	ldi	r20, 0xBD	; 189
    1276:	50 e0       	ldi	r21, 0x00	; 0
    1278:	80 96       	adiw	r24, 0x20	; 32
    127a:	0c 94 4b 1a 	jmp	0x3496	; 0x3496 <nvm_eeprom_erase_and_write_buffer>

0000127e <loadConfiguration>:
    127e:	cf 93       	push	r28
    1280:	c8 2f       	mov	r28, r24
    1282:	8a 30       	cpi	r24, 0x0A	; 10
    1284:	09 f4       	brne	.+2      	; 0x1288 <loadConfiguration+0xa>
    1286:	64 c0       	rjmp	.+200    	; 0x1350 <loadConfiguration+0xd2>
    1288:	48 e0       	ldi	r20, 0x08	; 8
    128a:	50 e0       	ldi	r21, 0x00	; 0
    128c:	69 ee       	ldi	r22, 0xE9	; 233
    128e:	77 e2       	ldi	r23, 0x27	; 39
    1290:	80 e0       	ldi	r24, 0x00	; 0
    1292:	90 e0       	ldi	r25, 0x00	; 0
    1294:	0e 94 36 1a 	call	0x346c	; 0x346c <nvm_eeprom_read_buffer>
    1298:	80 91 ee 27 	lds	r24, 0x27EE
    129c:	84 ff       	sbrs	r24, 4
    129e:	40 c0       	rjmp	.+128    	; 0x1320 <loadConfiguration+0xa2>
    12a0:	4d eb       	ldi	r20, 0xBD	; 189
    12a2:	50 e0       	ldi	r21, 0x00	; 0
    12a4:	67 e4       	ldi	r22, 0x47	; 71
    12a6:	71 e2       	ldi	r23, 0x21	; 33
    12a8:	80 e2       	ldi	r24, 0x20	; 32
    12aa:	90 e0       	ldi	r25, 0x00	; 0
    12ac:	0e 94 4b 1a 	call	0x3496	; 0x3496 <nvm_eeprom_erase_and_write_buffer>
    12b0:	4d eb       	ldi	r20, 0xBD	; 189
    12b2:	50 e0       	ldi	r21, 0x00	; 0
    12b4:	6c e0       	ldi	r22, 0x0C	; 12
    12b6:	72 e2       	ldi	r23, 0x22	; 34
    12b8:	80 ee       	ldi	r24, 0xE0	; 224
    12ba:	90 e0       	ldi	r25, 0x00	; 0
    12bc:	0e 94 4b 1a 	call	0x3496	; 0x3496 <nvm_eeprom_erase_and_write_buffer>
    12c0:	4d eb       	ldi	r20, 0xBD	; 189
    12c2:	50 e0       	ldi	r21, 0x00	; 0
    12c4:	66 e8       	ldi	r22, 0x86	; 134
    12c6:	73 e2       	ldi	r23, 0x23	; 35
    12c8:	80 ea       	ldi	r24, 0xA0	; 160
    12ca:	91 e0       	ldi	r25, 0x01	; 1
    12cc:	0e 94 4b 1a 	call	0x3496	; 0x3496 <nvm_eeprom_erase_and_write_buffer>
    12d0:	4d eb       	ldi	r20, 0xBD	; 189
    12d2:	50 e0       	ldi	r21, 0x00	; 0
    12d4:	63 e4       	ldi	r22, 0x43	; 67
    12d6:	74 e2       	ldi	r23, 0x24	; 36
    12d8:	80 e6       	ldi	r24, 0x60	; 96
    12da:	92 e0       	ldi	r25, 0x02	; 2
    12dc:	0e 94 4b 1a 	call	0x3496	; 0x3496 <nvm_eeprom_erase_and_write_buffer>
    12e0:	4d eb       	ldi	r20, 0xBD	; 189
    12e2:	50 e0       	ldi	r21, 0x00	; 0
    12e4:	69 ec       	ldi	r22, 0xC9	; 201
    12e6:	72 e2       	ldi	r23, 0x22	; 34
    12e8:	80 e2       	ldi	r24, 0x20	; 32
    12ea:	93 e0       	ldi	r25, 0x03	; 3
    12ec:	0e 94 4b 1a 	call	0x3496	; 0x3496 <nvm_eeprom_erase_and_write_buffer>
    12f0:	88 e0       	ldi	r24, 0x08	; 8
    12f2:	e4 e0       	ldi	r30, 0x04	; 4
    12f4:	f2 e2       	ldi	r31, 0x22	; 34
    12f6:	a9 ee       	ldi	r26, 0xE9	; 233
    12f8:	b7 e2       	ldi	r27, 0x27	; 39
    12fa:	01 90       	ld	r0, Z+
    12fc:	0d 92       	st	X+, r0
    12fe:	8a 95       	dec	r24
    1300:	e1 f7       	brne	.-8      	; 0x12fa <loadConfiguration+0x7c>
    1302:	80 91 ee 27 	lds	r24, 0x27EE
    1306:	8f 7e       	andi	r24, 0xEF	; 239
    1308:	80 93 ee 27 	sts	0x27EE, r24
    130c:	48 e0       	ldi	r20, 0x08	; 8
    130e:	50 e0       	ldi	r21, 0x00	; 0
    1310:	69 ee       	ldi	r22, 0xE9	; 233
    1312:	77 e2       	ldi	r23, 0x27	; 39
    1314:	80 e0       	ldi	r24, 0x00	; 0
    1316:	90 e0       	ldi	r25, 0x00	; 0
    1318:	0e 94 4b 1a 	call	0x3496	; 0x3496 <nvm_eeprom_erase_and_write_buffer>
    131c:	0e 94 e1 26 	call	0x4dc2	; 0x4dc2 <btFactoryReset>
    1320:	80 e2       	ldi	r24, 0x20	; 32
    1322:	91 e2       	ldi	r25, 0x21	; 33
    1324:	0e 94 45 13 	call	0x268a	; 0x268a <sendDBGString>
    1328:	80 e3       	ldi	r24, 0x30	; 48
    132a:	8c 0f       	add	r24, r28
    132c:	0e 94 40 13 	call	0x2680	; 0x2680 <sendDBGChar>
    1330:	89 e2       	ldi	r24, 0x29	; 41
    1332:	95 e2       	ldi	r25, 0x25	; 37
    1334:	0e 94 45 13 	call	0x268a	; 0x268a <sendDBGString>
    1338:	20 ec       	ldi	r18, 0xC0	; 192
    133a:	c2 9f       	mul	r28, r18
    133c:	c0 01       	movw	r24, r0
    133e:	11 24       	eor	r1, r1
    1340:	4d eb       	ldi	r20, 0xBD	; 189
    1342:	50 e0       	ldi	r21, 0x00	; 0
    1344:	66 e1       	ldi	r22, 0x16	; 22
    1346:	78 e2       	ldi	r23, 0x28	; 40
    1348:	80 96       	adiw	r24, 0x20	; 32
    134a:	cf 91       	pop	r28
    134c:	0c 94 36 1a 	jmp	0x346c	; 0x346c <nvm_eeprom_read_buffer>
    1350:	8b e1       	ldi	r24, 0x1B	; 27
    1352:	91 e2       	ldi	r25, 0x21	; 33
    1354:	0e 94 57 13 	call	0x26ae	; 0x26ae <sendDBGLine>
    1358:	f8 da       	rcall	.-2576   	; 0x94a <biosMain>
    135a:	96 cf       	rjmp	.-212    	; 0x1288 <loadConfiguration+0xa>

0000135c <displayWhichConfiguration>:
    135c:	90 e0       	ldi	r25, 0x00	; 0
    135e:	8b 30       	cpi	r24, 0x0B	; 11
    1360:	91 05       	cpc	r25, r1
    1362:	08 f0       	brcs	.+2      	; 0x1366 <displayWhichConfiguration+0xa>
    1364:	08 95       	ret
    1366:	fc 01       	movw	r30, r24
    1368:	ec 51       	subi	r30, 0x1C	; 28
    136a:	ff 4f       	sbci	r31, 0xFF	; 255
    136c:	0c 94 36 2c 	jmp	0x586c	; 0x586c <__tablejump2__>
    1370:	41 e0       	ldi	r20, 0x01	; 1
    1372:	60 e0       	ldi	r22, 0x00	; 0
    1374:	80 e0       	ldi	r24, 0x00	; 0
    1376:	0c 94 bc 15 	jmp	0x2b78	; 0x2b78 <setLEDValue>
    137a:	41 e0       	ldi	r20, 0x01	; 1
    137c:	60 e0       	ldi	r22, 0x00	; 0
    137e:	81 e0       	ldi	r24, 0x01	; 1
    1380:	0c 94 bc 15 	jmp	0x2b78	; 0x2b78 <setLEDValue>
    1384:	40 e0       	ldi	r20, 0x00	; 0
    1386:	61 e0       	ldi	r22, 0x01	; 1
    1388:	80 e0       	ldi	r24, 0x00	; 0
    138a:	0c 94 bc 15 	jmp	0x2b78	; 0x2b78 <setLEDValue>
    138e:	40 e0       	ldi	r20, 0x00	; 0
    1390:	61 e0       	ldi	r22, 0x01	; 1
    1392:	81 e0       	ldi	r24, 0x01	; 1
    1394:	0c 94 bc 15 	jmp	0x2b78	; 0x2b78 <setLEDValue>
    1398:	40 e0       	ldi	r20, 0x00	; 0
    139a:	60 e0       	ldi	r22, 0x00	; 0
    139c:	81 e0       	ldi	r24, 0x01	; 1
    139e:	0c 94 bc 15 	jmp	0x2b78	; 0x2b78 <setLEDValue>
    13a2:	40 e0       	ldi	r20, 0x00	; 0
    13a4:	60 e0       	ldi	r22, 0x00	; 0
    13a6:	80 e0       	ldi	r24, 0x00	; 0
    13a8:	0c 94 bc 15 	jmp	0x2b78	; 0x2b78 <setLEDValue>

000013ac <whichConfiguration>:
    13ac:	cf 93       	push	r28
    13ae:	89 e0       	ldi	r24, 0x09	; 9
    13b0:	f7 da       	rcall	.-2578   	; 0x9a0 <buttonActivated>
    13b2:	88 23       	and	r24, r24
    13b4:	49 f0       	breq	.+18     	; 0x13c8 <whichConfiguration+0x1c>
    13b6:	ca e0       	ldi	r28, 0x0A	; 10
    13b8:	40 e0       	ldi	r20, 0x00	; 0
    13ba:	60 e0       	ldi	r22, 0x00	; 0
    13bc:	80 e0       	ldi	r24, 0x00	; 0
    13be:	0e 94 bc 15 	call	0x2b78	; 0x2b78 <setLEDValue>
    13c2:	8c 2f       	mov	r24, r28
    13c4:	cf 91       	pop	r28
    13c6:	08 95       	ret
    13c8:	84 e0       	ldi	r24, 0x04	; 4
    13ca:	ea da       	rcall	.-2604   	; 0x9a0 <buttonActivated>
    13cc:	88 23       	and	r24, r24
    13ce:	49 f0       	breq	.+18     	; 0x13e2 <whichConfiguration+0x36>
    13d0:	c0 e0       	ldi	r28, 0x00	; 0
    13d2:	41 e0       	ldi	r20, 0x01	; 1
    13d4:	60 e0       	ldi	r22, 0x00	; 0
    13d6:	80 e0       	ldi	r24, 0x00	; 0
    13d8:	0e 94 bc 15 	call	0x2b78	; 0x2b78 <setLEDValue>
    13dc:	8c 2f       	mov	r24, r28
    13de:	cf 91       	pop	r28
    13e0:	08 95       	ret
    13e2:	85 e0       	ldi	r24, 0x05	; 5
    13e4:	dd da       	rcall	.-2630   	; 0x9a0 <buttonActivated>
    13e6:	88 23       	and	r24, r24
    13e8:	49 f0       	breq	.+18     	; 0x13fc <whichConfiguration+0x50>
    13ea:	c1 e0       	ldi	r28, 0x01	; 1
    13ec:	40 e0       	ldi	r20, 0x00	; 0
    13ee:	60 e0       	ldi	r22, 0x00	; 0
    13f0:	81 e0       	ldi	r24, 0x01	; 1
    13f2:	0e 94 bc 15 	call	0x2b78	; 0x2b78 <setLEDValue>
    13f6:	8c 2f       	mov	r24, r28
    13f8:	cf 91       	pop	r28
    13fa:	08 95       	ret
    13fc:	86 e0       	ldi	r24, 0x06	; 6
    13fe:	d0 da       	rcall	.-2656   	; 0x9a0 <buttonActivated>
    1400:	88 23       	and	r24, r24
    1402:	49 f0       	breq	.+18     	; 0x1416 <whichConfiguration+0x6a>
    1404:	c2 e0       	ldi	r28, 0x02	; 2
    1406:	40 e0       	ldi	r20, 0x00	; 0
    1408:	61 e0       	ldi	r22, 0x01	; 1
    140a:	80 e0       	ldi	r24, 0x00	; 0
    140c:	0e 94 bc 15 	call	0x2b78	; 0x2b78 <setLEDValue>
    1410:	8c 2f       	mov	r24, r28
    1412:	cf 91       	pop	r28
    1414:	08 95       	ret
    1416:	87 e0       	ldi	r24, 0x07	; 7
    1418:	c3 da       	rcall	.-2682   	; 0x9a0 <buttonActivated>
    141a:	88 23       	and	r24, r24
    141c:	49 f0       	breq	.+18     	; 0x1430 <whichConfiguration+0x84>
    141e:	c3 e0       	ldi	r28, 0x03	; 3
    1420:	40 e0       	ldi	r20, 0x00	; 0
    1422:	61 e0       	ldi	r22, 0x01	; 1
    1424:	81 e0       	ldi	r24, 0x01	; 1
    1426:	0e 94 bc 15 	call	0x2b78	; 0x2b78 <setLEDValue>
    142a:	8c 2f       	mov	r24, r28
    142c:	cf 91       	pop	r28
    142e:	08 95       	ret
    1430:	8a e0       	ldi	r24, 0x0A	; 10
    1432:	b6 da       	rcall	.-2708   	; 0x9a0 <buttonActivated>
    1434:	88 23       	and	r24, r24
    1436:	49 f0       	breq	.+18     	; 0x144a <whichConfiguration+0x9e>
    1438:	c4 e0       	ldi	r28, 0x04	; 4
    143a:	41 e0       	ldi	r20, 0x01	; 1
    143c:	60 e0       	ldi	r22, 0x00	; 0
    143e:	81 e0       	ldi	r24, 0x01	; 1
    1440:	0e 94 bc 15 	call	0x2b78	; 0x2b78 <setLEDValue>
    1444:	8c 2f       	mov	r24, r28
    1446:	cf 91       	pop	r28
    1448:	08 95       	ret
    144a:	81 e0       	ldi	r24, 0x01	; 1
    144c:	a9 da       	rcall	.-2734   	; 0x9a0 <buttonActivated>
    144e:	88 23       	and	r24, r24
    1450:	11 f0       	breq	.+4      	; 0x1456 <whichConfiguration+0xaa>
    1452:	c5 e0       	ldi	r28, 0x05	; 5
    1454:	be cf       	rjmp	.-132    	; 0x13d2 <whichConfiguration+0x26>
    1456:	83 e0       	ldi	r24, 0x03	; 3
    1458:	a3 da       	rcall	.-2746   	; 0x9a0 <buttonActivated>
    145a:	88 23       	and	r24, r24
    145c:	11 f0       	breq	.+4      	; 0x1462 <whichConfiguration+0xb6>
    145e:	c6 e0       	ldi	r28, 0x06	; 6
    1460:	c5 cf       	rjmp	.-118    	; 0x13ec <whichConfiguration+0x40>
    1462:	82 e0       	ldi	r24, 0x02	; 2
    1464:	9d da       	rcall	.-2758   	; 0x9a0 <buttonActivated>
    1466:	88 23       	and	r24, r24
    1468:	11 f0       	breq	.+4      	; 0x146e <whichConfiguration+0xc2>
    146a:	c8 e0       	ldi	r28, 0x08	; 8
    146c:	cc cf       	rjmp	.-104    	; 0x1406 <whichConfiguration+0x5a>
    146e:	98 da       	rcall	.-2768   	; 0x9a0 <buttonActivated>
    1470:	88 23       	and	r24, r24
    1472:	11 f0       	breq	.+4      	; 0x1478 <whichConfiguration+0xcc>
    1474:	c7 e0       	ldi	r28, 0x07	; 7
    1476:	d4 cf       	rjmp	.-88     	; 0x1420 <whichConfiguration+0x74>
    1478:	8b e0       	ldi	r24, 0x0B	; 11
    147a:	92 da       	rcall	.-2780   	; 0x9a0 <buttonActivated>
    147c:	88 23       	and	r24, r24
    147e:	11 f0       	breq	.+4      	; 0x1484 <whichConfiguration+0xd8>
    1480:	c9 e0       	ldi	r28, 0x09	; 9
    1482:	db cf       	rjmp	.-74     	; 0x143a <whichConfiguration+0x8e>
    1484:	c0 91 ee 27 	lds	r28, 0x27EE
    1488:	cf 70       	andi	r28, 0x0F	; 15
    148a:	4c 2f       	mov	r20, r28
    148c:	50 e0       	ldi	r21, 0x00	; 0
    148e:	4b 30       	cpi	r20, 0x0B	; 11
    1490:	51 05       	cpc	r21, r1
    1492:	08 f0       	brcs	.+2      	; 0x1496 <whichConfiguration+0xea>
    1494:	96 cf       	rjmp	.-212    	; 0x13c2 <whichConfiguration+0x16>
    1496:	fa 01       	movw	r30, r20
    1498:	e1 51       	subi	r30, 0x11	; 17
    149a:	ff 4f       	sbci	r31, 0xFF	; 255
    149c:	0c 94 36 2c 	jmp	0x586c	; 0x586c <__tablejump2__>

000014a0 <gamepadInit>:
    14a0:	cf 93       	push	r28
    14a2:	df 93       	push	r29
    14a4:	cd b7       	in	r28, 0x3d	; 61
    14a6:	de b7       	in	r29, 0x3e	; 62
    14a8:	2a 97       	sbiw	r28, 0x0a	; 10
    14aa:	cd bf       	out	0x3d, r28	; 61
    14ac:	de bf       	out	0x3e, r29	; 62
    14ae:	80 93 f7 26 	sts	0x26F7, r24
    14b2:	90 93 f8 26 	sts	0x26F8, r25
    14b6:	8a e0       	ldi	r24, 0x0A	; 10
    14b8:	e9 e6       	ldi	r30, 0x69	; 105
    14ba:	f0 e2       	ldi	r31, 0x20	; 32
    14bc:	de 01       	movw	r26, r28
    14be:	11 96       	adiw	r26, 0x01	; 1
    14c0:	01 90       	ld	r0, Z+
    14c2:	0d 92       	st	X+, r0
    14c4:	8a 95       	dec	r24
    14c6:	e1 f7       	brne	.-8      	; 0x14c0 <gamepadInit+0x20>
    14c8:	8a e0       	ldi	r24, 0x0A	; 10
    14ca:	fe 01       	movw	r30, r28
    14cc:	31 96       	adiw	r30, 0x01	; 1
    14ce:	a9 ef       	ldi	r26, 0xF9	; 249
    14d0:	b7 e2       	ldi	r27, 0x27	; 39
    14d2:	01 90       	ld	r0, Z+
    14d4:	0d 92       	st	X+, r0
    14d6:	8a 95       	dec	r24
    14d8:	e1 f7       	brne	.-8      	; 0x14d2 <gamepadInit+0x32>
    14da:	8a e0       	ldi	r24, 0x0A	; 10
    14dc:	e9 ef       	ldi	r30, 0xF9	; 249
    14de:	f7 e2       	ldi	r31, 0x27	; 39
    14e0:	a3 e0       	ldi	r26, 0x03	; 3
    14e2:	b8 e2       	ldi	r27, 0x28	; 40
    14e4:	01 90       	ld	r0, Z+
    14e6:	0d 92       	st	X+, r0
    14e8:	8a 95       	dec	r24
    14ea:	e1 f7       	brne	.-8      	; 0x14e4 <gamepadInit+0x44>
    14ec:	2a 96       	adiw	r28, 0x0a	; 10
    14ee:	cd bf       	out	0x3d, r28	; 61
    14f0:	de bf       	out	0x3e, r29	; 62
    14f2:	df 91       	pop	r29
    14f4:	cf 91       	pop	r28
    14f6:	0c 94 69 27 	jmp	0x4ed2	; 0x4ed2 <BluetoothGamePadMode>

000014fa <gamepadButtonHandler>:
    14fa:	cf 92       	push	r12
    14fc:	df 92       	push	r13
    14fe:	ef 92       	push	r14
    1500:	ff 92       	push	r15
    1502:	0f 93       	push	r16
    1504:	1f 93       	push	r17
    1506:	61 30       	cpi	r22, 0x01	; 1
    1508:	09 f4       	brne	.+2      	; 0x150c <gamepadButtonHandler+0x12>
    150a:	b5 c0       	rjmp	.+362    	; 0x1676 <gamepadButtonHandler+0x17c>
    150c:	61 11       	cpse	r22, r1
    150e:	24 c0       	rjmp	.+72     	; 0x1558 <gamepadButtonHandler+0x5e>
    1510:	41 e0       	ldi	r20, 0x01	; 1
    1512:	50 e0       	ldi	r21, 0x00	; 0
    1514:	60 e0       	ldi	r22, 0x00	; 0
    1516:	70 e0       	ldi	r23, 0x00	; 0
    1518:	08 2e       	mov	r0, r24
    151a:	04 c0       	rjmp	.+8      	; 0x1524 <gamepadButtonHandler+0x2a>
    151c:	44 0f       	add	r20, r20
    151e:	55 1f       	adc	r21, r21
    1520:	66 1f       	adc	r22, r22
    1522:	77 1f       	adc	r23, r23
    1524:	0a 94       	dec	r0
    1526:	d2 f7       	brpl	.-12     	; 0x151c <gamepadButtonHandler+0x22>
    1528:	40 95       	com	r20
    152a:	50 95       	com	r21
    152c:	60 95       	com	r22
    152e:	70 95       	com	r23
    1530:	00 91 f3 26 	lds	r16, 0x26F3
    1534:	10 91 f4 26 	lds	r17, 0x26F4
    1538:	20 91 f5 26 	lds	r18, 0x26F5
    153c:	30 91 f6 26 	lds	r19, 0x26F6
    1540:	04 23       	and	r16, r20
    1542:	15 23       	and	r17, r21
    1544:	26 23       	and	r18, r22
    1546:	37 23       	and	r19, r23
    1548:	00 93 f3 26 	sts	0x26F3, r16
    154c:	10 93 f4 26 	sts	0x26F4, r17
    1550:	20 93 f5 26 	sts	0x26F5, r18
    1554:	30 93 f6 26 	sts	0x26F6, r19
    1558:	81 31       	cpi	r24, 0x11	; 17
    155a:	39 f0       	breq	.+14     	; 0x156a <gamepadButtonHandler+0x70>
    155c:	1f 91       	pop	r17
    155e:	0f 91       	pop	r16
    1560:	ff 90       	pop	r15
    1562:	ef 90       	pop	r14
    1564:	df 90       	pop	r13
    1566:	cf 90       	pop	r12
    1568:	08 95       	ret
    156a:	80 91 f3 26 	lds	r24, 0x26F3
    156e:	90 91 f4 26 	lds	r25, 0x26F4
    1572:	a0 91 f5 26 	lds	r26, 0x26F5
    1576:	b0 91 f6 26 	lds	r27, 0x26F6
    157a:	40 91 ef 26 	lds	r20, 0x26EF
    157e:	50 91 f0 26 	lds	r21, 0x26F0
    1582:	60 91 f1 26 	lds	r22, 0x26F1
    1586:	70 91 f2 26 	lds	r23, 0x26F2
    158a:	84 fd       	sbrc	r24, 4
    158c:	95 c0       	rjmp	.+298    	; 0x16b8 <gamepadButtonHandler+0x1be>
    158e:	4e 7f       	andi	r20, 0xFE	; 254
    1590:	85 ff       	sbrs	r24, 5
    1592:	95 c0       	rjmp	.+298    	; 0x16be <gamepadButtonHandler+0x1c4>
    1594:	42 60       	ori	r20, 0x02	; 2
    1596:	86 ff       	sbrs	r24, 6
    1598:	95 c0       	rjmp	.+298    	; 0x16c4 <gamepadButtonHandler+0x1ca>
    159a:	48 60       	ori	r20, 0x08	; 8
    159c:	87 ff       	sbrs	r24, 7
    159e:	95 c0       	rjmp	.+298    	; 0x16ca <gamepadButtonHandler+0x1d0>
    15a0:	40 61       	ori	r20, 0x10	; 16
    15a2:	93 ff       	sbrs	r25, 3
    15a4:	95 c0       	rjmp	.+298    	; 0x16d0 <gamepadButtonHandler+0x1d6>
    15a6:	40 64       	ori	r20, 0x40	; 64
    15a8:	92 ff       	sbrs	r25, 2
    15aa:	95 c0       	rjmp	.+298    	; 0x16d6 <gamepadButtonHandler+0x1dc>
    15ac:	40 68       	ori	r20, 0x80	; 128
    15ae:	40 93 ef 26 	sts	0x26EF, r20
    15b2:	50 93 f0 26 	sts	0x26F0, r21
    15b6:	60 93 f1 26 	sts	0x26F1, r22
    15ba:	70 93 f2 26 	sts	0x26F2, r23
    15be:	e4 2f       	mov	r30, r20
    15c0:	40 91 eb 26 	lds	r20, 0x26EB
    15c4:	50 91 ec 26 	lds	r21, 0x26EC
    15c8:	60 91 ed 26 	lds	r22, 0x26ED
    15cc:	70 91 ee 26 	lds	r23, 0x26EE
    15d0:	95 ff       	sbrs	r25, 5
    15d2:	ad c0       	rjmp	.+346    	; 0x172e <gamepadButtonHandler+0x234>
    15d4:	41 60       	ori	r20, 0x01	; 1
    15d6:	94 ff       	sbrs	r25, 4
    15d8:	a8 c0       	rjmp	.+336    	; 0x172a <gamepadButtonHandler+0x230>
    15da:	42 60       	ori	r20, 0x02	; 2
    15dc:	91 ff       	sbrs	r25, 1
    15de:	a3 c0       	rjmp	.+326    	; 0x1726 <gamepadButtonHandler+0x22c>
    15e0:	44 60       	ori	r20, 0x04	; 4
    15e2:	90 ff       	sbrs	r25, 0
    15e4:	9e c0       	rjmp	.+316    	; 0x1722 <gamepadButtonHandler+0x228>
    15e6:	48 60       	ori	r20, 0x08	; 8
    15e8:	96 ff       	sbrs	r25, 6
    15ea:	99 c0       	rjmp	.+306    	; 0x171e <gamepadButtonHandler+0x224>
    15ec:	40 62       	ori	r20, 0x20	; 32
    15ee:	8c 01       	movw	r16, r24
    15f0:	9d 01       	movw	r18, r26
    15f2:	00 27       	eor	r16, r16
    15f4:	10 78       	andi	r17, 0x80	; 128
    15f6:	01 2b       	or	r16, r17
    15f8:	02 2b       	or	r16, r18
    15fa:	03 2b       	or	r16, r19
    15fc:	09 f4       	brne	.+2      	; 0x1600 <gamepadButtonHandler+0x106>
    15fe:	85 c0       	rjmp	.+266    	; 0x170a <gamepadButtonHandler+0x210>
    1600:	40 64       	ori	r20, 0x40	; 64
    1602:	40 93 eb 26 	sts	0x26EB, r20
    1606:	50 93 ec 26 	sts	0x26EC, r21
    160a:	60 93 ed 26 	sts	0x26ED, r22
    160e:	70 93 ee 26 	sts	0x26EE, r23
    1612:	8c 01       	movw	r16, r24
    1614:	9d 01       	movw	r18, r26
    1616:	01 70       	andi	r16, 0x01	; 1
    1618:	11 27       	eor	r17, r17
    161a:	22 27       	eor	r18, r18
    161c:	33 27       	eor	r19, r19
    161e:	80 ff       	sbrs	r24, 0
    1620:	65 c0       	rjmp	.+202    	; 0x16ec <gamepadButtonHandler+0x1f2>
    1622:	82 ff       	sbrs	r24, 2
    1624:	86 c0       	rjmp	.+268    	; 0x1732 <gamepadButtonHandler+0x238>
    1626:	87 e0       	ldi	r24, 0x07	; 7
    1628:	80 93 40 20 	sts	0x2040, r24
    162c:	80 93 00 28 	sts	0x2800, r24
    1630:	e0 93 01 28 	sts	0x2801, r30
    1634:	40 93 02 28 	sts	0x2802, r20
    1638:	90 91 0a 28 	lds	r25, 0x280A
    163c:	98 13       	cpse	r25, r24
    163e:	05 c0       	rjmp	.+10     	; 0x164a <gamepadButtonHandler+0x150>
    1640:	80 91 0b 28 	lds	r24, 0x280B
    1644:	e8 17       	cp	r30, r24
    1646:	09 f4       	brne	.+2      	; 0x164a <gamepadButtonHandler+0x150>
    1648:	8e c0       	rjmp	.+284    	; 0x1766 <gamepadButtonHandler+0x26c>
    164a:	80 91 00 28 	lds	r24, 0x2800
    164e:	90 91 01 28 	lds	r25, 0x2801
    1652:	a0 91 02 28 	lds	r26, 0x2802
    1656:	80 93 0a 28 	sts	0x280A, r24
    165a:	90 93 0b 28 	sts	0x280B, r25
    165e:	a0 93 0c 28 	sts	0x280C, r26
    1662:	81 e0       	ldi	r24, 0x01	; 1
    1664:	80 93 ea 26 	sts	0x26EA, r24
    1668:	1f 91       	pop	r17
    166a:	0f 91       	pop	r16
    166c:	ff 90       	pop	r15
    166e:	ef 90       	pop	r14
    1670:	df 90       	pop	r13
    1672:	cf 90       	pop	r12
    1674:	08 95       	ret
    1676:	01 e0       	ldi	r16, 0x01	; 1
    1678:	10 e0       	ldi	r17, 0x00	; 0
    167a:	20 e0       	ldi	r18, 0x00	; 0
    167c:	30 e0       	ldi	r19, 0x00	; 0
    167e:	08 2e       	mov	r0, r24
    1680:	04 c0       	rjmp	.+8      	; 0x168a <gamepadButtonHandler+0x190>
    1682:	00 0f       	add	r16, r16
    1684:	11 1f       	adc	r17, r17
    1686:	22 1f       	adc	r18, r18
    1688:	33 1f       	adc	r19, r19
    168a:	0a 94       	dec	r0
    168c:	d2 f7       	brpl	.-12     	; 0x1682 <gamepadButtonHandler+0x188>
    168e:	40 91 f3 26 	lds	r20, 0x26F3
    1692:	50 91 f4 26 	lds	r21, 0x26F4
    1696:	60 91 f5 26 	lds	r22, 0x26F5
    169a:	70 91 f6 26 	lds	r23, 0x26F6
    169e:	40 2b       	or	r20, r16
    16a0:	51 2b       	or	r21, r17
    16a2:	62 2b       	or	r22, r18
    16a4:	73 2b       	or	r23, r19
    16a6:	40 93 f3 26 	sts	0x26F3, r20
    16aa:	50 93 f4 26 	sts	0x26F4, r21
    16ae:	60 93 f5 26 	sts	0x26F5, r22
    16b2:	70 93 f6 26 	sts	0x26F6, r23
    16b6:	50 cf       	rjmp	.-352    	; 0x1558 <gamepadButtonHandler+0x5e>
    16b8:	41 60       	ori	r20, 0x01	; 1
    16ba:	85 fd       	sbrc	r24, 5
    16bc:	6b cf       	rjmp	.-298    	; 0x1594 <gamepadButtonHandler+0x9a>
    16be:	4d 7f       	andi	r20, 0xFD	; 253
    16c0:	86 fd       	sbrc	r24, 6
    16c2:	6b cf       	rjmp	.-298    	; 0x159a <gamepadButtonHandler+0xa0>
    16c4:	47 7f       	andi	r20, 0xF7	; 247
    16c6:	87 fd       	sbrc	r24, 7
    16c8:	6b cf       	rjmp	.-298    	; 0x15a0 <gamepadButtonHandler+0xa6>
    16ca:	4f 7e       	andi	r20, 0xEF	; 239
    16cc:	93 fd       	sbrc	r25, 3
    16ce:	6b cf       	rjmp	.-298    	; 0x15a6 <gamepadButtonHandler+0xac>
    16d0:	4f 7b       	andi	r20, 0xBF	; 191
    16d2:	92 fd       	sbrc	r25, 2
    16d4:	6b cf       	rjmp	.-298    	; 0x15ac <gamepadButtonHandler+0xb2>
    16d6:	4f 77       	andi	r20, 0x7F	; 127
    16d8:	40 93 ef 26 	sts	0x26EF, r20
    16dc:	50 93 f0 26 	sts	0x26F0, r21
    16e0:	60 93 f1 26 	sts	0x26F1, r22
    16e4:	70 93 f2 26 	sts	0x26F2, r23
    16e8:	e4 2f       	mov	r30, r20
    16ea:	6a cf       	rjmp	.-300    	; 0x15c0 <gamepadButtonHandler+0xc6>
    16ec:	6c 01       	movw	r12, r24
    16ee:	7d 01       	movw	r14, r26
    16f0:	52 e0       	ldi	r21, 0x02	; 2
    16f2:	c5 22       	and	r12, r21
    16f4:	dd 24       	eor	r13, r13
    16f6:	ee 24       	eor	r14, r14
    16f8:	ff 24       	eor	r15, r15
    16fa:	81 ff       	sbrs	r24, 1
    16fc:	22 c0       	rjmp	.+68     	; 0x1742 <gamepadButtonHandler+0x248>
    16fe:	82 ff       	sbrs	r24, 2
    1700:	1e c0       	rjmp	.+60     	; 0x173e <gamepadButtonHandler+0x244>
    1702:	85 e0       	ldi	r24, 0x05	; 5
    1704:	80 93 40 20 	sts	0x2040, r24
    1708:	91 cf       	rjmp	.-222    	; 0x162c <gamepadButtonHandler+0x132>
    170a:	4f 7b       	andi	r20, 0xBF	; 191
    170c:	40 93 eb 26 	sts	0x26EB, r20
    1710:	50 93 ec 26 	sts	0x26EC, r21
    1714:	60 93 ed 26 	sts	0x26ED, r22
    1718:	70 93 ee 26 	sts	0x26EE, r23
    171c:	7a cf       	rjmp	.-268    	; 0x1612 <gamepadButtonHandler+0x118>
    171e:	4f 7d       	andi	r20, 0xDF	; 223
    1720:	66 cf       	rjmp	.-308    	; 0x15ee <gamepadButtonHandler+0xf4>
    1722:	47 7f       	andi	r20, 0xF7	; 247
    1724:	61 cf       	rjmp	.-318    	; 0x15e8 <gamepadButtonHandler+0xee>
    1726:	4b 7f       	andi	r20, 0xFB	; 251
    1728:	5c cf       	rjmp	.-328    	; 0x15e2 <gamepadButtonHandler+0xe8>
    172a:	4d 7f       	andi	r20, 0xFD	; 253
    172c:	57 cf       	rjmp	.-338    	; 0x15dc <gamepadButtonHandler+0xe2>
    172e:	4e 7f       	andi	r20, 0xFE	; 254
    1730:	52 cf       	rjmp	.-348    	; 0x15d6 <gamepadButtonHandler+0xdc>
    1732:	83 ff       	sbrs	r24, 3
    1734:	db cf       	rjmp	.-74     	; 0x16ec <gamepadButtonHandler+0x1f2>
    1736:	81 e0       	ldi	r24, 0x01	; 1
    1738:	80 93 40 20 	sts	0x2040, r24
    173c:	77 cf       	rjmp	.-274    	; 0x162c <gamepadButtonHandler+0x132>
    173e:	83 fd       	sbrc	r24, 3
    1740:	17 c0       	rjmp	.+46     	; 0x1770 <gamepadButtonHandler+0x276>
    1742:	01 2b       	or	r16, r17
    1744:	02 2b       	or	r16, r18
    1746:	03 2b       	or	r16, r19
    1748:	21 f0       	breq	.+8      	; 0x1752 <gamepadButtonHandler+0x258>
    174a:	10 92 40 20 	sts	0x2040, r1
    174e:	80 e0       	ldi	r24, 0x00	; 0
    1750:	6d cf       	rjmp	.-294    	; 0x162c <gamepadButtonHandler+0x132>
    1752:	82 fd       	sbrc	r24, 2
    1754:	11 c0       	rjmp	.+34     	; 0x1778 <gamepadButtonHandler+0x27e>
    1756:	cd 28       	or	r12, r13
    1758:	ce 28       	or	r12, r14
    175a:	cf 28       	or	r12, r15
    175c:	89 f0       	breq	.+34     	; 0x1780 <gamepadButtonHandler+0x286>
    175e:	84 e0       	ldi	r24, 0x04	; 4
    1760:	80 93 40 20 	sts	0x2040, r24
    1764:	63 cf       	rjmp	.-314    	; 0x162c <gamepadButtonHandler+0x132>
    1766:	80 91 0c 28 	lds	r24, 0x280C
    176a:	48 13       	cpse	r20, r24
    176c:	6e cf       	rjmp	.-292    	; 0x164a <gamepadButtonHandler+0x150>
    176e:	f6 ce       	rjmp	.-532    	; 0x155c <gamepadButtonHandler+0x62>
    1770:	83 e0       	ldi	r24, 0x03	; 3
    1772:	80 93 40 20 	sts	0x2040, r24
    1776:	5a cf       	rjmp	.-332    	; 0x162c <gamepadButtonHandler+0x132>
    1778:	86 e0       	ldi	r24, 0x06	; 6
    177a:	80 93 40 20 	sts	0x2040, r24
    177e:	56 cf       	rjmp	.-340    	; 0x162c <gamepadButtonHandler+0x132>
    1780:	83 fd       	sbrc	r24, 3
    1782:	04 c0       	rjmp	.+8      	; 0x178c <gamepadButtonHandler+0x292>
    1784:	88 e0       	ldi	r24, 0x08	; 8
    1786:	80 93 40 20 	sts	0x2040, r24
    178a:	50 cf       	rjmp	.-352    	; 0x162c <gamepadButtonHandler+0x132>
    178c:	82 e0       	ldi	r24, 0x02	; 2
    178e:	80 93 40 20 	sts	0x2040, r24
    1792:	4c cf       	rjmp	.-360    	; 0x162c <gamepadButtonHandler+0x132>

00001794 <gamepadJoystickHandler>:
    1794:	1f 93       	push	r17
    1796:	cf 93       	push	r28
    1798:	df 93       	push	r29
    179a:	cd b7       	in	r28, 0x3d	; 61
    179c:	de b7       	in	r29, 0x3e	; 62
    179e:	26 97       	sbiw	r28, 0x06	; 6
    17a0:	cd bf       	out	0x3d, r28	; 61
    17a2:	de bf       	out	0x3e, r29	; 62
    17a4:	18 2f       	mov	r17, r24
    17a6:	9b 01       	movw	r18, r22
    17a8:	e8 2f       	mov	r30, r24
    17aa:	f0 e0       	ldi	r31, 0x00	; 0
    17ac:	86 e1       	ldi	r24, 0x16	; 22
    17ae:	18 9f       	mul	r17, r24
    17b0:	d0 01       	movw	r26, r0
    17b2:	11 24       	eor	r1, r1
    17b4:	af 56       	subi	r26, 0x6F	; 111
    17b6:	bf 4f       	sbci	r27, 0xFF	; 255
    17b8:	60 91 f7 26 	lds	r22, 0x26F7
    17bc:	70 91 f8 26 	lds	r23, 0x26F8
    17c0:	6a 0f       	add	r22, r26
    17c2:	7b 1f       	adc	r23, r27
    17c4:	29 83       	std	Y+1, r18	; 0x01
    17c6:	3a 83       	std	Y+2, r19	; 0x02
    17c8:	4b 83       	std	Y+3, r20	; 0x03
    17ca:	5c 83       	std	Y+4, r21	; 0x04
    17cc:	ee 0f       	add	r30, r30
    17ce:	ff 1f       	adc	r31, r31
    17d0:	e9 5c       	subi	r30, 0xC9	; 201
    17d2:	fe 4d       	sbci	r31, 0xDE	; 222
    17d4:	9e 01       	movw	r18, r28
    17d6:	2b 5f       	subi	r18, 0xFB	; 251
    17d8:	3f 4f       	sbci	r19, 0xFF	; 255
    17da:	ae 01       	movw	r20, r28
    17dc:	4f 5f       	subi	r20, 0xFF	; 255
    17de:	5f 4f       	sbci	r21, 0xFF	; 255
    17e0:	80 81       	ld	r24, Z
    17e2:	91 81       	ldd	r25, Z+1	; 0x01
    17e4:	c7 d7       	rcall	.+3982   	; 0x2774 <AnalogJoystickAdj>
    17e6:	8d 81       	ldd	r24, Y+5	; 0x05
    17e8:	11 11       	cpse	r17, r1
    17ea:	0c c0       	rjmp	.+24     	; 0x1804 <gamepadJoystickHandler+0x70>
    17ec:	80 93 fc 27 	sts	0x27FC, r24
    17f0:	8e 81       	ldd	r24, Y+6	; 0x06
    17f2:	80 93 fd 27 	sts	0x27FD, r24
    17f6:	26 96       	adiw	r28, 0x06	; 6
    17f8:	cd bf       	out	0x3d, r28	; 61
    17fa:	de bf       	out	0x3e, r29	; 62
    17fc:	df 91       	pop	r29
    17fe:	cf 91       	pop	r28
    1800:	1f 91       	pop	r17
    1802:	08 95       	ret
    1804:	80 93 fe 27 	sts	0x27FE, r24
    1808:	9e 81       	ldd	r25, Y+6	; 0x06
    180a:	90 93 ff 27 	sts	0x27FF, r25
    180e:	30 91 06 28 	lds	r19, 0x2806
    1812:	20 91 fc 27 	lds	r18, 0x27FC
    1816:	32 17       	cp	r19, r18
    1818:	d1 f0       	breq	.+52     	; 0x184e <gamepadJoystickHandler+0xba>
    181a:	80 91 fc 27 	lds	r24, 0x27FC
    181e:	90 91 fd 27 	lds	r25, 0x27FD
    1822:	a0 91 fe 27 	lds	r26, 0x27FE
    1826:	b0 91 ff 27 	lds	r27, 0x27FF
    182a:	80 93 06 28 	sts	0x2806, r24
    182e:	90 93 07 28 	sts	0x2807, r25
    1832:	a0 93 08 28 	sts	0x2808, r26
    1836:	b0 93 09 28 	sts	0x2809, r27
    183a:	81 e0       	ldi	r24, 0x01	; 1
    183c:	80 93 ea 26 	sts	0x26EA, r24
    1840:	26 96       	adiw	r28, 0x06	; 6
    1842:	cd bf       	out	0x3d, r28	; 61
    1844:	de bf       	out	0x3e, r29	; 62
    1846:	df 91       	pop	r29
    1848:	cf 91       	pop	r28
    184a:	1f 91       	pop	r17
    184c:	08 95       	ret
    184e:	30 91 07 28 	lds	r19, 0x2807
    1852:	20 91 fd 27 	lds	r18, 0x27FD
    1856:	32 13       	cpse	r19, r18
    1858:	e0 cf       	rjmp	.-64     	; 0x181a <gamepadJoystickHandler+0x86>
    185a:	20 91 08 28 	lds	r18, 0x2808
    185e:	82 13       	cpse	r24, r18
    1860:	dc cf       	rjmp	.-72     	; 0x181a <gamepadJoystickHandler+0x86>
    1862:	80 91 09 28 	lds	r24, 0x2809
    1866:	98 13       	cpse	r25, r24
    1868:	d8 cf       	rjmp	.-80     	; 0x181a <gamepadJoystickHandler+0x86>
    186a:	c5 cf       	rjmp	.-118    	; 0x17f6 <gamepadJoystickHandler+0x62>

0000186c <GamepadSendReport>:
    186c:	cf 93       	push	r28
    186e:	df 93       	push	r29
    1870:	c9 ef       	ldi	r28, 0xF9	; 249
    1872:	d7 e2       	ldi	r29, 0x27	; 39
    1874:	89 91       	ld	r24, Y+
    1876:	0e 94 4a 24 	call	0x4894	; 0x4894 <sendBTChar>
    187a:	88 e2       	ldi	r24, 0x28	; 40
    187c:	c3 30       	cpi	r28, 0x03	; 3
    187e:	d8 07       	cpc	r29, r24
    1880:	c9 f7       	brne	.-14     	; 0x1874 <GamepadSendReport+0x8>
    1882:	df 91       	pop	r29
    1884:	cf 91       	pop	r28
    1886:	08 95       	ret

00001888 <jStickInit>:
    1888:	cf 93       	push	r28
    188a:	df 93       	push	r29
    188c:	cd b7       	in	r28, 0x3d	; 61
    188e:	de b7       	in	r29, 0x3e	; 62
    1890:	2a 97       	sbiw	r28, 0x0a	; 10
    1892:	cd bf       	out	0x3d, r28	; 61
    1894:	de bf       	out	0x3e, r29	; 62
    1896:	80 93 00 27 	sts	0x2700, r24
    189a:	90 93 01 27 	sts	0x2701, r25
    189e:	8a e0       	ldi	r24, 0x0A	; 10
    18a0:	e3 e7       	ldi	r30, 0x73	; 115
    18a2:	f0 e2       	ldi	r31, 0x20	; 32
    18a4:	de 01       	movw	r26, r28
    18a6:	11 96       	adiw	r26, 0x01	; 1
    18a8:	01 90       	ld	r0, Z+
    18aa:	0d 92       	st	X+, r0
    18ac:	8a 95       	dec	r24
    18ae:	e1 f7       	brne	.-8      	; 0x18a8 <jStickInit+0x20>
    18b0:	8a e0       	ldi	r24, 0x0A	; 10
    18b2:	fe 01       	movw	r30, r28
    18b4:	31 96       	adiw	r30, 0x01	; 1
    18b6:	a9 ef       	ldi	r26, 0xF9	; 249
    18b8:	b7 e2       	ldi	r27, 0x27	; 39
    18ba:	01 90       	ld	r0, Z+
    18bc:	0d 92       	st	X+, r0
    18be:	8a 95       	dec	r24
    18c0:	e1 f7       	brne	.-8      	; 0x18ba <jStickInit+0x32>
    18c2:	8a e0       	ldi	r24, 0x0A	; 10
    18c4:	e9 ef       	ldi	r30, 0xF9	; 249
    18c6:	f7 e2       	ldi	r31, 0x27	; 39
    18c8:	a3 e0       	ldi	r26, 0x03	; 3
    18ca:	b8 e2       	ldi	r27, 0x28	; 40
    18cc:	01 90       	ld	r0, Z+
    18ce:	0d 92       	st	X+, r0
    18d0:	8a 95       	dec	r24
    18d2:	e1 f7       	brne	.-8      	; 0x18cc <jStickInit+0x44>
    18d4:	2a 96       	adiw	r28, 0x0a	; 10
    18d6:	cd bf       	out	0x3d, r28	; 61
    18d8:	de bf       	out	0x3e, r29	; 62
    18da:	df 91       	pop	r29
    18dc:	cf 91       	pop	r28
    18de:	0c 94 6c 27 	jmp	0x4ed8	; 0x4ed8 <BluetoothJoystickMode>

000018e2 <jStickButtonHandler>:
    18e2:	0f 93       	push	r16
    18e4:	1f 93       	push	r17
    18e6:	61 30       	cpi	r22, 0x01	; 1
    18e8:	09 f4       	brne	.+2      	; 0x18ec <jStickButtonHandler+0xa>
    18ea:	96 c0       	rjmp	.+300    	; 0x1a18 <jStickButtonHandler+0x136>
    18ec:	61 11       	cpse	r22, r1
    18ee:	24 c0       	rjmp	.+72     	; 0x1938 <jStickButtonHandler+0x56>
    18f0:	41 e0       	ldi	r20, 0x01	; 1
    18f2:	50 e0       	ldi	r21, 0x00	; 0
    18f4:	60 e0       	ldi	r22, 0x00	; 0
    18f6:	70 e0       	ldi	r23, 0x00	; 0
    18f8:	08 2e       	mov	r0, r24
    18fa:	04 c0       	rjmp	.+8      	; 0x1904 <jStickButtonHandler+0x22>
    18fc:	44 0f       	add	r20, r20
    18fe:	55 1f       	adc	r21, r21
    1900:	66 1f       	adc	r22, r22
    1902:	77 1f       	adc	r23, r23
    1904:	0a 94       	dec	r0
    1906:	d2 f7       	brpl	.-12     	; 0x18fc <jStickButtonHandler+0x1a>
    1908:	40 95       	com	r20
    190a:	50 95       	com	r21
    190c:	60 95       	com	r22
    190e:	70 95       	com	r23
    1910:	00 91 fc 26 	lds	r16, 0x26FC
    1914:	10 91 fd 26 	lds	r17, 0x26FD
    1918:	20 91 fe 26 	lds	r18, 0x26FE
    191c:	30 91 ff 26 	lds	r19, 0x26FF
    1920:	04 23       	and	r16, r20
    1922:	15 23       	and	r17, r21
    1924:	26 23       	and	r18, r22
    1926:	37 23       	and	r19, r23
    1928:	00 93 fc 26 	sts	0x26FC, r16
    192c:	10 93 fd 26 	sts	0x26FD, r17
    1930:	20 93 fe 26 	sts	0x26FE, r18
    1934:	30 93 ff 26 	sts	0x26FF, r19
    1938:	81 31       	cpi	r24, 0x11	; 17
    193a:	19 f0       	breq	.+6      	; 0x1942 <jStickButtonHandler+0x60>
    193c:	1f 91       	pop	r17
    193e:	0f 91       	pop	r16
    1940:	08 95       	ret
    1942:	80 91 fc 26 	lds	r24, 0x26FC
    1946:	90 91 fd 26 	lds	r25, 0x26FD
    194a:	a0 91 fe 26 	lds	r26, 0x26FE
    194e:	b0 91 ff 26 	lds	r27, 0x26FF
    1952:	20 91 fb 26 	lds	r18, 0x26FB
    1956:	84 fd       	sbrc	r24, 4
    1958:	80 c0       	rjmp	.+256    	; 0x1a5a <jStickButtonHandler+0x178>
    195a:	2e 7f       	andi	r18, 0xFE	; 254
    195c:	e2 2f       	mov	r30, r18
    195e:	85 ff       	sbrs	r24, 5
    1960:	80 c0       	rjmp	.+256    	; 0x1a62 <jStickButtonHandler+0x180>
    1962:	e2 60       	ori	r30, 0x02	; 2
    1964:	86 ff       	sbrs	r24, 6
    1966:	80 c0       	rjmp	.+256    	; 0x1a68 <jStickButtonHandler+0x186>
    1968:	e8 60       	ori	r30, 0x08	; 8
    196a:	87 ff       	sbrs	r24, 7
    196c:	80 c0       	rjmp	.+256    	; 0x1a6e <jStickButtonHandler+0x18c>
    196e:	e0 61       	ori	r30, 0x10	; 16
    1970:	93 ff       	sbrs	r25, 3
    1972:	80 c0       	rjmp	.+256    	; 0x1a74 <jStickButtonHandler+0x192>
    1974:	e0 64       	ori	r30, 0x40	; 64
    1976:	92 ff       	sbrs	r25, 2
    1978:	80 c0       	rjmp	.+256    	; 0x1a7a <jStickButtonHandler+0x198>
    197a:	e0 68       	ori	r30, 0x80	; 128
    197c:	e0 93 fb 26 	sts	0x26FB, r30
    1980:	20 91 fa 26 	lds	r18, 0x26FA
    1984:	95 ff       	sbrs	r25, 5
    1986:	80 c0       	rjmp	.+256    	; 0x1a88 <jStickButtonHandler+0x1a6>
    1988:	21 60       	ori	r18, 0x01	; 1
    198a:	f2 2f       	mov	r31, r18
    198c:	94 ff       	sbrs	r25, 4
    198e:	80 c0       	rjmp	.+256    	; 0x1a90 <jStickButtonHandler+0x1ae>
    1990:	f2 60       	ori	r31, 0x02	; 2
    1992:	91 ff       	sbrs	r25, 1
    1994:	80 c0       	rjmp	.+256    	; 0x1a96 <jStickButtonHandler+0x1b4>
    1996:	f4 60       	ori	r31, 0x04	; 4
    1998:	90 ff       	sbrs	r25, 0
    199a:	80 c0       	rjmp	.+256    	; 0x1a9c <jStickButtonHandler+0x1ba>
    199c:	f8 60       	ori	r31, 0x08	; 8
    199e:	96 ff       	sbrs	r25, 6
    19a0:	80 c0       	rjmp	.+256    	; 0x1aa2 <jStickButtonHandler+0x1c0>
    19a2:	f0 62       	ori	r31, 0x20	; 32
    19a4:	ac 01       	movw	r20, r24
    19a6:	bd 01       	movw	r22, r26
    19a8:	44 27       	eor	r20, r20
    19aa:	50 78       	andi	r21, 0x80	; 128
    19ac:	45 2b       	or	r20, r21
    19ae:	46 2b       	or	r20, r22
    19b0:	47 2b       	or	r20, r23
    19b2:	09 f4       	brne	.+2      	; 0x19b6 <jStickButtonHandler+0xd4>
    19b4:	80 c0       	rjmp	.+256    	; 0x1ab6 <jStickButtonHandler+0x1d4>
    19b6:	f0 64       	ori	r31, 0x40	; 64
    19b8:	f0 93 fa 26 	sts	0x26FA, r31
    19bc:	ac 01       	movw	r20, r24
    19be:	bd 01       	movw	r22, r26
    19c0:	41 70       	andi	r20, 0x01	; 1
    19c2:	55 27       	eor	r21, r21
    19c4:	66 27       	eor	r22, r22
    19c6:	77 27       	eor	r23, r23
    19c8:	80 ff       	sbrs	r24, 0
    19ca:	80 c0       	rjmp	.+256    	; 0x1acc <jStickButtonHandler+0x1ea>
    19cc:	82 ff       	sbrs	r24, 2
    19ce:	8c c0       	rjmp	.+280    	; 0x1ae8 <jStickButtonHandler+0x206>
    19d0:	87 e0       	ldi	r24, 0x07	; 7
    19d2:	80 93 41 20 	sts	0x2041, r24
    19d6:	80 93 00 28 	sts	0x2800, r24
    19da:	e0 93 01 28 	sts	0x2801, r30
    19de:	f0 93 02 28 	sts	0x2802, r31
    19e2:	90 91 0a 28 	lds	r25, 0x280A
    19e6:	98 13       	cpse	r25, r24
    19e8:	05 c0       	rjmp	.+10     	; 0x19f4 <jStickButtonHandler+0x112>
    19ea:	80 91 0b 28 	lds	r24, 0x280B
    19ee:	e8 17       	cp	r30, r24
    19f0:	09 f4       	brne	.+2      	; 0x19f4 <jStickButtonHandler+0x112>
    19f2:	94 c0       	rjmp	.+296    	; 0x1b1c <jStickButtonHandler+0x23a>
    19f4:	80 91 00 28 	lds	r24, 0x2800
    19f8:	90 91 01 28 	lds	r25, 0x2801
    19fc:	a0 91 02 28 	lds	r26, 0x2802
    1a00:	80 93 0a 28 	sts	0x280A, r24
    1a04:	90 93 0b 28 	sts	0x280B, r25
    1a08:	a0 93 0c 28 	sts	0x280C, r26
    1a0c:	81 e0       	ldi	r24, 0x01	; 1
    1a0e:	80 93 f9 26 	sts	0x26F9, r24
    1a12:	1f 91       	pop	r17
    1a14:	0f 91       	pop	r16
    1a16:	08 95       	ret
    1a18:	01 e0       	ldi	r16, 0x01	; 1
    1a1a:	10 e0       	ldi	r17, 0x00	; 0
    1a1c:	20 e0       	ldi	r18, 0x00	; 0
    1a1e:	30 e0       	ldi	r19, 0x00	; 0
    1a20:	08 2e       	mov	r0, r24
    1a22:	04 c0       	rjmp	.+8      	; 0x1a2c <jStickButtonHandler+0x14a>
    1a24:	00 0f       	add	r16, r16
    1a26:	11 1f       	adc	r17, r17
    1a28:	22 1f       	adc	r18, r18
    1a2a:	33 1f       	adc	r19, r19
    1a2c:	0a 94       	dec	r0
    1a2e:	d2 f7       	brpl	.-12     	; 0x1a24 <jStickButtonHandler+0x142>
    1a30:	40 91 fc 26 	lds	r20, 0x26FC
    1a34:	50 91 fd 26 	lds	r21, 0x26FD
    1a38:	60 91 fe 26 	lds	r22, 0x26FE
    1a3c:	70 91 ff 26 	lds	r23, 0x26FF
    1a40:	40 2b       	or	r20, r16
    1a42:	51 2b       	or	r21, r17
    1a44:	62 2b       	or	r22, r18
    1a46:	73 2b       	or	r23, r19
    1a48:	40 93 fc 26 	sts	0x26FC, r20
    1a4c:	50 93 fd 26 	sts	0x26FD, r21
    1a50:	60 93 fe 26 	sts	0x26FE, r22
    1a54:	70 93 ff 26 	sts	0x26FF, r23
    1a58:	6f cf       	rjmp	.-290    	; 0x1938 <jStickButtonHandler+0x56>
    1a5a:	21 60       	ori	r18, 0x01	; 1
    1a5c:	e2 2f       	mov	r30, r18
    1a5e:	85 fd       	sbrc	r24, 5
    1a60:	80 cf       	rjmp	.-256    	; 0x1962 <jStickButtonHandler+0x80>
    1a62:	ed 7f       	andi	r30, 0xFD	; 253
    1a64:	86 fd       	sbrc	r24, 6
    1a66:	80 cf       	rjmp	.-256    	; 0x1968 <jStickButtonHandler+0x86>
    1a68:	e7 7f       	andi	r30, 0xF7	; 247
    1a6a:	87 fd       	sbrc	r24, 7
    1a6c:	80 cf       	rjmp	.-256    	; 0x196e <jStickButtonHandler+0x8c>
    1a6e:	ef 7e       	andi	r30, 0xEF	; 239
    1a70:	93 fd       	sbrc	r25, 3
    1a72:	80 cf       	rjmp	.-256    	; 0x1974 <jStickButtonHandler+0x92>
    1a74:	ef 7b       	andi	r30, 0xBF	; 191
    1a76:	92 fd       	sbrc	r25, 2
    1a78:	80 cf       	rjmp	.-256    	; 0x197a <jStickButtonHandler+0x98>
    1a7a:	ef 77       	andi	r30, 0x7F	; 127
    1a7c:	e0 93 fb 26 	sts	0x26FB, r30
    1a80:	20 91 fa 26 	lds	r18, 0x26FA
    1a84:	95 fd       	sbrc	r25, 5
    1a86:	80 cf       	rjmp	.-256    	; 0x1988 <jStickButtonHandler+0xa6>
    1a88:	2e 7f       	andi	r18, 0xFE	; 254
    1a8a:	f2 2f       	mov	r31, r18
    1a8c:	94 fd       	sbrc	r25, 4
    1a8e:	80 cf       	rjmp	.-256    	; 0x1990 <jStickButtonHandler+0xae>
    1a90:	fd 7f       	andi	r31, 0xFD	; 253
    1a92:	91 fd       	sbrc	r25, 1
    1a94:	80 cf       	rjmp	.-256    	; 0x1996 <jStickButtonHandler+0xb4>
    1a96:	fb 7f       	andi	r31, 0xFB	; 251
    1a98:	90 fd       	sbrc	r25, 0
    1a9a:	80 cf       	rjmp	.-256    	; 0x199c <jStickButtonHandler+0xba>
    1a9c:	f7 7f       	andi	r31, 0xF7	; 247
    1a9e:	96 fd       	sbrc	r25, 6
    1aa0:	80 cf       	rjmp	.-256    	; 0x19a2 <jStickButtonHandler+0xc0>
    1aa2:	ff 7d       	andi	r31, 0xDF	; 223
    1aa4:	ac 01       	movw	r20, r24
    1aa6:	bd 01       	movw	r22, r26
    1aa8:	44 27       	eor	r20, r20
    1aaa:	50 78       	andi	r21, 0x80	; 128
    1aac:	45 2b       	or	r20, r21
    1aae:	46 2b       	or	r20, r22
    1ab0:	47 2b       	or	r20, r23
    1ab2:	09 f0       	breq	.+2      	; 0x1ab6 <jStickButtonHandler+0x1d4>
    1ab4:	80 cf       	rjmp	.-256    	; 0x19b6 <jStickButtonHandler+0xd4>
    1ab6:	ff 7b       	andi	r31, 0xBF	; 191
    1ab8:	f0 93 fa 26 	sts	0x26FA, r31
    1abc:	ac 01       	movw	r20, r24
    1abe:	bd 01       	movw	r22, r26
    1ac0:	41 70       	andi	r20, 0x01	; 1
    1ac2:	55 27       	eor	r21, r21
    1ac4:	66 27       	eor	r22, r22
    1ac6:	77 27       	eor	r23, r23
    1ac8:	80 fd       	sbrc	r24, 0
    1aca:	80 cf       	rjmp	.-256    	; 0x19cc <jStickButtonHandler+0xea>
    1acc:	8c 01       	movw	r16, r24
    1ace:	9d 01       	movw	r18, r26
    1ad0:	02 70       	andi	r16, 0x02	; 2
    1ad2:	11 27       	eor	r17, r17
    1ad4:	22 27       	eor	r18, r18
    1ad6:	33 27       	eor	r19, r19
    1ad8:	81 ff       	sbrs	r24, 1
    1ada:	0e c0       	rjmp	.+28     	; 0x1af8 <jStickButtonHandler+0x216>
    1adc:	82 ff       	sbrs	r24, 2
    1ade:	0a c0       	rjmp	.+20     	; 0x1af4 <jStickButtonHandler+0x212>
    1ae0:	85 e0       	ldi	r24, 0x05	; 5
    1ae2:	80 93 41 20 	sts	0x2041, r24
    1ae6:	77 cf       	rjmp	.-274    	; 0x19d6 <jStickButtonHandler+0xf4>
    1ae8:	83 ff       	sbrs	r24, 3
    1aea:	f0 cf       	rjmp	.-32     	; 0x1acc <jStickButtonHandler+0x1ea>
    1aec:	81 e0       	ldi	r24, 0x01	; 1
    1aee:	80 93 41 20 	sts	0x2041, r24
    1af2:	71 cf       	rjmp	.-286    	; 0x19d6 <jStickButtonHandler+0xf4>
    1af4:	83 fd       	sbrc	r24, 3
    1af6:	17 c0       	rjmp	.+46     	; 0x1b26 <jStickButtonHandler+0x244>
    1af8:	45 2b       	or	r20, r21
    1afa:	46 2b       	or	r20, r22
    1afc:	47 2b       	or	r20, r23
    1afe:	21 f0       	breq	.+8      	; 0x1b08 <jStickButtonHandler+0x226>
    1b00:	10 92 41 20 	sts	0x2041, r1
    1b04:	80 e0       	ldi	r24, 0x00	; 0
    1b06:	67 cf       	rjmp	.-306    	; 0x19d6 <jStickButtonHandler+0xf4>
    1b08:	82 fd       	sbrc	r24, 2
    1b0a:	11 c0       	rjmp	.+34     	; 0x1b2e <jStickButtonHandler+0x24c>
    1b0c:	01 2b       	or	r16, r17
    1b0e:	02 2b       	or	r16, r18
    1b10:	03 2b       	or	r16, r19
    1b12:	89 f0       	breq	.+34     	; 0x1b36 <jStickButtonHandler+0x254>
    1b14:	84 e0       	ldi	r24, 0x04	; 4
    1b16:	80 93 41 20 	sts	0x2041, r24
    1b1a:	5d cf       	rjmp	.-326    	; 0x19d6 <jStickButtonHandler+0xf4>
    1b1c:	80 91 0c 28 	lds	r24, 0x280C
    1b20:	8f 13       	cpse	r24, r31
    1b22:	68 cf       	rjmp	.-304    	; 0x19f4 <jStickButtonHandler+0x112>
    1b24:	0b cf       	rjmp	.-490    	; 0x193c <jStickButtonHandler+0x5a>
    1b26:	83 e0       	ldi	r24, 0x03	; 3
    1b28:	80 93 41 20 	sts	0x2041, r24
    1b2c:	54 cf       	rjmp	.-344    	; 0x19d6 <jStickButtonHandler+0xf4>
    1b2e:	86 e0       	ldi	r24, 0x06	; 6
    1b30:	80 93 41 20 	sts	0x2041, r24
    1b34:	50 cf       	rjmp	.-352    	; 0x19d6 <jStickButtonHandler+0xf4>
    1b36:	83 fd       	sbrc	r24, 3
    1b38:	04 c0       	rjmp	.+8      	; 0x1b42 <jStickButtonHandler+0x260>
    1b3a:	88 e0       	ldi	r24, 0x08	; 8
    1b3c:	80 93 41 20 	sts	0x2041, r24
    1b40:	4a cf       	rjmp	.-364    	; 0x19d6 <jStickButtonHandler+0xf4>
    1b42:	82 e0       	ldi	r24, 0x02	; 2
    1b44:	80 93 41 20 	sts	0x2041, r24
    1b48:	46 cf       	rjmp	.-372    	; 0x19d6 <jStickButtonHandler+0xf4>

00001b4a <jStickJoystickHandler>:
    1b4a:	1f 93       	push	r17
    1b4c:	cf 93       	push	r28
    1b4e:	df 93       	push	r29
    1b50:	cd b7       	in	r28, 0x3d	; 61
    1b52:	de b7       	in	r29, 0x3e	; 62
    1b54:	26 97       	sbiw	r28, 0x06	; 6
    1b56:	cd bf       	out	0x3d, r28	; 61
    1b58:	de bf       	out	0x3e, r29	; 62
    1b5a:	18 2f       	mov	r17, r24
    1b5c:	9b 01       	movw	r18, r22
    1b5e:	e8 2f       	mov	r30, r24
    1b60:	f0 e0       	ldi	r31, 0x00	; 0
    1b62:	86 e1       	ldi	r24, 0x16	; 22
    1b64:	18 9f       	mul	r17, r24
    1b66:	d0 01       	movw	r26, r0
    1b68:	11 24       	eor	r1, r1
    1b6a:	af 56       	subi	r26, 0x6F	; 111
    1b6c:	bf 4f       	sbci	r27, 0xFF	; 255
    1b6e:	60 91 00 27 	lds	r22, 0x2700
    1b72:	70 91 01 27 	lds	r23, 0x2701
    1b76:	6a 0f       	add	r22, r26
    1b78:	7b 1f       	adc	r23, r27
    1b7a:	29 83       	std	Y+1, r18	; 0x01
    1b7c:	3a 83       	std	Y+2, r19	; 0x02
    1b7e:	4b 83       	std	Y+3, r20	; 0x03
    1b80:	5c 83       	std	Y+4, r21	; 0x04
    1b82:	ee 0f       	add	r30, r30
    1b84:	ff 1f       	adc	r31, r31
    1b86:	e5 5c       	subi	r30, 0xC5	; 197
    1b88:	fe 4d       	sbci	r31, 0xDE	; 222
    1b8a:	9e 01       	movw	r18, r28
    1b8c:	2b 5f       	subi	r18, 0xFB	; 251
    1b8e:	3f 4f       	sbci	r19, 0xFF	; 255
    1b90:	ae 01       	movw	r20, r28
    1b92:	4f 5f       	subi	r20, 0xFF	; 255
    1b94:	5f 4f       	sbci	r21, 0xFF	; 255
    1b96:	80 81       	ld	r24, Z
    1b98:	91 81       	ldd	r25, Z+1	; 0x01
    1b9a:	ec d5       	rcall	.+3032   	; 0x2774 <AnalogJoystickAdj>
    1b9c:	8d 81       	ldd	r24, Y+5	; 0x05
    1b9e:	11 11       	cpse	r17, r1
    1ba0:	0c c0       	rjmp	.+24     	; 0x1bba <jStickJoystickHandler+0x70>
    1ba2:	80 93 fc 27 	sts	0x27FC, r24
    1ba6:	8e 81       	ldd	r24, Y+6	; 0x06
    1ba8:	80 93 fd 27 	sts	0x27FD, r24
    1bac:	26 96       	adiw	r28, 0x06	; 6
    1bae:	cd bf       	out	0x3d, r28	; 61
    1bb0:	de bf       	out	0x3e, r29	; 62
    1bb2:	df 91       	pop	r29
    1bb4:	cf 91       	pop	r28
    1bb6:	1f 91       	pop	r17
    1bb8:	08 95       	ret
    1bba:	80 93 fe 27 	sts	0x27FE, r24
    1bbe:	9e 81       	ldd	r25, Y+6	; 0x06
    1bc0:	90 93 ff 27 	sts	0x27FF, r25
    1bc4:	30 91 06 28 	lds	r19, 0x2806
    1bc8:	20 91 fc 27 	lds	r18, 0x27FC
    1bcc:	32 17       	cp	r19, r18
    1bce:	d1 f0       	breq	.+52     	; 0x1c04 <jStickJoystickHandler+0xba>
    1bd0:	80 91 fc 27 	lds	r24, 0x27FC
    1bd4:	90 91 fd 27 	lds	r25, 0x27FD
    1bd8:	a0 91 fe 27 	lds	r26, 0x27FE
    1bdc:	b0 91 ff 27 	lds	r27, 0x27FF
    1be0:	80 93 06 28 	sts	0x2806, r24
    1be4:	90 93 07 28 	sts	0x2807, r25
    1be8:	a0 93 08 28 	sts	0x2808, r26
    1bec:	b0 93 09 28 	sts	0x2809, r27
    1bf0:	81 e0       	ldi	r24, 0x01	; 1
    1bf2:	80 93 f9 26 	sts	0x26F9, r24
    1bf6:	26 96       	adiw	r28, 0x06	; 6
    1bf8:	cd bf       	out	0x3d, r28	; 61
    1bfa:	de bf       	out	0x3e, r29	; 62
    1bfc:	df 91       	pop	r29
    1bfe:	cf 91       	pop	r28
    1c00:	1f 91       	pop	r17
    1c02:	08 95       	ret
    1c04:	30 91 07 28 	lds	r19, 0x2807
    1c08:	20 91 fd 27 	lds	r18, 0x27FD
    1c0c:	32 13       	cpse	r19, r18
    1c0e:	e0 cf       	rjmp	.-64     	; 0x1bd0 <jStickJoystickHandler+0x86>
    1c10:	20 91 08 28 	lds	r18, 0x2808
    1c14:	82 13       	cpse	r24, r18
    1c16:	dc cf       	rjmp	.-72     	; 0x1bd0 <jStickJoystickHandler+0x86>
    1c18:	80 91 09 28 	lds	r24, 0x2809
    1c1c:	98 13       	cpse	r25, r24
    1c1e:	d8 cf       	rjmp	.-80     	; 0x1bd0 <jStickJoystickHandler+0x86>
    1c20:	c5 cf       	rjmp	.-118    	; 0x1bac <jStickJoystickHandler+0x62>

00001c22 <jStickSendReport>:
    1c22:	cf 93       	push	r28
    1c24:	df 93       	push	r29
    1c26:	c9 ef       	ldi	r28, 0xF9	; 249
    1c28:	d7 e2       	ldi	r29, 0x27	; 39
    1c2a:	89 91       	ld	r24, Y+
    1c2c:	0e 94 4a 24 	call	0x4894	; 0x4894 <sendBTChar>
    1c30:	88 e2       	ldi	r24, 0x28	; 40
    1c32:	c3 30       	cpi	r28, 0x03	; 3
    1c34:	d8 07       	cpc	r29, r24
    1c36:	c9 f7       	brne	.-14     	; 0x1c2a <jStickSendReport+0x8>
    1c38:	df 91       	pop	r29
    1c3a:	cf 91       	pop	r28
    1c3c:	08 95       	ret

00001c3e <keyboardInit>:
    1c3e:	80 93 0a 27 	sts	0x270A, r24
    1c42:	90 93 0b 27 	sts	0x270B, r25
    1c46:	0c 94 63 27 	jmp	0x4ec6	; 0x4ec6 <BluetoothKeyboardMode>

00001c4a <ChangeButtonPressState>:
    1c4a:	2f 92       	push	r2
    1c4c:	3f 92       	push	r3
    1c4e:	4f 92       	push	r4
    1c50:	5f 92       	push	r5
    1c52:	6f 92       	push	r6
    1c54:	7f 92       	push	r7
    1c56:	8f 92       	push	r8
    1c58:	9f 92       	push	r9
    1c5a:	af 92       	push	r10
    1c5c:	bf 92       	push	r11
    1c5e:	cf 92       	push	r12
    1c60:	df 92       	push	r13
    1c62:	ef 92       	push	r14
    1c64:	ff 92       	push	r15
    1c66:	0f 93       	push	r16
    1c68:	1f 93       	push	r17
    1c6a:	cf 93       	push	r28
    1c6c:	df 93       	push	r29
    1c6e:	cd b7       	in	r28, 0x3d	; 61
    1c70:	de b7       	in	r29, 0x3e	; 62
    1c72:	63 97       	sbiw	r28, 0x13	; 19
    1c74:	cd bf       	out	0x3d, r28	; 61
    1c76:	de bf       	out	0x3e, r29	; 62
    1c78:	61 30       	cpi	r22, 0x01	; 1
    1c7a:	09 f4       	brne	.+2      	; 0x1c7e <ChangeButtonPressState+0x34>
    1c7c:	13 c1       	rjmp	.+550    	; 0x1ea4 <ChangeButtonPressState+0x25a>
    1c7e:	61 11       	cpse	r22, r1
    1c80:	31 c1       	rjmp	.+610    	; 0x1ee4 <ChangeButtonPressState+0x29a>
    1c82:	41 2c       	mov	r4, r1
    1c84:	51 2c       	mov	r5, r1
    1c86:	32 01       	movw	r6, r4
    1c88:	43 94       	inc	r4
    1c8a:	04 c0       	rjmp	.+8      	; 0x1c94 <ChangeButtonPressState+0x4a>
    1c8c:	44 0c       	add	r4, r4
    1c8e:	55 1c       	adc	r5, r5
    1c90:	66 1c       	adc	r6, r6
    1c92:	77 1c       	adc	r7, r7
    1c94:	8a 95       	dec	r24
    1c96:	d2 f7       	brpl	.-12     	; 0x1c8c <ChangeButtonPressState+0x42>
    1c98:	40 94       	com	r4
    1c9a:	50 94       	com	r5
    1c9c:	60 94       	com	r6
    1c9e:	70 94       	com	r7
    1ca0:	80 91 06 27 	lds	r24, 0x2706
    1ca4:	90 91 07 27 	lds	r25, 0x2707
    1ca8:	a0 91 08 27 	lds	r26, 0x2708
    1cac:	b0 91 09 27 	lds	r27, 0x2709
    1cb0:	48 22       	and	r4, r24
    1cb2:	59 22       	and	r5, r25
    1cb4:	6a 22       	and	r6, r26
    1cb6:	7b 22       	and	r7, r27
    1cb8:	40 92 06 27 	sts	0x2706, r4
    1cbc:	50 92 07 27 	sts	0x2707, r5
    1cc0:	60 92 08 27 	sts	0x2708, r6
    1cc4:	70 92 09 27 	sts	0x2709, r7
    1cc8:	c0 90 0a 27 	lds	r12, 0x270A
    1ccc:	d0 90 0b 27 	lds	r13, 0x270B
    1cd0:	76 01       	movw	r14, r12
    1cd2:	86 e0       	ldi	r24, 0x06	; 6
    1cd4:	e8 0e       	add	r14, r24
    1cd6:	f1 1c       	adc	r15, r1
    1cd8:	00 e0       	ldi	r16, 0x00	; 0
    1cda:	10 e0       	ldi	r17, 0x00	; 0
    1cdc:	81 2c       	mov	r8, r1
    1cde:	91 2c       	mov	r9, r1
    1ce0:	29 2d       	mov	r18, r9
    1ce2:	08 c0       	rjmp	.+16     	; 0x1cf4 <ChangeButtonPressState+0xaa>
    1ce4:	0f 5f       	subi	r16, 0xFF	; 255
    1ce6:	1f 4f       	sbci	r17, 0xFF	; 255
    1ce8:	89 e0       	ldi	r24, 0x09	; 9
    1cea:	e8 0e       	add	r14, r24
    1cec:	f1 1c       	adc	r15, r1
    1cee:	26 30       	cpi	r18, 0x06	; 6
    1cf0:	08 f0       	brcs	.+2      	; 0x1cf4 <ChangeButtonPressState+0xaa>
    1cf2:	83 c0       	rjmp	.+262    	; 0x1dfa <ChangeButtonPressState+0x1b0>
    1cf4:	d3 01       	movw	r26, r6
    1cf6:	c2 01       	movw	r24, r4
    1cf8:	00 2e       	mov	r0, r16
    1cfa:	04 c0       	rjmp	.+8      	; 0x1d04 <ChangeButtonPressState+0xba>
    1cfc:	b6 95       	lsr	r27
    1cfe:	a7 95       	ror	r26
    1d00:	97 95       	ror	r25
    1d02:	87 95       	ror	r24
    1d04:	0a 94       	dec	r0
    1d06:	d2 f7       	brpl	.-12     	; 0x1cfc <ChangeButtonPressState+0xb2>
    1d08:	80 ff       	sbrs	r24, 0
    1d0a:	1b c0       	rjmp	.+54     	; 0x1d42 <ChangeButtonPressState+0xf8>
    1d0c:	f7 01       	movw	r30, r14
    1d0e:	35 97       	sbiw	r30, 0x05	; 5
    1d10:	81 81       	ldd	r24, Z+1	; 0x01
    1d12:	83 fd       	sbrc	r24, 3
    1d14:	16 c0       	rjmp	.+44     	; 0x1d42 <ChangeButtonPressState+0xf8>
    1d16:	f7 01       	movw	r30, r14
    1d18:	90 80       	ld	r9, Z
    1d1a:	99 20       	and	r9, r9
    1d1c:	71 f0       	breq	.+28     	; 0x1d3a <ChangeButtonPressState+0xf0>
    1d1e:	a2 2e       	mov	r10, r18
    1d20:	b1 2c       	mov	r11, r1
    1d22:	69 2d       	mov	r22, r9
    1d24:	70 e0       	ldi	r23, 0x00	; 0
    1d26:	a5 01       	movw	r20, r10
    1d28:	ce 01       	movw	r24, r28
    1d2a:	01 96       	adiw	r24, 0x01	; 1
    1d2c:	2b 8b       	std	Y+19, r18	; 0x13
    1d2e:	0e 94 6b 2c 	call	0x58d6	; 0x58d6 <memchr>
    1d32:	2b 89       	ldd	r18, Y+19	; 0x13
    1d34:	89 2b       	or	r24, r25
    1d36:	09 f4       	brne	.+2      	; 0x1d3a <ChangeButtonPressState+0xf0>
    1d38:	e7 c0       	rjmp	.+462    	; 0x1f08 <ChangeButtonPressState+0x2be>
    1d3a:	f7 01       	movw	r30, r14
    1d3c:	31 97       	sbiw	r30, 0x01	; 1
    1d3e:	80 81       	ld	r24, Z
    1d40:	88 2a       	or	r8, r24
    1d42:	0f 30       	cpi	r16, 0x0F	; 15
    1d44:	11 05       	cpc	r17, r1
    1d46:	71 f6       	brne	.-100    	; 0x1ce4 <ChangeButtonPressState+0x9a>
    1d48:	92 2e       	mov	r9, r18
    1d4a:	f5 e0       	ldi	r31, 0x05	; 5
    1d4c:	f2 17       	cp	r31, r18
    1d4e:	08 f4       	brcc	.+2      	; 0x1d52 <ChangeButtonPressState+0x108>
    1d50:	55 c0       	rjmp	.+170    	; 0x1dfc <ChangeButtonPressState+0x1b2>
    1d52:	56 01       	movw	r10, r12
    1d54:	93 e9       	ldi	r25, 0x93	; 147
    1d56:	a9 0e       	add	r10, r25
    1d58:	b1 1c       	adc	r11, r1
    1d5a:	f6 01       	movw	r30, r12
    1d5c:	eb 56       	subi	r30, 0x6B	; 107
    1d5e:	ff 4f       	sbci	r31, 0xFF	; 255
    1d60:	ef 83       	std	Y+7, r30	; 0x07
    1d62:	f8 87       	std	Y+8, r31	; 0x08
    1d64:	c6 01       	movw	r24, r12
    1d66:	89 56       	subi	r24, 0x69	; 105
    1d68:	9f 4f       	sbci	r25, 0xFF	; 255
    1d6a:	89 87       	std	Y+9, r24	; 0x09
    1d6c:	9a 87       	std	Y+10, r25	; 0x0a
    1d6e:	34 96       	adiw	r30, 0x04	; 4
    1d70:	eb 87       	std	Y+11, r30	; 0x0b
    1d72:	fc 87       	std	Y+12, r31	; 0x0c
    1d74:	42 96       	adiw	r24, 0x12	; 18
    1d76:	8d 87       	std	Y+13, r24	; 0x0d
    1d78:	9e 87       	std	Y+14, r25	; 0x0e
    1d7a:	72 96       	adiw	r30, 0x12	; 18
    1d7c:	ef 87       	std	Y+15, r30	; 0x0f
    1d7e:	f8 8b       	std	Y+16, r31	; 0x10
    1d80:	04 96       	adiw	r24, 0x04	; 4
    1d82:	89 8b       	std	Y+17, r24	; 0x11
    1d84:	9a 8b       	std	Y+18, r25	; 0x12
    1d86:	16 01       	movw	r2, r12
    1d88:	9f ea       	ldi	r25, 0xAF	; 175
    1d8a:	29 0e       	add	r2, r25
    1d8c:	31 1c       	adc	r3, r1
    1d8e:	80 e1       	ldi	r24, 0x10	; 16
    1d90:	c8 2e       	mov	r12, r24
    1d92:	d1 2c       	mov	r13, r1
    1d94:	d3 01       	movw	r26, r6
    1d96:	c2 01       	movw	r24, r4
    1d98:	0c 2c       	mov	r0, r12
    1d9a:	04 c0       	rjmp	.+8      	; 0x1da4 <ChangeButtonPressState+0x15a>
    1d9c:	b6 95       	lsr	r27
    1d9e:	a7 95       	ror	r26
    1da0:	97 95       	ror	r25
    1da2:	87 95       	ror	r24
    1da4:	0a 94       	dec	r0
    1da6:	d2 f7       	brpl	.-12     	; 0x1d9c <ChangeButtonPressState+0x152>
    1da8:	80 ff       	sbrs	r24, 0
    1daa:	1e c0       	rjmp	.+60     	; 0x1de8 <ChangeButtonPressState+0x19e>
    1dac:	8c 2d       	mov	r24, r12
    1dae:	90 e0       	ldi	r25, 0x00	; 0
    1db0:	fc 01       	movw	r30, r24
    1db2:	71 97       	sbiw	r30, 0x11	; 17
    1db4:	e7 30       	cpi	r30, 0x07	; 7
    1db6:	f1 05       	cpc	r31, r1
    1db8:	08 f4       	brcc	.+2      	; 0x1dbc <ChangeButtonPressState+0x172>
    1dba:	5c c0       	rjmp	.+184    	; 0x1e74 <ChangeButtonPressState+0x22a>
    1dbc:	85 01       	movw	r16, r10
    1dbe:	f8 01       	movw	r30, r16
    1dc0:	91 80       	ldd	r9, Z+1	; 0x01
    1dc2:	99 20       	and	r9, r9
    1dc4:	71 f0       	breq	.+28     	; 0x1de2 <ChangeButtonPressState+0x198>
    1dc6:	e2 2e       	mov	r14, r18
    1dc8:	f1 2c       	mov	r15, r1
    1dca:	69 2d       	mov	r22, r9
    1dcc:	70 e0       	ldi	r23, 0x00	; 0
    1dce:	a7 01       	movw	r20, r14
    1dd0:	ce 01       	movw	r24, r28
    1dd2:	01 96       	adiw	r24, 0x01	; 1
    1dd4:	2b 8b       	std	Y+19, r18	; 0x13
    1dd6:	0e 94 6b 2c 	call	0x58d6	; 0x58d6 <memchr>
    1dda:	2b 89       	ldd	r18, Y+19	; 0x13
    1ddc:	89 2b       	or	r24, r25
    1dde:	09 f4       	brne	.+2      	; 0x1de2 <ChangeButtonPressState+0x198>
    1de0:	8a c0       	rjmp	.+276    	; 0x1ef6 <ChangeButtonPressState+0x2ac>
    1de2:	f8 01       	movw	r30, r16
    1de4:	80 81       	ld	r24, Z
    1de6:	88 2a       	or	r8, r24
    1de8:	f7 e1       	ldi	r31, 0x17	; 23
    1dea:	cf 16       	cp	r12, r31
    1dec:	d1 04       	cpc	r13, r1
    1dee:	29 f0       	breq	.+10     	; 0x1dfa <ChangeButtonPressState+0x1b0>
    1df0:	8f ef       	ldi	r24, 0xFF	; 255
    1df2:	c8 1a       	sub	r12, r24
    1df4:	d8 0a       	sbc	r13, r24
    1df6:	26 30       	cpi	r18, 0x06	; 6
    1df8:	68 f2       	brcs	.-102    	; 0x1d94 <ChangeButtonPressState+0x14a>
    1dfa:	92 2e       	mov	r9, r18
    1dfc:	81 ea       	ldi	r24, 0xA1	; 161
    1dfe:	0e 94 4a 24 	call	0x4894	; 0x4894 <sendBTChar>
    1e02:	81 e0       	ldi	r24, 0x01	; 1
    1e04:	0e 94 4a 24 	call	0x4894	; 0x4894 <sendBTChar>
    1e08:	80 e0       	ldi	r24, 0x00	; 0
    1e0a:	0e 94 4a 24 	call	0x4894	; 0x4894 <sendBTChar>
    1e0e:	88 2d       	mov	r24, r8
    1e10:	0e 94 4a 24 	call	0x4894	; 0x4894 <sendBTChar>
    1e14:	8e 01       	movw	r16, r28
    1e16:	0f 5f       	subi	r16, 0xFF	; 255
    1e18:	1f 4f       	sbci	r17, 0xFF	; 255
    1e1a:	f1 2c       	mov	r15, r1
    1e1c:	0a c0       	rjmp	.+20     	; 0x1e32 <ChangeButtonPressState+0x1e8>
    1e1e:	f8 01       	movw	r30, r16
    1e20:	80 81       	ld	r24, Z
    1e22:	0e 94 4a 24 	call	0x4894	; 0x4894 <sendBTChar>
    1e26:	f3 94       	inc	r15
    1e28:	0f 5f       	subi	r16, 0xFF	; 255
    1e2a:	1f 4f       	sbci	r17, 0xFF	; 255
    1e2c:	f6 e0       	ldi	r31, 0x06	; 6
    1e2e:	ff 16       	cp	r15, r31
    1e30:	59 f0       	breq	.+22     	; 0x1e48 <ChangeButtonPressState+0x1fe>
    1e32:	f9 14       	cp	r15, r9
    1e34:	a0 f3       	brcs	.-24     	; 0x1e1e <ChangeButtonPressState+0x1d4>
    1e36:	80 e0       	ldi	r24, 0x00	; 0
    1e38:	0e 94 4a 24 	call	0x4894	; 0x4894 <sendBTChar>
    1e3c:	f3 94       	inc	r15
    1e3e:	0f 5f       	subi	r16, 0xFF	; 255
    1e40:	1f 4f       	sbci	r17, 0xFF	; 255
    1e42:	f6 e0       	ldi	r31, 0x06	; 6
    1e44:	ff 12       	cpse	r15, r31
    1e46:	f5 cf       	rjmp	.-22     	; 0x1e32 <ChangeButtonPressState+0x1e8>
    1e48:	63 96       	adiw	r28, 0x13	; 19
    1e4a:	cd bf       	out	0x3d, r28	; 61
    1e4c:	de bf       	out	0x3e, r29	; 62
    1e4e:	df 91       	pop	r29
    1e50:	cf 91       	pop	r28
    1e52:	1f 91       	pop	r17
    1e54:	0f 91       	pop	r16
    1e56:	ff 90       	pop	r15
    1e58:	ef 90       	pop	r14
    1e5a:	df 90       	pop	r13
    1e5c:	cf 90       	pop	r12
    1e5e:	bf 90       	pop	r11
    1e60:	af 90       	pop	r10
    1e62:	9f 90       	pop	r9
    1e64:	8f 90       	pop	r8
    1e66:	7f 90       	pop	r7
    1e68:	6f 90       	pop	r6
    1e6a:	5f 90       	pop	r5
    1e6c:	4f 90       	pop	r4
    1e6e:	3f 90       	pop	r3
    1e70:	2f 90       	pop	r2
    1e72:	08 95       	ret
    1e74:	e6 50       	subi	r30, 0x06	; 6
    1e76:	ff 4f       	sbci	r31, 0xFF	; 255
    1e78:	0c 94 36 2c 	jmp	0x586c	; 0x586c <__tablejump2__>
    1e7c:	0f 85       	ldd	r16, Y+15	; 0x0f
    1e7e:	18 89       	ldd	r17, Y+16	; 0x10
    1e80:	9e cf       	rjmp	.-196    	; 0x1dbe <ChangeButtonPressState+0x174>
    1e82:	0d 85       	ldd	r16, Y+13	; 0x0d
    1e84:	1e 85       	ldd	r17, Y+14	; 0x0e
    1e86:	9b cf       	rjmp	.-202    	; 0x1dbe <ChangeButtonPressState+0x174>
    1e88:	0b 85       	ldd	r16, Y+11	; 0x0b
    1e8a:	1c 85       	ldd	r17, Y+12	; 0x0c
    1e8c:	98 cf       	rjmp	.-208    	; 0x1dbe <ChangeButtonPressState+0x174>
    1e8e:	09 85       	ldd	r16, Y+9	; 0x09
    1e90:	1a 85       	ldd	r17, Y+10	; 0x0a
    1e92:	95 cf       	rjmp	.-214    	; 0x1dbe <ChangeButtonPressState+0x174>
    1e94:	0f 81       	ldd	r16, Y+7	; 0x07
    1e96:	18 85       	ldd	r17, Y+8	; 0x08
    1e98:	92 cf       	rjmp	.-220    	; 0x1dbe <ChangeButtonPressState+0x174>
    1e9a:	09 89       	ldd	r16, Y+17	; 0x11
    1e9c:	1a 89       	ldd	r17, Y+18	; 0x12
    1e9e:	8f cf       	rjmp	.-226    	; 0x1dbe <ChangeButtonPressState+0x174>
    1ea0:	81 01       	movw	r16, r2
    1ea2:	8d cf       	rjmp	.-230    	; 0x1dbe <ChangeButtonPressState+0x174>
    1ea4:	41 2c       	mov	r4, r1
    1ea6:	51 2c       	mov	r5, r1
    1ea8:	32 01       	movw	r6, r4
    1eaa:	43 94       	inc	r4
    1eac:	04 c0       	rjmp	.+8      	; 0x1eb6 <ChangeButtonPressState+0x26c>
    1eae:	44 0c       	add	r4, r4
    1eb0:	55 1c       	adc	r5, r5
    1eb2:	66 1c       	adc	r6, r6
    1eb4:	77 1c       	adc	r7, r7
    1eb6:	8a 95       	dec	r24
    1eb8:	d2 f7       	brpl	.-12     	; 0x1eae <ChangeButtonPressState+0x264>
    1eba:	80 91 06 27 	lds	r24, 0x2706
    1ebe:	90 91 07 27 	lds	r25, 0x2707
    1ec2:	a0 91 08 27 	lds	r26, 0x2708
    1ec6:	b0 91 09 27 	lds	r27, 0x2709
    1eca:	48 2a       	or	r4, r24
    1ecc:	59 2a       	or	r5, r25
    1ece:	6a 2a       	or	r6, r26
    1ed0:	7b 2a       	or	r7, r27
    1ed2:	40 92 06 27 	sts	0x2706, r4
    1ed6:	50 92 07 27 	sts	0x2707, r5
    1eda:	60 92 08 27 	sts	0x2708, r6
    1ede:	70 92 09 27 	sts	0x2709, r7
    1ee2:	f2 ce       	rjmp	.-540    	; 0x1cc8 <ChangeButtonPressState+0x7e>
    1ee4:	40 90 06 27 	lds	r4, 0x2706
    1ee8:	50 90 07 27 	lds	r5, 0x2707
    1eec:	60 90 08 27 	lds	r6, 0x2708
    1ef0:	70 90 09 27 	lds	r7, 0x2709
    1ef4:	e9 ce       	rjmp	.-558    	; 0x1cc8 <ChangeButtonPressState+0x7e>
    1ef6:	e1 e0       	ldi	r30, 0x01	; 1
    1ef8:	f0 e0       	ldi	r31, 0x00	; 0
    1efa:	ec 0f       	add	r30, r28
    1efc:	fd 1f       	adc	r31, r29
    1efe:	ee 0d       	add	r30, r14
    1f00:	ff 1d       	adc	r31, r15
    1f02:	90 82       	st	Z, r9
    1f04:	2f 5f       	subi	r18, 0xFF	; 255
    1f06:	6d cf       	rjmp	.-294    	; 0x1de2 <ChangeButtonPressState+0x198>
    1f08:	e1 e0       	ldi	r30, 0x01	; 1
    1f0a:	f0 e0       	ldi	r31, 0x00	; 0
    1f0c:	ec 0f       	add	r30, r28
    1f0e:	fd 1f       	adc	r31, r29
    1f10:	ea 0d       	add	r30, r10
    1f12:	fb 1d       	adc	r31, r11
    1f14:	90 82       	st	Z, r9
    1f16:	2f 5f       	subi	r18, 0xFF	; 255
    1f18:	10 cf       	rjmp	.-480    	; 0x1d3a <ChangeButtonPressState+0xf0>

00001f1a <keyboardButtonHandler>:
    1f1a:	97 ce       	rjmp	.-722    	; 0x1c4a <ChangeButtonPressState>

00001f1c <keyboardJoystickHandler>:
    1f1c:	ff 92       	push	r15
    1f1e:	0f 93       	push	r16
    1f20:	1f 93       	push	r17
    1f22:	cf 93       	push	r28
    1f24:	df 93       	push	r29
    1f26:	cd b7       	in	r28, 0x3d	; 61
    1f28:	de b7       	in	r29, 0x3e	; 62
    1f2a:	28 97       	sbiw	r28, 0x08	; 8
    1f2c:	cd bf       	out	0x3d, r28	; 61
    1f2e:	de bf       	out	0x3e, r29	; 62
    1f30:	9b 01       	movw	r18, r22
    1f32:	08 2f       	mov	r16, r24
    1f34:	10 e0       	ldi	r17, 0x00	; 0
    1f36:	60 91 0a 27 	lds	r22, 0x270A
    1f3a:	70 91 0b 27 	lds	r23, 0x270B
    1f3e:	96 e1       	ldi	r25, 0x16	; 22
    1f40:	89 9f       	mul	r24, r25
    1f42:	60 0d       	add	r22, r0
    1f44:	71 1d       	adc	r23, r1
    1f46:	11 24       	eor	r1, r1
    1f48:	c8 01       	movw	r24, r16
    1f4a:	04 96       	adiw	r24, 0x04	; 4
    1f4c:	f8 2e       	mov	r15, r24
    1f4e:	ff 0c       	add	r15, r15
    1f50:	ff 0c       	add	r15, r15
    1f52:	2d 83       	std	Y+5, r18	; 0x05
    1f54:	3e 83       	std	Y+6, r19	; 0x06
    1f56:	4f 83       	std	Y+7, r20	; 0x07
    1f58:	58 87       	std	Y+8, r21	; 0x08
    1f5a:	6d 55       	subi	r22, 0x5D	; 93
    1f5c:	7f 4f       	sbci	r23, 0xFF	; 255
    1f5e:	f8 01       	movw	r30, r16
    1f60:	ee 0f       	add	r30, r30
    1f62:	ff 1f       	adc	r31, r31
    1f64:	e1 5c       	subi	r30, 0xC1	; 193
    1f66:	fe 4d       	sbci	r31, 0xDE	; 222
    1f68:	9e 01       	movw	r18, r28
    1f6a:	2f 5f       	subi	r18, 0xFF	; 255
    1f6c:	3f 4f       	sbci	r19, 0xFF	; 255
    1f6e:	ae 01       	movw	r20, r28
    1f70:	4b 5f       	subi	r20, 0xFB	; 251
    1f72:	5f 4f       	sbci	r21, 0xFF	; 255
    1f74:	80 81       	ld	r24, Z
    1f76:	91 81       	ldd	r25, Z+1	; 0x01
    1f78:	b5 d3       	rcall	.+1898   	; 0x26e4 <SimpleJoystickAdj>
    1f7a:	f8 01       	movw	r30, r16
    1f7c:	ec 5f       	subi	r30, 0xFC	; 252
    1f7e:	f8 4d       	sbci	r31, 0xD8	; 216
    1f80:	80 81       	ld	r24, Z
    1f82:	83 30       	cpi	r24, 0x03	; 3
    1f84:	09 f4       	brne	.+2      	; 0x1f88 <keyboardJoystickHandler+0x6c>
    1f86:	5b c0       	rjmp	.+182    	; 0x203e <keyboardJoystickHandler+0x122>
    1f88:	84 30       	cpi	r24, 0x04	; 4
    1f8a:	09 f4       	brne	.+2      	; 0x1f8e <keyboardJoystickHandler+0x72>
    1f8c:	4b c0       	rjmp	.+150    	; 0x2024 <keyboardJoystickHandler+0x108>
    1f8e:	82 30       	cpi	r24, 0x02	; 2
    1f90:	01 f1       	breq	.+64     	; 0x1fd2 <keyboardJoystickHandler+0xb6>
    1f92:	84 e0       	ldi	r24, 0x04	; 4
    1f94:	80 83       	st	Z, r24
    1f96:	f8 01       	movw	r30, r16
    1f98:	ee 5f       	subi	r30, 0xFE	; 254
    1f9a:	f8 4d       	sbci	r31, 0xD8	; 216
    1f9c:	80 81       	ld	r24, Z
    1f9e:	81 30       	cpi	r24, 0x01	; 1
    1fa0:	41 f1       	breq	.+80     	; 0x1ff2 <keyboardJoystickHandler+0xd6>
    1fa2:	81 30       	cpi	r24, 0x01	; 1
    1fa4:	a8 f1       	brcs	.+106    	; 0x2010 <keyboardJoystickHandler+0xf4>
    1fa6:	84 30       	cpi	r24, 0x04	; 4
    1fa8:	81 f5       	brne	.+96     	; 0x200a <keyboardJoystickHandler+0xee>
    1faa:	8b 81       	ldd	r24, Y+3	; 0x03
    1fac:	9c 81       	ldd	r25, Y+4	; 0x04
    1fae:	97 fd       	sbrc	r25, 7
    1fb0:	59 c0       	rjmp	.+178    	; 0x2064 <keyboardJoystickHandler+0x148>
    1fb2:	89 2b       	or	r24, r25
    1fb4:	29 f0       	breq	.+10     	; 0x1fc0 <keyboardJoystickHandler+0xa4>
    1fb6:	81 e0       	ldi	r24, 0x01	; 1
    1fb8:	80 83       	st	Z, r24
    1fba:	61 e0       	ldi	r22, 0x01	; 1
    1fbc:	8f 0d       	add	r24, r15
    1fbe:	45 de       	rcall	.-886    	; 0x1c4a <ChangeButtonPressState>
    1fc0:	28 96       	adiw	r28, 0x08	; 8
    1fc2:	cd bf       	out	0x3d, r28	; 61
    1fc4:	de bf       	out	0x3e, r29	; 62
    1fc6:	df 91       	pop	r29
    1fc8:	cf 91       	pop	r28
    1fca:	1f 91       	pop	r17
    1fcc:	0f 91       	pop	r16
    1fce:	ff 90       	pop	r15
    1fd0:	08 95       	ret
    1fd2:	89 81       	ldd	r24, Y+1	; 0x01
    1fd4:	9a 81       	ldd	r25, Y+2	; 0x02
    1fd6:	97 fd       	sbrc	r25, 7
    1fd8:	de cf       	rjmp	.-68     	; 0x1f96 <keyboardJoystickHandler+0x7a>
    1fda:	84 e0       	ldi	r24, 0x04	; 4
    1fdc:	80 83       	st	Z, r24
    1fde:	60 e0       	ldi	r22, 0x00	; 0
    1fe0:	82 e0       	ldi	r24, 0x02	; 2
    1fe2:	8f 0d       	add	r24, r15
    1fe4:	32 de       	rcall	.-924    	; 0x1c4a <ChangeButtonPressState>
    1fe6:	f8 01       	movw	r30, r16
    1fe8:	ee 5f       	subi	r30, 0xFE	; 254
    1fea:	f8 4d       	sbci	r31, 0xD8	; 216
    1fec:	80 81       	ld	r24, Z
    1fee:	81 30       	cpi	r24, 0x01	; 1
    1ff0:	c1 f6       	brne	.-80     	; 0x1fa2 <keyboardJoystickHandler+0x86>
    1ff2:	8b 81       	ldd	r24, Y+3	; 0x03
    1ff4:	9c 81       	ldd	r25, Y+4	; 0x04
    1ff6:	18 16       	cp	r1, r24
    1ff8:	19 06       	cpc	r1, r25
    1ffa:	14 f3       	brlt	.-60     	; 0x1fc0 <keyboardJoystickHandler+0xa4>
    1ffc:	84 e0       	ldi	r24, 0x04	; 4
    1ffe:	80 83       	st	Z, r24
    2000:	60 e0       	ldi	r22, 0x00	; 0
    2002:	81 e0       	ldi	r24, 0x01	; 1
    2004:	8f 0d       	add	r24, r15
    2006:	21 de       	rcall	.-958    	; 0x1c4a <ChangeButtonPressState>
    2008:	db cf       	rjmp	.-74     	; 0x1fc0 <keyboardJoystickHandler+0xa4>
    200a:	84 e0       	ldi	r24, 0x04	; 4
    200c:	80 83       	st	Z, r24
    200e:	d8 cf       	rjmp	.-80     	; 0x1fc0 <keyboardJoystickHandler+0xa4>
    2010:	8b 81       	ldd	r24, Y+3	; 0x03
    2012:	9c 81       	ldd	r25, Y+4	; 0x04
    2014:	97 fd       	sbrc	r25, 7
    2016:	d4 cf       	rjmp	.-88     	; 0x1fc0 <keyboardJoystickHandler+0xa4>
    2018:	84 e0       	ldi	r24, 0x04	; 4
    201a:	80 83       	st	Z, r24
    201c:	60 e0       	ldi	r22, 0x00	; 0
    201e:	8f 2d       	mov	r24, r15
    2020:	14 de       	rcall	.-984    	; 0x1c4a <ChangeButtonPressState>
    2022:	ce cf       	rjmp	.-100    	; 0x1fc0 <keyboardJoystickHandler+0xa4>
    2024:	89 81       	ldd	r24, Y+1	; 0x01
    2026:	9a 81       	ldd	r25, Y+2	; 0x02
    2028:	97 fd       	sbrc	r25, 7
    202a:	16 c0       	rjmp	.+44     	; 0x2058 <keyboardJoystickHandler+0x13c>
    202c:	89 2b       	or	r24, r25
    202e:	09 f4       	brne	.+2      	; 0x2032 <keyboardJoystickHandler+0x116>
    2030:	b2 cf       	rjmp	.-156    	; 0x1f96 <keyboardJoystickHandler+0x7a>
    2032:	83 e0       	ldi	r24, 0x03	; 3
    2034:	80 83       	st	Z, r24
    2036:	61 e0       	ldi	r22, 0x01	; 1
    2038:	8f 0d       	add	r24, r15
    203a:	07 de       	rcall	.-1010   	; 0x1c4a <ChangeButtonPressState>
    203c:	ac cf       	rjmp	.-168    	; 0x1f96 <keyboardJoystickHandler+0x7a>
    203e:	89 81       	ldd	r24, Y+1	; 0x01
    2040:	9a 81       	ldd	r25, Y+2	; 0x02
    2042:	18 16       	cp	r1, r24
    2044:	19 06       	cpc	r1, r25
    2046:	0c f4       	brge	.+2      	; 0x204a <keyboardJoystickHandler+0x12e>
    2048:	a6 cf       	rjmp	.-180    	; 0x1f96 <keyboardJoystickHandler+0x7a>
    204a:	84 e0       	ldi	r24, 0x04	; 4
    204c:	80 83       	st	Z, r24
    204e:	60 e0       	ldi	r22, 0x00	; 0
    2050:	83 e0       	ldi	r24, 0x03	; 3
    2052:	8f 0d       	add	r24, r15
    2054:	fa dd       	rcall	.-1036   	; 0x1c4a <ChangeButtonPressState>
    2056:	9f cf       	rjmp	.-194    	; 0x1f96 <keyboardJoystickHandler+0x7a>
    2058:	82 e0       	ldi	r24, 0x02	; 2
    205a:	80 83       	st	Z, r24
    205c:	61 e0       	ldi	r22, 0x01	; 1
    205e:	8f 0d       	add	r24, r15
    2060:	f4 dd       	rcall	.-1048   	; 0x1c4a <ChangeButtonPressState>
    2062:	99 cf       	rjmp	.-206    	; 0x1f96 <keyboardJoystickHandler+0x7a>
    2064:	10 82       	st	Z, r1
    2066:	61 e0       	ldi	r22, 0x01	; 1
    2068:	8f 2d       	mov	r24, r15
    206a:	ef dd       	rcall	.-1058   	; 0x1c4a <ChangeButtonPressState>
    206c:	a9 cf       	rjmp	.-174    	; 0x1fc0 <keyboardJoystickHandler+0xa4>

0000206e <keyboardMouseInit>:
    206e:	80 93 1e 27 	sts	0x271E, r24
    2072:	90 93 1f 27 	sts	0x271F, r25
    2076:	0e 94 66 27 	call	0x4ecc	; 0x4ecc <BluetoothComboMode>
    207a:	44 e1       	ldi	r20, 0x14	; 20
    207c:	50 e0       	ldi	r21, 0x00	; 0
    207e:	60 e0       	ldi	r22, 0x00	; 0
    2080:	70 e0       	ldi	r23, 0x00	; 0
    2082:	81 e1       	ldi	r24, 0x11	; 17
    2084:	97 e2       	ldi	r25, 0x27	; 39
    2086:	70 c6       	rjmp	.+3296   	; 0x2d68 <startTimeout>

00002088 <changeButtonState>:
    2088:	2f 92       	push	r2
    208a:	3f 92       	push	r3
    208c:	4f 92       	push	r4
    208e:	5f 92       	push	r5
    2090:	6f 92       	push	r6
    2092:	7f 92       	push	r7
    2094:	8f 92       	push	r8
    2096:	9f 92       	push	r9
    2098:	af 92       	push	r10
    209a:	bf 92       	push	r11
    209c:	cf 92       	push	r12
    209e:	df 92       	push	r13
    20a0:	ef 92       	push	r14
    20a2:	ff 92       	push	r15
    20a4:	0f 93       	push	r16
    20a6:	1f 93       	push	r17
    20a8:	cf 93       	push	r28
    20aa:	df 93       	push	r29
    20ac:	cd b7       	in	r28, 0x3d	; 61
    20ae:	de b7       	in	r29, 0x3e	; 62
    20b0:	63 97       	sbiw	r28, 0x13	; 19
    20b2:	cd bf       	out	0x3d, r28	; 61
    20b4:	de bf       	out	0x3e, r29	; 62
    20b6:	10 92 19 27 	sts	0x2719, r1
    20ba:	61 30       	cpi	r22, 0x01	; 1
    20bc:	09 f4       	brne	.+2      	; 0x20c0 <changeButtonState+0x38>
    20be:	1c c1       	rjmp	.+568    	; 0x22f8 <changeButtonState+0x270>
    20c0:	61 11       	cpse	r22, r1
    20c2:	3a c1       	rjmp	.+628    	; 0x2338 <changeButtonState+0x2b0>
    20c4:	41 2c       	mov	r4, r1
    20c6:	51 2c       	mov	r5, r1
    20c8:	32 01       	movw	r6, r4
    20ca:	43 94       	inc	r4
    20cc:	04 c0       	rjmp	.+8      	; 0x20d6 <changeButtonState+0x4e>
    20ce:	44 0c       	add	r4, r4
    20d0:	55 1c       	adc	r5, r5
    20d2:	66 1c       	adc	r6, r6
    20d4:	77 1c       	adc	r7, r7
    20d6:	8a 95       	dec	r24
    20d8:	d2 f7       	brpl	.-12     	; 0x20ce <changeButtonState+0x46>
    20da:	40 94       	com	r4
    20dc:	50 94       	com	r5
    20de:	60 94       	com	r6
    20e0:	70 94       	com	r7
    20e2:	80 91 1a 27 	lds	r24, 0x271A
    20e6:	90 91 1b 27 	lds	r25, 0x271B
    20ea:	a0 91 1c 27 	lds	r26, 0x271C
    20ee:	b0 91 1d 27 	lds	r27, 0x271D
    20f2:	48 22       	and	r4, r24
    20f4:	59 22       	and	r5, r25
    20f6:	6a 22       	and	r6, r26
    20f8:	7b 22       	and	r7, r27
    20fa:	40 92 1a 27 	sts	0x271A, r4
    20fe:	50 92 1b 27 	sts	0x271B, r5
    2102:	60 92 1c 27 	sts	0x271C, r6
    2106:	70 92 1d 27 	sts	0x271D, r7
    210a:	c0 90 1e 27 	lds	r12, 0x271E
    210e:	d0 90 1f 27 	lds	r13, 0x271F
    2112:	76 01       	movw	r14, r12
    2114:	86 e0       	ldi	r24, 0x06	; 6
    2116:	e8 0e       	add	r14, r24
    2118:	f1 1c       	adc	r15, r1
    211a:	00 e0       	ldi	r16, 0x00	; 0
    211c:	10 e0       	ldi	r17, 0x00	; 0
    211e:	81 2c       	mov	r8, r1
    2120:	91 2c       	mov	r9, r1
    2122:	29 2d       	mov	r18, r9
    2124:	21 c0       	rjmp	.+66     	; 0x2168 <changeButtonState+0xe0>
    2126:	f7 01       	movw	r30, r14
    2128:	90 80       	ld	r9, Z
    212a:	99 20       	and	r9, r9
    212c:	71 f0       	breq	.+28     	; 0x214a <changeButtonState+0xc2>
    212e:	a2 2e       	mov	r10, r18
    2130:	b1 2c       	mov	r11, r1
    2132:	69 2d       	mov	r22, r9
    2134:	70 e0       	ldi	r23, 0x00	; 0
    2136:	a5 01       	movw	r20, r10
    2138:	ce 01       	movw	r24, r28
    213a:	01 96       	adiw	r24, 0x01	; 1
    213c:	2b 8b       	std	Y+19, r18	; 0x13
    213e:	0e 94 6b 2c 	call	0x58d6	; 0x58d6 <memchr>
    2142:	2b 89       	ldd	r18, Y+19	; 0x13
    2144:	89 2b       	or	r24, r25
    2146:	09 f4       	brne	.+2      	; 0x214a <changeButtonState+0xc2>
    2148:	09 c1       	rjmp	.+530    	; 0x235c <changeButtonState+0x2d4>
    214a:	f7 01       	movw	r30, r14
    214c:	31 97       	sbiw	r30, 0x01	; 1
    214e:	80 81       	ld	r24, Z
    2150:	88 2a       	or	r8, r24
    2152:	0f 30       	cpi	r16, 0x0F	; 15
    2154:	11 05       	cpc	r17, r1
    2156:	11 f1       	breq	.+68     	; 0x219c <changeButtonState+0x114>
    2158:	0f 5f       	subi	r16, 0xFF	; 255
    215a:	1f 4f       	sbci	r17, 0xFF	; 255
    215c:	89 e0       	ldi	r24, 0x09	; 9
    215e:	e8 0e       	add	r14, r24
    2160:	f1 1c       	adc	r15, r1
    2162:	26 30       	cpi	r18, 0x06	; 6
    2164:	08 f0       	brcs	.+2      	; 0x2168 <changeButtonState+0xe0>
    2166:	73 c0       	rjmp	.+230    	; 0x224e <changeButtonState+0x1c6>
    2168:	d3 01       	movw	r26, r6
    216a:	c2 01       	movw	r24, r4
    216c:	00 2e       	mov	r0, r16
    216e:	04 c0       	rjmp	.+8      	; 0x2178 <changeButtonState+0xf0>
    2170:	b6 95       	lsr	r27
    2172:	a7 95       	ror	r26
    2174:	97 95       	ror	r25
    2176:	87 95       	ror	r24
    2178:	0a 94       	dec	r0
    217a:	d2 f7       	brpl	.-12     	; 0x2170 <changeButtonState+0xe8>
    217c:	80 ff       	sbrs	r24, 0
    217e:	e9 cf       	rjmp	.-46     	; 0x2152 <changeButtonState+0xca>
    2180:	f7 01       	movw	r30, r14
    2182:	35 97       	sbiw	r30, 0x05	; 5
    2184:	81 81       	ldd	r24, Z+1	; 0x01
    2186:	83 ff       	sbrs	r24, 3
    2188:	ce cf       	rjmp	.-100    	; 0x2126 <changeButtonState+0x9e>
    218a:	87 70       	andi	r24, 0x07	; 7
    218c:	90 91 19 27 	lds	r25, 0x2719
    2190:	98 2b       	or	r25, r24
    2192:	90 93 19 27 	sts	0x2719, r25
    2196:	0f 30       	cpi	r16, 0x0F	; 15
    2198:	11 05       	cpc	r17, r1
    219a:	f1 f6       	brne	.-68     	; 0x2158 <changeButtonState+0xd0>
    219c:	92 2e       	mov	r9, r18
    219e:	f5 e0       	ldi	r31, 0x05	; 5
    21a0:	f2 17       	cp	r31, r18
    21a2:	08 f4       	brcc	.+2      	; 0x21a6 <changeButtonState+0x11e>
    21a4:	55 c0       	rjmp	.+170    	; 0x2250 <changeButtonState+0x1c8>
    21a6:	56 01       	movw	r10, r12
    21a8:	93 e9       	ldi	r25, 0x93	; 147
    21aa:	a9 0e       	add	r10, r25
    21ac:	b1 1c       	adc	r11, r1
    21ae:	f6 01       	movw	r30, r12
    21b0:	eb 56       	subi	r30, 0x6B	; 107
    21b2:	ff 4f       	sbci	r31, 0xFF	; 255
    21b4:	ef 83       	std	Y+7, r30	; 0x07
    21b6:	f8 87       	std	Y+8, r31	; 0x08
    21b8:	c6 01       	movw	r24, r12
    21ba:	89 56       	subi	r24, 0x69	; 105
    21bc:	9f 4f       	sbci	r25, 0xFF	; 255
    21be:	89 87       	std	Y+9, r24	; 0x09
    21c0:	9a 87       	std	Y+10, r25	; 0x0a
    21c2:	34 96       	adiw	r30, 0x04	; 4
    21c4:	eb 87       	std	Y+11, r30	; 0x0b
    21c6:	fc 87       	std	Y+12, r31	; 0x0c
    21c8:	42 96       	adiw	r24, 0x12	; 18
    21ca:	8d 87       	std	Y+13, r24	; 0x0d
    21cc:	9e 87       	std	Y+14, r25	; 0x0e
    21ce:	72 96       	adiw	r30, 0x12	; 18
    21d0:	ef 87       	std	Y+15, r30	; 0x0f
    21d2:	f8 8b       	std	Y+16, r31	; 0x10
    21d4:	04 96       	adiw	r24, 0x04	; 4
    21d6:	89 8b       	std	Y+17, r24	; 0x11
    21d8:	9a 8b       	std	Y+18, r25	; 0x12
    21da:	16 01       	movw	r2, r12
    21dc:	9f ea       	ldi	r25, 0xAF	; 175
    21de:	29 0e       	add	r2, r25
    21e0:	31 1c       	adc	r3, r1
    21e2:	80 e1       	ldi	r24, 0x10	; 16
    21e4:	c8 2e       	mov	r12, r24
    21e6:	d1 2c       	mov	r13, r1
    21e8:	d3 01       	movw	r26, r6
    21ea:	c2 01       	movw	r24, r4
    21ec:	0c 2c       	mov	r0, r12
    21ee:	04 c0       	rjmp	.+8      	; 0x21f8 <changeButtonState+0x170>
    21f0:	b6 95       	lsr	r27
    21f2:	a7 95       	ror	r26
    21f4:	97 95       	ror	r25
    21f6:	87 95       	ror	r24
    21f8:	0a 94       	dec	r0
    21fa:	d2 f7       	brpl	.-12     	; 0x21f0 <changeButtonState+0x168>
    21fc:	80 ff       	sbrs	r24, 0
    21fe:	1e c0       	rjmp	.+60     	; 0x223c <changeButtonState+0x1b4>
    2200:	8c 2d       	mov	r24, r12
    2202:	90 e0       	ldi	r25, 0x00	; 0
    2204:	fc 01       	movw	r30, r24
    2206:	71 97       	sbiw	r30, 0x11	; 17
    2208:	e7 30       	cpi	r30, 0x07	; 7
    220a:	f1 05       	cpc	r31, r1
    220c:	08 f4       	brcc	.+2      	; 0x2210 <changeButtonState+0x188>
    220e:	5c c0       	rjmp	.+184    	; 0x22c8 <changeButtonState+0x240>
    2210:	85 01       	movw	r16, r10
    2212:	f8 01       	movw	r30, r16
    2214:	91 80       	ldd	r9, Z+1	; 0x01
    2216:	99 20       	and	r9, r9
    2218:	71 f0       	breq	.+28     	; 0x2236 <changeButtonState+0x1ae>
    221a:	e2 2e       	mov	r14, r18
    221c:	f1 2c       	mov	r15, r1
    221e:	69 2d       	mov	r22, r9
    2220:	70 e0       	ldi	r23, 0x00	; 0
    2222:	a7 01       	movw	r20, r14
    2224:	ce 01       	movw	r24, r28
    2226:	01 96       	adiw	r24, 0x01	; 1
    2228:	2b 8b       	std	Y+19, r18	; 0x13
    222a:	0e 94 6b 2c 	call	0x58d6	; 0x58d6 <memchr>
    222e:	2b 89       	ldd	r18, Y+19	; 0x13
    2230:	89 2b       	or	r24, r25
    2232:	09 f4       	brne	.+2      	; 0x2236 <changeButtonState+0x1ae>
    2234:	8a c0       	rjmp	.+276    	; 0x234a <changeButtonState+0x2c2>
    2236:	f8 01       	movw	r30, r16
    2238:	80 81       	ld	r24, Z
    223a:	88 2a       	or	r8, r24
    223c:	f7 e1       	ldi	r31, 0x17	; 23
    223e:	cf 16       	cp	r12, r31
    2240:	d1 04       	cpc	r13, r1
    2242:	29 f0       	breq	.+10     	; 0x224e <changeButtonState+0x1c6>
    2244:	8f ef       	ldi	r24, 0xFF	; 255
    2246:	c8 1a       	sub	r12, r24
    2248:	d8 0a       	sbc	r13, r24
    224a:	26 30       	cpi	r18, 0x06	; 6
    224c:	68 f2       	brcs	.-102    	; 0x21e8 <changeButtonState+0x160>
    224e:	92 2e       	mov	r9, r18
    2250:	81 ea       	ldi	r24, 0xA1	; 161
    2252:	0e 94 4a 24 	call	0x4894	; 0x4894 <sendBTChar>
    2256:	81 e0       	ldi	r24, 0x01	; 1
    2258:	0e 94 4a 24 	call	0x4894	; 0x4894 <sendBTChar>
    225c:	80 e0       	ldi	r24, 0x00	; 0
    225e:	0e 94 4a 24 	call	0x4894	; 0x4894 <sendBTChar>
    2262:	88 2d       	mov	r24, r8
    2264:	0e 94 4a 24 	call	0x4894	; 0x4894 <sendBTChar>
    2268:	8e 01       	movw	r16, r28
    226a:	0f 5f       	subi	r16, 0xFF	; 255
    226c:	1f 4f       	sbci	r17, 0xFF	; 255
    226e:	f1 2c       	mov	r15, r1
    2270:	0a c0       	rjmp	.+20     	; 0x2286 <changeButtonState+0x1fe>
    2272:	f8 01       	movw	r30, r16
    2274:	80 81       	ld	r24, Z
    2276:	0e 94 4a 24 	call	0x4894	; 0x4894 <sendBTChar>
    227a:	f3 94       	inc	r15
    227c:	0f 5f       	subi	r16, 0xFF	; 255
    227e:	1f 4f       	sbci	r17, 0xFF	; 255
    2280:	f6 e0       	ldi	r31, 0x06	; 6
    2282:	ff 16       	cp	r15, r31
    2284:	59 f0       	breq	.+22     	; 0x229c <changeButtonState+0x214>
    2286:	f9 14       	cp	r15, r9
    2288:	a0 f3       	brcs	.-24     	; 0x2272 <changeButtonState+0x1ea>
    228a:	80 e0       	ldi	r24, 0x00	; 0
    228c:	0e 94 4a 24 	call	0x4894	; 0x4894 <sendBTChar>
    2290:	f3 94       	inc	r15
    2292:	0f 5f       	subi	r16, 0xFF	; 255
    2294:	1f 4f       	sbci	r17, 0xFF	; 255
    2296:	f6 e0       	ldi	r31, 0x06	; 6
    2298:	ff 12       	cpse	r15, r31
    229a:	f5 cf       	rjmp	.-22     	; 0x2286 <changeButtonState+0x1fe>
    229c:	63 96       	adiw	r28, 0x13	; 19
    229e:	cd bf       	out	0x3d, r28	; 61
    22a0:	de bf       	out	0x3e, r29	; 62
    22a2:	df 91       	pop	r29
    22a4:	cf 91       	pop	r28
    22a6:	1f 91       	pop	r17
    22a8:	0f 91       	pop	r16
    22aa:	ff 90       	pop	r15
    22ac:	ef 90       	pop	r14
    22ae:	df 90       	pop	r13
    22b0:	cf 90       	pop	r12
    22b2:	bf 90       	pop	r11
    22b4:	af 90       	pop	r10
    22b6:	9f 90       	pop	r9
    22b8:	8f 90       	pop	r8
    22ba:	7f 90       	pop	r7
    22bc:	6f 90       	pop	r6
    22be:	5f 90       	pop	r5
    22c0:	4f 90       	pop	r4
    22c2:	3f 90       	pop	r3
    22c4:	2f 90       	pop	r2
    22c6:	08 95       	ret
    22c8:	ef 5f       	subi	r30, 0xFF	; 255
    22ca:	fe 4f       	sbci	r31, 0xFE	; 254
    22cc:	0c 94 36 2c 	jmp	0x586c	; 0x586c <__tablejump2__>
    22d0:	0f 85       	ldd	r16, Y+15	; 0x0f
    22d2:	18 89       	ldd	r17, Y+16	; 0x10
    22d4:	9e cf       	rjmp	.-196    	; 0x2212 <changeButtonState+0x18a>
    22d6:	0d 85       	ldd	r16, Y+13	; 0x0d
    22d8:	1e 85       	ldd	r17, Y+14	; 0x0e
    22da:	9b cf       	rjmp	.-202    	; 0x2212 <changeButtonState+0x18a>
    22dc:	0b 85       	ldd	r16, Y+11	; 0x0b
    22de:	1c 85       	ldd	r17, Y+12	; 0x0c
    22e0:	98 cf       	rjmp	.-208    	; 0x2212 <changeButtonState+0x18a>
    22e2:	09 85       	ldd	r16, Y+9	; 0x09
    22e4:	1a 85       	ldd	r17, Y+10	; 0x0a
    22e6:	95 cf       	rjmp	.-214    	; 0x2212 <changeButtonState+0x18a>
    22e8:	0f 81       	ldd	r16, Y+7	; 0x07
    22ea:	18 85       	ldd	r17, Y+8	; 0x08
    22ec:	92 cf       	rjmp	.-220    	; 0x2212 <changeButtonState+0x18a>
    22ee:	09 89       	ldd	r16, Y+17	; 0x11
    22f0:	1a 89       	ldd	r17, Y+18	; 0x12
    22f2:	8f cf       	rjmp	.-226    	; 0x2212 <changeButtonState+0x18a>
    22f4:	81 01       	movw	r16, r2
    22f6:	8d cf       	rjmp	.-230    	; 0x2212 <changeButtonState+0x18a>
    22f8:	41 2c       	mov	r4, r1
    22fa:	51 2c       	mov	r5, r1
    22fc:	32 01       	movw	r6, r4
    22fe:	43 94       	inc	r4
    2300:	04 c0       	rjmp	.+8      	; 0x230a <changeButtonState+0x282>
    2302:	44 0c       	add	r4, r4
    2304:	55 1c       	adc	r5, r5
    2306:	66 1c       	adc	r6, r6
    2308:	77 1c       	adc	r7, r7
    230a:	8a 95       	dec	r24
    230c:	d2 f7       	brpl	.-12     	; 0x2302 <changeButtonState+0x27a>
    230e:	80 91 1a 27 	lds	r24, 0x271A
    2312:	90 91 1b 27 	lds	r25, 0x271B
    2316:	a0 91 1c 27 	lds	r26, 0x271C
    231a:	b0 91 1d 27 	lds	r27, 0x271D
    231e:	48 2a       	or	r4, r24
    2320:	59 2a       	or	r5, r25
    2322:	6a 2a       	or	r6, r26
    2324:	7b 2a       	or	r7, r27
    2326:	40 92 1a 27 	sts	0x271A, r4
    232a:	50 92 1b 27 	sts	0x271B, r5
    232e:	60 92 1c 27 	sts	0x271C, r6
    2332:	70 92 1d 27 	sts	0x271D, r7
    2336:	e9 ce       	rjmp	.-558    	; 0x210a <changeButtonState+0x82>
    2338:	40 90 1a 27 	lds	r4, 0x271A
    233c:	50 90 1b 27 	lds	r5, 0x271B
    2340:	60 90 1c 27 	lds	r6, 0x271C
    2344:	70 90 1d 27 	lds	r7, 0x271D
    2348:	e0 ce       	rjmp	.-576    	; 0x210a <changeButtonState+0x82>
    234a:	e1 e0       	ldi	r30, 0x01	; 1
    234c:	f0 e0       	ldi	r31, 0x00	; 0
    234e:	ec 0f       	add	r30, r28
    2350:	fd 1f       	adc	r31, r29
    2352:	ee 0d       	add	r30, r14
    2354:	ff 1d       	adc	r31, r15
    2356:	90 82       	st	Z, r9
    2358:	2f 5f       	subi	r18, 0xFF	; 255
    235a:	6d cf       	rjmp	.-294    	; 0x2236 <changeButtonState+0x1ae>
    235c:	e1 e0       	ldi	r30, 0x01	; 1
    235e:	f0 e0       	ldi	r31, 0x00	; 0
    2360:	ec 0f       	add	r30, r28
    2362:	fd 1f       	adc	r31, r29
    2364:	ea 0d       	add	r30, r10
    2366:	fb 1d       	adc	r31, r11
    2368:	90 82       	st	Z, r9
    236a:	2f 5f       	subi	r18, 0xFF	; 255
    236c:	ee ce       	rjmp	.-548    	; 0x214a <changeButtonState+0xc2>

0000236e <keyboadMouseButtonHandler>:
    236e:	8c ce       	rjmp	.-744    	; 0x2088 <changeButtonState>

00002370 <keyboardMouseJoystickHandler>:
    2370:	ff 92       	push	r15
    2372:	0f 93       	push	r16
    2374:	1f 93       	push	r17
    2376:	cf 93       	push	r28
    2378:	df 93       	push	r29
    237a:	cd b7       	in	r28, 0x3d	; 61
    237c:	de b7       	in	r29, 0x3e	; 62
    237e:	2c 97       	sbiw	r28, 0x0c	; 12
    2380:	cd bf       	out	0x3d, r28	; 61
    2382:	de bf       	out	0x3e, r29	; 62
    2384:	19 86       	std	Y+9, r1	; 0x09
    2386:	1a 86       	std	Y+10, r1	; 0x0a
    2388:	1b 86       	std	Y+11, r1	; 0x0b
    238a:	1c 86       	std	Y+12, r1	; 0x0c
    238c:	6d 83       	std	Y+5, r22	; 0x05
    238e:	7e 83       	std	Y+6, r23	; 0x06
    2390:	4f 83       	std	Y+7, r20	; 0x07
    2392:	58 87       	std	Y+8, r21	; 0x08
    2394:	08 2f       	mov	r16, r24
    2396:	10 e0       	ldi	r17, 0x00	; 0
    2398:	26 e1       	ldi	r18, 0x16	; 22
    239a:	82 9f       	mul	r24, r18
    239c:	c0 01       	movw	r24, r0
    239e:	11 24       	eor	r1, r1
    23a0:	8f 56       	subi	r24, 0x6F	; 111
    23a2:	9f 4f       	sbci	r25, 0xFF	; 255
    23a4:	60 91 1e 27 	lds	r22, 0x271E
    23a8:	70 91 1f 27 	lds	r23, 0x271F
    23ac:	68 0f       	add	r22, r24
    23ae:	79 1f       	adc	r23, r25
    23b0:	fb 01       	movw	r30, r22
    23b2:	80 81       	ld	r24, Z
    23b4:	86 fd       	sbrc	r24, 6
    23b6:	6d c0       	rjmp	.+218    	; 0x2492 <keyboardMouseJoystickHandler+0x122>
    23b8:	f8 01       	movw	r30, r16
    23ba:	ee 0f       	add	r30, r30
    23bc:	ff 1f       	adc	r31, r31
    23be:	ed 5b       	subi	r30, 0xBD	; 189
    23c0:	fe 4d       	sbci	r31, 0xDE	; 222
    23c2:	9e 01       	movw	r18, r28
    23c4:	27 5f       	subi	r18, 0xF7	; 247
    23c6:	3f 4f       	sbci	r19, 0xFF	; 255
    23c8:	ae 01       	movw	r20, r28
    23ca:	4b 5f       	subi	r20, 0xFB	; 251
    23cc:	5f 4f       	sbci	r21, 0xFF	; 255
    23ce:	80 81       	ld	r24, Z
    23d0:	91 81       	ldd	r25, Z+1	; 0x01
    23d2:	9e d2       	rcall	.+1340   	; 0x2910 <MouseJoystickAdj>
    23d4:	89 85       	ldd	r24, Y+9	; 0x09
    23d6:	9a 85       	ldd	r25, Y+10	; 0x0a
    23d8:	00 97       	sbiw	r24, 0x00	; 0
    23da:	09 f0       	breq	.+2      	; 0x23de <keyboardMouseJoystickHandler+0x6e>
    23dc:	96 c0       	rjmp	.+300    	; 0x250a <keyboardMouseJoystickHandler+0x19a>
    23de:	20 e0       	ldi	r18, 0x00	; 0
    23e0:	30 e0       	ldi	r19, 0x00	; 0
    23e2:	8b 85       	ldd	r24, Y+11	; 0x0b
    23e4:	9c 85       	ldd	r25, Y+12	; 0x0c
    23e6:	00 97       	sbiw	r24, 0x00	; 0
    23e8:	31 f0       	breq	.+12     	; 0x23f6 <keyboardMouseJoystickHandler+0x86>
    23ea:	6e e6       	ldi	r22, 0x6E	; 110
    23ec:	70 e0       	ldi	r23, 0x00	; 0
    23ee:	0e 94 e5 2b 	call	0x57ca	; 0x57ca <__divmodhi4>
    23f2:	6b 87       	std	Y+11, r22	; 0x0b
    23f4:	7c 87       	std	Y+12, r23	; 0x0c
    23f6:	23 2b       	or	r18, r19
    23f8:	51 f4       	brne	.+20     	; 0x240e <keyboardMouseJoystickHandler+0x9e>
    23fa:	8b 85       	ldd	r24, Y+11	; 0x0b
    23fc:	9c 85       	ldd	r25, Y+12	; 0x0c
    23fe:	89 2b       	or	r24, r25
    2400:	31 f4       	brne	.+12     	; 0x240e <keyboardMouseJoystickHandler+0x9e>
    2402:	90 91 19 27 	lds	r25, 0x2719
    2406:	80 91 0c 27 	lds	r24, 0x270C
    240a:	98 17       	cp	r25, r24
    240c:	c9 f1       	breq	.+114    	; 0x2480 <keyboardMouseJoystickHandler+0x110>
    240e:	81 e1       	ldi	r24, 0x11	; 17
    2410:	97 e2       	ldi	r25, 0x27	; 39
    2412:	c3 d4       	rcall	.+2438   	; 0x2d9a <checkTimeout>
    2414:	88 23       	and	r24, r24
    2416:	a1 f1       	breq	.+104    	; 0x2480 <keyboardMouseJoystickHandler+0x110>
    2418:	44 e1       	ldi	r20, 0x14	; 20
    241a:	50 e0       	ldi	r21, 0x00	; 0
    241c:	60 e0       	ldi	r22, 0x00	; 0
    241e:	70 e0       	ldi	r23, 0x00	; 0
    2420:	81 e1       	ldi	r24, 0x11	; 17
    2422:	97 e2       	ldi	r25, 0x27	; 39
    2424:	a1 d4       	rcall	.+2370   	; 0x2d68 <startTimeout>
    2426:	80 91 19 27 	lds	r24, 0x2719
    242a:	80 93 0c 27 	sts	0x270C, r24
    242e:	81 ea       	ldi	r24, 0xA1	; 161
    2430:	0e 94 4a 24 	call	0x4894	; 0x4894 <sendBTChar>
    2434:	83 e0       	ldi	r24, 0x03	; 3
    2436:	0e 94 4a 24 	call	0x4894	; 0x4894 <sendBTChar>
    243a:	80 91 19 27 	lds	r24, 0x2719
    243e:	0e 94 4a 24 	call	0x4894	; 0x4894 <sendBTChar>
    2442:	89 85       	ldd	r24, Y+9	; 0x09
    2444:	0e 94 4a 24 	call	0x4894	; 0x4894 <sendBTChar>
    2448:	2a 85       	ldd	r18, Y+10	; 0x0a
    244a:	2f 70       	andi	r18, 0x0F	; 15
    244c:	8b 85       	ldd	r24, Y+11	; 0x0b
    244e:	9c 85       	ldd	r25, Y+12	; 0x0c
    2450:	82 95       	swap	r24
    2452:	92 95       	swap	r25
    2454:	90 7f       	andi	r25, 0xF0	; 240
    2456:	98 27       	eor	r25, r24
    2458:	80 7f       	andi	r24, 0xF0	; 240
    245a:	98 27       	eor	r25, r24
    245c:	82 2b       	or	r24, r18
    245e:	0e 94 4a 24 	call	0x4894	; 0x4894 <sendBTChar>
    2462:	8b 85       	ldd	r24, Y+11	; 0x0b
    2464:	9c 85       	ldd	r25, Y+12	; 0x0c
    2466:	95 95       	asr	r25
    2468:	87 95       	ror	r24
    246a:	95 95       	asr	r25
    246c:	87 95       	ror	r24
    246e:	95 95       	asr	r25
    2470:	87 95       	ror	r24
    2472:	95 95       	asr	r25
    2474:	87 95       	ror	r24
    2476:	0e 94 4a 24 	call	0x4894	; 0x4894 <sendBTChar>
    247a:	80 e0       	ldi	r24, 0x00	; 0
    247c:	0e 94 4a 24 	call	0x4894	; 0x4894 <sendBTChar>
    2480:	2c 96       	adiw	r28, 0x0c	; 12
    2482:	cd bf       	out	0x3d, r28	; 61
    2484:	de bf       	out	0x3e, r29	; 62
    2486:	df 91       	pop	r29
    2488:	cf 91       	pop	r28
    248a:	1f 91       	pop	r17
    248c:	0f 91       	pop	r16
    248e:	ff 90       	pop	r15
    2490:	08 95       	ret
    2492:	c8 01       	movw	r24, r16
    2494:	04 96       	adiw	r24, 0x04	; 4
    2496:	f8 2e       	mov	r15, r24
    2498:	ff 0c       	add	r15, r15
    249a:	ff 0c       	add	r15, r15
    249c:	6e 5e       	subi	r22, 0xEE	; 238
    249e:	7f 4f       	sbci	r23, 0xFF	; 255
    24a0:	f8 01       	movw	r30, r16
    24a2:	ee 0f       	add	r30, r30
    24a4:	ff 1f       	adc	r31, r31
    24a6:	ed 5b       	subi	r30, 0xBD	; 189
    24a8:	fe 4d       	sbci	r31, 0xDE	; 222
    24aa:	9e 01       	movw	r18, r28
    24ac:	2f 5f       	subi	r18, 0xFF	; 255
    24ae:	3f 4f       	sbci	r19, 0xFF	; 255
    24b0:	ae 01       	movw	r20, r28
    24b2:	4b 5f       	subi	r20, 0xFB	; 251
    24b4:	5f 4f       	sbci	r21, 0xFF	; 255
    24b6:	80 81       	ld	r24, Z
    24b8:	91 81       	ldd	r25, Z+1	; 0x01
    24ba:	14 d1       	rcall	.+552    	; 0x26e4 <SimpleJoystickAdj>
    24bc:	f8 01       	movw	r30, r16
    24be:	e1 5f       	subi	r30, 0xF1	; 241
    24c0:	f8 4d       	sbci	r31, 0xD8	; 216
    24c2:	80 81       	ld	r24, Z
    24c4:	83 30       	cpi	r24, 0x03	; 3
    24c6:	49 f1       	breq	.+82     	; 0x251a <keyboardMouseJoystickHandler+0x1aa>
    24c8:	84 30       	cpi	r24, 0x04	; 4
    24ca:	09 f4       	brne	.+2      	; 0x24ce <keyboardMouseJoystickHandler+0x15e>
    24cc:	3d c0       	rjmp	.+122    	; 0x2548 <keyboardMouseJoystickHandler+0x1d8>
    24ce:	82 30       	cpi	r24, 0x02	; 2
    24d0:	81 f1       	breq	.+96     	; 0x2532 <keyboardMouseJoystickHandler+0x1c2>
    24d2:	84 e0       	ldi	r24, 0x04	; 4
    24d4:	80 83       	st	Z, r24
    24d6:	f8 01       	movw	r30, r16
    24d8:	e3 5f       	subi	r30, 0xF3	; 243
    24da:	f8 4d       	sbci	r31, 0xD8	; 216
    24dc:	80 81       	ld	r24, Z
    24de:	81 30       	cpi	r24, 0x01	; 1
    24e0:	09 f4       	brne	.+2      	; 0x24e4 <keyboardMouseJoystickHandler+0x174>
    24e2:	3f c0       	rjmp	.+126    	; 0x2562 <keyboardMouseJoystickHandler+0x1f2>
    24e4:	08 f4       	brcc	.+2      	; 0x24e8 <keyboardMouseJoystickHandler+0x178>
    24e6:	4c c0       	rjmp	.+152    	; 0x2580 <keyboardMouseJoystickHandler+0x210>
    24e8:	84 30       	cpi	r24, 0x04	; 4
    24ea:	09 f0       	breq	.+2      	; 0x24ee <keyboardMouseJoystickHandler+0x17e>
    24ec:	46 c0       	rjmp	.+140    	; 0x257a <keyboardMouseJoystickHandler+0x20a>
    24ee:	2b 81       	ldd	r18, Y+3	; 0x03
    24f0:	3c 81       	ldd	r19, Y+4	; 0x04
    24f2:	37 fd       	sbrc	r19, 7
    24f4:	55 c0       	rjmp	.+170    	; 0x25a0 <keyboardMouseJoystickHandler+0x230>
    24f6:	23 2b       	or	r18, r19
    24f8:	29 f0       	breq	.+10     	; 0x2504 <keyboardMouseJoystickHandler+0x194>
    24fa:	81 e0       	ldi	r24, 0x01	; 1
    24fc:	80 83       	st	Z, r24
    24fe:	61 e0       	ldi	r22, 0x01	; 1
    2500:	8f 0d       	add	r24, r15
    2502:	c2 dd       	rcall	.-1148   	; 0x2088 <changeButtonState>
    2504:	29 85       	ldd	r18, Y+9	; 0x09
    2506:	3a 85       	ldd	r19, Y+10	; 0x0a
    2508:	76 cf       	rjmp	.-276    	; 0x23f6 <keyboardMouseJoystickHandler+0x86>
    250a:	6e e6       	ldi	r22, 0x6E	; 110
    250c:	70 e0       	ldi	r23, 0x00	; 0
    250e:	0e 94 e5 2b 	call	0x57ca	; 0x57ca <__divmodhi4>
    2512:	69 87       	std	Y+9, r22	; 0x09
    2514:	7a 87       	std	Y+10, r23	; 0x0a
    2516:	9b 01       	movw	r18, r22
    2518:	64 cf       	rjmp	.-312    	; 0x23e2 <keyboardMouseJoystickHandler+0x72>
    251a:	89 81       	ldd	r24, Y+1	; 0x01
    251c:	9a 81       	ldd	r25, Y+2	; 0x02
    251e:	18 16       	cp	r1, r24
    2520:	19 06       	cpc	r1, r25
    2522:	cc f2       	brlt	.-78     	; 0x24d6 <keyboardMouseJoystickHandler+0x166>
    2524:	84 e0       	ldi	r24, 0x04	; 4
    2526:	80 83       	st	Z, r24
    2528:	60 e0       	ldi	r22, 0x00	; 0
    252a:	83 e0       	ldi	r24, 0x03	; 3
    252c:	8f 0d       	add	r24, r15
    252e:	ac dd       	rcall	.-1192   	; 0x2088 <changeButtonState>
    2530:	d2 cf       	rjmp	.-92     	; 0x24d6 <keyboardMouseJoystickHandler+0x166>
    2532:	89 81       	ldd	r24, Y+1	; 0x01
    2534:	9a 81       	ldd	r25, Y+2	; 0x02
    2536:	97 fd       	sbrc	r25, 7
    2538:	ce cf       	rjmp	.-100    	; 0x24d6 <keyboardMouseJoystickHandler+0x166>
    253a:	84 e0       	ldi	r24, 0x04	; 4
    253c:	80 83       	st	Z, r24
    253e:	60 e0       	ldi	r22, 0x00	; 0
    2540:	82 e0       	ldi	r24, 0x02	; 2
    2542:	8f 0d       	add	r24, r15
    2544:	a1 dd       	rcall	.-1214   	; 0x2088 <changeButtonState>
    2546:	c7 cf       	rjmp	.-114    	; 0x24d6 <keyboardMouseJoystickHandler+0x166>
    2548:	89 81       	ldd	r24, Y+1	; 0x01
    254a:	9a 81       	ldd	r25, Y+2	; 0x02
    254c:	97 fd       	sbrc	r25, 7
    254e:	22 c0       	rjmp	.+68     	; 0x2594 <keyboardMouseJoystickHandler+0x224>
    2550:	89 2b       	or	r24, r25
    2552:	09 f4       	brne	.+2      	; 0x2556 <keyboardMouseJoystickHandler+0x1e6>
    2554:	c0 cf       	rjmp	.-128    	; 0x24d6 <keyboardMouseJoystickHandler+0x166>
    2556:	83 e0       	ldi	r24, 0x03	; 3
    2558:	80 83       	st	Z, r24
    255a:	61 e0       	ldi	r22, 0x01	; 1
    255c:	8f 0d       	add	r24, r15
    255e:	94 dd       	rcall	.-1240   	; 0x2088 <changeButtonState>
    2560:	ba cf       	rjmp	.-140    	; 0x24d6 <keyboardMouseJoystickHandler+0x166>
    2562:	8b 81       	ldd	r24, Y+3	; 0x03
    2564:	9c 81       	ldd	r25, Y+4	; 0x04
    2566:	18 16       	cp	r1, r24
    2568:	19 06       	cpc	r1, r25
    256a:	64 f2       	brlt	.-104    	; 0x2504 <keyboardMouseJoystickHandler+0x194>
    256c:	84 e0       	ldi	r24, 0x04	; 4
    256e:	80 83       	st	Z, r24
    2570:	60 e0       	ldi	r22, 0x00	; 0
    2572:	81 e0       	ldi	r24, 0x01	; 1
    2574:	8f 0d       	add	r24, r15
    2576:	88 dd       	rcall	.-1264   	; 0x2088 <changeButtonState>
    2578:	c5 cf       	rjmp	.-118    	; 0x2504 <keyboardMouseJoystickHandler+0x194>
    257a:	84 e0       	ldi	r24, 0x04	; 4
    257c:	80 83       	st	Z, r24
    257e:	c2 cf       	rjmp	.-124    	; 0x2504 <keyboardMouseJoystickHandler+0x194>
    2580:	8b 81       	ldd	r24, Y+3	; 0x03
    2582:	9c 81       	ldd	r25, Y+4	; 0x04
    2584:	97 fd       	sbrc	r25, 7
    2586:	be cf       	rjmp	.-132    	; 0x2504 <keyboardMouseJoystickHandler+0x194>
    2588:	84 e0       	ldi	r24, 0x04	; 4
    258a:	80 83       	st	Z, r24
    258c:	60 e0       	ldi	r22, 0x00	; 0
    258e:	8f 2d       	mov	r24, r15
    2590:	7b dd       	rcall	.-1290   	; 0x2088 <changeButtonState>
    2592:	b8 cf       	rjmp	.-144    	; 0x2504 <keyboardMouseJoystickHandler+0x194>
    2594:	82 e0       	ldi	r24, 0x02	; 2
    2596:	80 83       	st	Z, r24
    2598:	61 e0       	ldi	r22, 0x01	; 1
    259a:	8f 0d       	add	r24, r15
    259c:	75 dd       	rcall	.-1302   	; 0x2088 <changeButtonState>
    259e:	9b cf       	rjmp	.-202    	; 0x24d6 <keyboardMouseJoystickHandler+0x166>
    25a0:	10 82       	st	Z, r1
    25a2:	61 e0       	ldi	r22, 0x01	; 1
    25a4:	8f 2d       	mov	r24, r15
    25a6:	70 dd       	rcall	.-1312   	; 0x2088 <changeButtonState>
    25a8:	ad cf       	rjmp	.-166    	; 0x2504 <keyboardMouseJoystickHandler+0x194>

000025aa <setupDbg>:
    25aa:	0f 93       	push	r16
    25ac:	1f 93       	push	r17
    25ae:	cf 93       	push	r28
    25b0:	df 93       	push	r29
    25b2:	cd b7       	in	r28, 0x3d	; 61
    25b4:	de b7       	in	r29, 0x3e	; 62
    25b6:	27 97       	sbiw	r28, 0x07	; 7
    25b8:	cd bf       	out	0x3d, r28	; 61
    25ba:	de bf       	out	0x3e, r29	; 62
    25bc:	87 e0       	ldi	r24, 0x07	; 7
    25be:	ed e7       	ldi	r30, 0x7D	; 125
    25c0:	f0 e2       	ldi	r31, 0x20	; 32
    25c2:	de 01       	movw	r26, r28
    25c4:	11 96       	adiw	r26, 0x01	; 1
    25c6:	01 90       	ld	r0, Z+
    25c8:	0d 92       	st	X+, r0
    25ca:	8a 95       	dec	r24
    25cc:	e1 f7       	brne	.-8      	; 0x25c6 <setupDbg+0x1c>
    25ce:	60 e1       	ldi	r22, 0x10	; 16
    25d0:	84 e0       	ldi	r24, 0x04	; 4
    25d2:	4f d6       	rcall	.+3230   	; 0x3272 <sysclk_enable_module>
    25d4:	e0 e1       	ldi	r30, 0x10	; 16
    25d6:	f2 e0       	ldi	r31, 0x02	; 2
    25d8:	e4 91       	lpm	r30, Z
    25da:	f0 e0       	ldi	r31, 0x00	; 0
    25dc:	60 81       	ld	r22, Z
    25de:	66 23       	and	r22, r22
    25e0:	61 f0       	breq	.+24     	; 0x25fa <setupDbg+0x50>
    25e2:	8f 01       	movw	r16, r30
    25e4:	0f 5f       	subi	r16, 0xFF	; 255
    25e6:	1f 4f       	sbci	r17, 0xFF	; 255
    25e8:	80 ea       	ldi	r24, 0xA0	; 160
    25ea:	99 e0       	ldi	r25, 0x09	; 9
    25ec:	0e 94 49 22 	call	0x4492	; 0x4492 <usart_putchar>
    25f0:	f8 01       	movw	r30, r16
    25f2:	61 91       	ld	r22, Z+
    25f4:	8f 01       	movw	r16, r30
    25f6:	61 11       	cpse	r22, r1
    25f8:	f7 cf       	rjmp	.-18     	; 0x25e8 <setupDbg+0x3e>
    25fa:	ec d5       	rcall	.+3032   	; 0x31d4 <WatchdogPet>
    25fc:	be 01       	movw	r22, r28
    25fe:	6f 5f       	subi	r22, 0xFF	; 255
    2600:	7f 4f       	sbci	r23, 0xFF	; 255
    2602:	80 ea       	ldi	r24, 0xA0	; 160
    2604:	99 e0       	ldi	r25, 0x09	; 9
    2606:	0e 94 a2 20 	call	0x4144	; 0x4144 <usart_init_rs232>
    260a:	81 11       	cpse	r24, r1
    260c:	25 c0       	rjmp	.+74     	; 0x2658 <setupDbg+0xae>
    260e:	e2 e2       	ldi	r30, 0x22	; 34
    2610:	f2 e0       	ldi	r31, 0x02	; 2
    2612:	e4 91       	lpm	r30, Z
    2614:	f0 e0       	ldi	r31, 0x00	; 0
    2616:	60 81       	ld	r22, Z
    2618:	66 23       	and	r22, r22
    261a:	61 f0       	breq	.+24     	; 0x2634 <setupDbg+0x8a>
    261c:	8f 01       	movw	r16, r30
    261e:	0f 5f       	subi	r16, 0xFF	; 255
    2620:	1f 4f       	sbci	r17, 0xFF	; 255
    2622:	80 ea       	ldi	r24, 0xA0	; 160
    2624:	99 e0       	ldi	r25, 0x09	; 9
    2626:	0e 94 49 22 	call	0x4492	; 0x4492 <usart_putchar>
    262a:	f8 01       	movw	r30, r16
    262c:	61 91       	ld	r22, Z+
    262e:	8f 01       	movw	r16, r30
    2630:	61 11       	cpse	r22, r1
    2632:	f7 cf       	rjmp	.-18     	; 0x2622 <setupDbg+0x78>
    2634:	6d e0       	ldi	r22, 0x0D	; 13
    2636:	80 ea       	ldi	r24, 0xA0	; 160
    2638:	99 e0       	ldi	r25, 0x09	; 9
    263a:	0e 94 49 22 	call	0x4492	; 0x4492 <usart_putchar>
    263e:	6a e0       	ldi	r22, 0x0A	; 10
    2640:	80 ea       	ldi	r24, 0xA0	; 160
    2642:	99 e0       	ldi	r25, 0x09	; 9
    2644:	0e 94 49 22 	call	0x4492	; 0x4492 <usart_putchar>
    2648:	27 96       	adiw	r28, 0x07	; 7
    264a:	cd bf       	out	0x3d, r28	; 61
    264c:	de bf       	out	0x3e, r29	; 62
    264e:	df 91       	pop	r29
    2650:	cf 91       	pop	r28
    2652:	1f 91       	pop	r17
    2654:	0f 91       	pop	r16
    2656:	08 95       	ret
    2658:	e6 e2       	ldi	r30, 0x26	; 38
    265a:	f2 e0       	ldi	r31, 0x02	; 2
    265c:	e4 91       	lpm	r30, Z
    265e:	f0 e0       	ldi	r31, 0x00	; 0
    2660:	60 81       	ld	r22, Z
    2662:	66 23       	and	r22, r22
    2664:	39 f3       	breq	.-50     	; 0x2634 <setupDbg+0x8a>
    2666:	8f 01       	movw	r16, r30
    2668:	0f 5f       	subi	r16, 0xFF	; 255
    266a:	1f 4f       	sbci	r17, 0xFF	; 255
    266c:	80 ea       	ldi	r24, 0xA0	; 160
    266e:	99 e0       	ldi	r25, 0x09	; 9
    2670:	0e 94 49 22 	call	0x4492	; 0x4492 <usart_putchar>
    2674:	f8 01       	movw	r30, r16
    2676:	61 91       	ld	r22, Z+
    2678:	8f 01       	movw	r16, r30
    267a:	61 11       	cpse	r22, r1
    267c:	f7 cf       	rjmp	.-18     	; 0x266c <setupDbg+0xc2>
    267e:	da cf       	rjmp	.-76     	; 0x2634 <setupDbg+0x8a>

00002680 <sendDBGChar>:
    2680:	68 2f       	mov	r22, r24
    2682:	80 ea       	ldi	r24, 0xA0	; 160
    2684:	99 e0       	ldi	r25, 0x09	; 9
    2686:	0c 94 49 22 	jmp	0x4492	; 0x4492 <usart_putchar>

0000268a <sendDBGString>:
    268a:	cf 93       	push	r28
    268c:	df 93       	push	r29
    268e:	fc 01       	movw	r30, r24
    2690:	60 81       	ld	r22, Z
    2692:	66 23       	and	r22, r22
    2694:	49 f0       	breq	.+18     	; 0x26a8 <sendDBGString+0x1e>
    2696:	ec 01       	movw	r28, r24
    2698:	21 96       	adiw	r28, 0x01	; 1
    269a:	80 ea       	ldi	r24, 0xA0	; 160
    269c:	99 e0       	ldi	r25, 0x09	; 9
    269e:	0e 94 49 22 	call	0x4492	; 0x4492 <usart_putchar>
    26a2:	69 91       	ld	r22, Y+
    26a4:	61 11       	cpse	r22, r1
    26a6:	f9 cf       	rjmp	.-14     	; 0x269a <sendDBGString+0x10>
    26a8:	df 91       	pop	r29
    26aa:	cf 91       	pop	r28
    26ac:	08 95       	ret

000026ae <sendDBGLine>:
    26ae:	cf 93       	push	r28
    26b0:	df 93       	push	r29
    26b2:	fc 01       	movw	r30, r24
    26b4:	60 81       	ld	r22, Z
    26b6:	66 23       	and	r22, r22
    26b8:	49 f0       	breq	.+18     	; 0x26cc <sendDBGLine+0x1e>
    26ba:	ec 01       	movw	r28, r24
    26bc:	21 96       	adiw	r28, 0x01	; 1
    26be:	80 ea       	ldi	r24, 0xA0	; 160
    26c0:	99 e0       	ldi	r25, 0x09	; 9
    26c2:	0e 94 49 22 	call	0x4492	; 0x4492 <usart_putchar>
    26c6:	69 91       	ld	r22, Y+
    26c8:	61 11       	cpse	r22, r1
    26ca:	f9 cf       	rjmp	.-14     	; 0x26be <sendDBGLine+0x10>
    26cc:	6d e0       	ldi	r22, 0x0D	; 13
    26ce:	80 ea       	ldi	r24, 0xA0	; 160
    26d0:	99 e0       	ldi	r25, 0x09	; 9
    26d2:	0e 94 49 22 	call	0x4492	; 0x4492 <usart_putchar>
    26d6:	6a e0       	ldi	r22, 0x0A	; 10
    26d8:	80 ea       	ldi	r24, 0xA0	; 160
    26da:	99 e0       	ldi	r25, 0x09	; 9
    26dc:	df 91       	pop	r29
    26de:	cf 91       	pop	r28
    26e0:	0c 94 49 22 	jmp	0x4492	; 0x4492 <usart_putchar>

000026e4 <SimpleJoystickAdj>:
    26e4:	cf 93       	push	r28
    26e6:	df 93       	push	r29
    26e8:	ea 01       	movw	r28, r20
    26ea:	a8 81       	ld	r26, Y
    26ec:	b9 81       	ldd	r27, Y+1	; 0x01
    26ee:	ec 01       	movw	r28, r24
    26f0:	e8 81       	ld	r30, Y
    26f2:	f9 81       	ldd	r31, Y+1	; 0x01
    26f4:	ea 01       	movw	r28, r20
    26f6:	4a 81       	ldd	r20, Y+2	; 0x02
    26f8:	5b 81       	ldd	r21, Y+3	; 0x03
    26fa:	ec 01       	movw	r28, r24
    26fc:	8a 81       	ldd	r24, Y+2	; 0x02
    26fe:	9b 81       	ldd	r25, Y+3	; 0x03
    2700:	ea 1b       	sub	r30, r26
    2702:	fb 0b       	sbc	r31, r27
    2704:	84 1b       	sub	r24, r20
    2706:	95 0b       	sbc	r25, r21
    2708:	af 01       	movw	r20, r30
    270a:	f7 fd       	sbrc	r31, 7
    270c:	29 c0       	rjmp	.+82     	; 0x2760 <SimpleJoystickAdj+0x7c>
    270e:	51 95       	neg	r21
    2710:	41 95       	neg	r20
    2712:	51 09       	sbc	r21, r1
    2714:	eb 01       	movw	r28, r22
    2716:	a8 81       	ld	r26, Y
    2718:	b9 81       	ldd	r27, Y+1	; 0x01
    271a:	b1 95       	neg	r27
    271c:	a1 95       	neg	r26
    271e:	b1 09       	sbc	r27, r1
    2720:	a4 17       	cp	r26, r20
    2722:	b5 07       	cpc	r27, r21
    2724:	14 f4       	brge	.+4      	; 0x272a <SimpleJoystickAdj+0x46>
    2726:	e0 e0       	ldi	r30, 0x00	; 0
    2728:	f0 e0       	ldi	r31, 0x00	; 0
    272a:	ac 01       	movw	r20, r24
    272c:	97 fd       	sbrc	r25, 7
    272e:	1d c0       	rjmp	.+58     	; 0x276a <SimpleJoystickAdj+0x86>
    2730:	51 95       	neg	r21
    2732:	41 95       	neg	r20
    2734:	51 09       	sbc	r21, r1
    2736:	db 01       	movw	r26, r22
    2738:	12 96       	adiw	r26, 0x02	; 2
    273a:	6d 91       	ld	r22, X+
    273c:	7c 91       	ld	r23, X
    273e:	13 97       	sbiw	r26, 0x03	; 3
    2740:	71 95       	neg	r23
    2742:	61 95       	neg	r22
    2744:	71 09       	sbc	r23, r1
    2746:	64 17       	cp	r22, r20
    2748:	75 07       	cpc	r23, r21
    274a:	14 f4       	brge	.+4      	; 0x2750 <SimpleJoystickAdj+0x6c>
    274c:	80 e0       	ldi	r24, 0x00	; 0
    274e:	90 e0       	ldi	r25, 0x00	; 0
    2750:	e9 01       	movw	r28, r18
    2752:	e8 83       	st	Y, r30
    2754:	f9 83       	std	Y+1, r31	; 0x01
    2756:	8a 83       	std	Y+2, r24	; 0x02
    2758:	9b 83       	std	Y+3, r25	; 0x03
    275a:	df 91       	pop	r29
    275c:	cf 91       	pop	r28
    275e:	08 95       	ret
    2760:	44 27       	eor	r20, r20
    2762:	55 27       	eor	r21, r21
    2764:	4e 1b       	sub	r20, r30
    2766:	5f 0b       	sbc	r21, r31
    2768:	d2 cf       	rjmp	.-92     	; 0x270e <SimpleJoystickAdj+0x2a>
    276a:	44 27       	eor	r20, r20
    276c:	55 27       	eor	r21, r21
    276e:	48 1b       	sub	r20, r24
    2770:	59 0b       	sbc	r21, r25
    2772:	de cf       	rjmp	.-68     	; 0x2730 <SimpleJoystickAdj+0x4c>

00002774 <AnalogJoystickAdj>:
    2774:	cf 92       	push	r12
    2776:	df 92       	push	r13
    2778:	ef 92       	push	r14
    277a:	ff 92       	push	r15
    277c:	0f 93       	push	r16
    277e:	1f 93       	push	r17
    2780:	cf 93       	push	r28
    2782:	df 93       	push	r29
    2784:	6b 01       	movw	r12, r22
    2786:	e9 01       	movw	r28, r18
    2788:	fa 01       	movw	r30, r20
    278a:	a0 81       	ld	r26, Z
    278c:	b1 81       	ldd	r27, Z+1	; 0x01
    278e:	fc 01       	movw	r30, r24
    2790:	20 81       	ld	r18, Z
    2792:	31 81       	ldd	r19, Z+1	; 0x01
    2794:	a2 1b       	sub	r26, r18
    2796:	b3 0b       	sbc	r27, r19
    2798:	fa 01       	movw	r30, r20
    279a:	e2 80       	ldd	r14, Z+2	; 0x02
    279c:	f3 80       	ldd	r15, Z+3	; 0x03
    279e:	fc 01       	movw	r30, r24
    27a0:	82 81       	ldd	r24, Z+2	; 0x02
    27a2:	93 81       	ldd	r25, Z+3	; 0x03
    27a4:	e8 1a       	sub	r14, r24
    27a6:	f9 0a       	sbc	r15, r25
    27a8:	cd 01       	movw	r24, r26
    27aa:	b7 fd       	sbrc	r27, 7
    27ac:	77 c0       	rjmp	.+238    	; 0x289c <AnalogJoystickAdj+0x128>
    27ae:	91 95       	neg	r25
    27b0:	81 95       	neg	r24
    27b2:	91 09       	sbc	r25, r1
    27b4:	f6 01       	movw	r30, r12
    27b6:	22 89       	ldd	r18, Z+18	; 0x12
    27b8:	33 89       	ldd	r19, Z+19	; 0x13
    27ba:	31 95       	neg	r19
    27bc:	21 95       	neg	r18
    27be:	31 09       	sbc	r19, r1
    27c0:	28 17       	cp	r18, r24
    27c2:	39 07       	cpc	r19, r25
    27c4:	84 f4       	brge	.+32     	; 0x27e6 <AnalogJoystickAdj+0x72>
    27c6:	c7 01       	movw	r24, r14
    27c8:	f7 fc       	sbrc	r15, 7
    27ca:	9d c0       	rjmp	.+314    	; 0x2906 <AnalogJoystickAdj+0x192>
    27cc:	91 95       	neg	r25
    27ce:	81 95       	neg	r24
    27d0:	91 09       	sbc	r25, r1
    27d2:	f6 01       	movw	r30, r12
    27d4:	24 89       	ldd	r18, Z+20	; 0x14
    27d6:	35 89       	ldd	r19, Z+21	; 0x15
    27d8:	31 95       	neg	r19
    27da:	21 95       	neg	r18
    27dc:	31 09       	sbc	r19, r1
    27de:	28 17       	cp	r18, r24
    27e0:	39 07       	cpc	r19, r25
    27e2:	0c f4       	brge	.+2      	; 0x27e6 <AnalogJoystickAdj+0x72>
    27e4:	48 c0       	rjmp	.+144    	; 0x2876 <AnalogJoystickAdj+0x102>
    27e6:	1a 16       	cp	r1, r26
    27e8:	1b 06       	cpc	r1, r27
    27ea:	0c f0       	brlt	.+2      	; 0x27ee <AnalogJoystickAdj+0x7a>
    27ec:	6d c0       	rjmp	.+218    	; 0x28c8 <AnalogJoystickAdj+0x154>
    27ee:	9d 01       	movw	r18, r26
    27f0:	a1 e8       	ldi	r26, 0x81	; 129
    27f2:	bf ef       	ldi	r27, 0xFF	; 255
    27f4:	0e 94 3c 2c 	call	0x5878	; 0x5878 <__mulhisi3>
    27f8:	f6 01       	movw	r30, r12
    27fa:	24 85       	ldd	r18, Z+12	; 0x0c
    27fc:	35 85       	ldd	r19, Z+13	; 0x0d
    27fe:	44 27       	eor	r20, r20
    2800:	37 fd       	sbrc	r19, 7
    2802:	40 95       	com	r20
    2804:	54 2f       	mov	r21, r20
    2806:	0e 94 1a 2c 	call	0x5834	; 0x5834 <__divmodsi4>
    280a:	89 01       	movw	r16, r18
    280c:	1e 14       	cp	r1, r14
    280e:	1f 04       	cpc	r1, r15
    2810:	0c f0       	brlt	.+2      	; 0x2814 <AnalogJoystickAdj+0xa0>
    2812:	49 c0       	rjmp	.+146    	; 0x28a6 <AnalogJoystickAdj+0x132>
    2814:	97 01       	movw	r18, r14
    2816:	a1 e8       	ldi	r26, 0x81	; 129
    2818:	bf ef       	ldi	r27, 0xFF	; 255
    281a:	0e 94 3c 2c 	call	0x5878	; 0x5878 <__mulhisi3>
    281e:	f6 01       	movw	r30, r12
    2820:	20 89       	ldd	r18, Z+16	; 0x10
    2822:	31 89       	ldd	r19, Z+17	; 0x11
    2824:	44 27       	eor	r20, r20
    2826:	37 fd       	sbrc	r19, 7
    2828:	40 95       	com	r20
    282a:	54 2f       	mov	r21, r20
    282c:	0e 94 1a 2c 	call	0x5834	; 0x5834 <__divmodsi4>
    2830:	62 2f       	mov	r22, r18
    2832:	23 2f       	mov	r18, r19
    2834:	00 38       	cpi	r16, 0x80	; 128
    2836:	11 05       	cpc	r17, r1
    2838:	0c f1       	brlt	.+66     	; 0x287c <AnalogJoystickAdj+0x108>
    283a:	86 2f       	mov	r24, r22
    283c:	92 2f       	mov	r25, r18
    283e:	81 38       	cpi	r24, 0x81	; 129
    2840:	ff ef       	ldi	r31, 0xFF	; 255
    2842:	9f 07       	cpc	r25, r31
    2844:	94 f0       	brlt	.+36     	; 0x286a <AnalogJoystickAdj+0xf6>
    2846:	80 38       	cpi	r24, 0x80	; 128
    2848:	91 05       	cpc	r25, r1
    284a:	64 f4       	brge	.+24     	; 0x2864 <AnalogJoystickAdj+0xf0>
    284c:	0f e7       	ldi	r16, 0x7F	; 127
    284e:	08 83       	st	Y, r16
    2850:	89 83       	std	Y+1, r24	; 0x01
    2852:	df 91       	pop	r29
    2854:	cf 91       	pop	r28
    2856:	1f 91       	pop	r17
    2858:	0f 91       	pop	r16
    285a:	ff 90       	pop	r15
    285c:	ef 90       	pop	r14
    285e:	df 90       	pop	r13
    2860:	cf 90       	pop	r12
    2862:	08 95       	ret
    2864:	8f e7       	ldi	r24, 0x7F	; 127
    2866:	90 e0       	ldi	r25, 0x00	; 0
    2868:	f1 cf       	rjmp	.-30     	; 0x284c <AnalogJoystickAdj+0xd8>
    286a:	81 e8       	ldi	r24, 0x81	; 129
    286c:	9f ef       	ldi	r25, 0xFF	; 255
    286e:	80 38       	cpi	r24, 0x80	; 128
    2870:	91 05       	cpc	r25, r1
    2872:	64 f3       	brlt	.-40     	; 0x284c <AnalogJoystickAdj+0xd8>
    2874:	f7 cf       	rjmp	.-18     	; 0x2864 <AnalogJoystickAdj+0xf0>
    2876:	80 e0       	ldi	r24, 0x00	; 0
    2878:	00 e0       	ldi	r16, 0x00	; 0
    287a:	e9 cf       	rjmp	.-46     	; 0x284e <AnalogJoystickAdj+0xda>
    287c:	01 38       	cpi	r16, 0x81	; 129
    287e:	8f ef       	ldi	r24, 0xFF	; 255
    2880:	18 07       	cpc	r17, r24
    2882:	c4 f1       	brlt	.+112    	; 0x28f4 <AnalogJoystickAdj+0x180>
    2884:	86 2f       	mov	r24, r22
    2886:	92 2f       	mov	r25, r18
    2888:	81 38       	cpi	r24, 0x81	; 129
    288a:	ef ef       	ldi	r30, 0xFF	; 255
    288c:	9e 07       	cpc	r25, r30
    288e:	5c f1       	brlt	.+86     	; 0x28e6 <AnalogJoystickAdj+0x172>
    2890:	80 38       	cpi	r24, 0x80	; 128
    2892:	91 05       	cpc	r25, r1
    2894:	e4 f2       	brlt	.-72     	; 0x284e <AnalogJoystickAdj+0xda>
    2896:	8f e7       	ldi	r24, 0x7F	; 127
    2898:	90 e0       	ldi	r25, 0x00	; 0
    289a:	d9 cf       	rjmp	.-78     	; 0x284e <AnalogJoystickAdj+0xda>
    289c:	88 27       	eor	r24, r24
    289e:	99 27       	eor	r25, r25
    28a0:	8a 1b       	sub	r24, r26
    28a2:	9b 0b       	sbc	r25, r27
    28a4:	84 cf       	rjmp	.-248    	; 0x27ae <AnalogJoystickAdj+0x3a>
    28a6:	2f e7       	ldi	r18, 0x7F	; 127
    28a8:	30 e0       	ldi	r19, 0x00	; 0
    28aa:	d7 01       	movw	r26, r14
    28ac:	0e 94 51 2c 	call	0x58a2	; 0x58a2 <__usmulhisi3>
    28b0:	f6 01       	movw	r30, r12
    28b2:	26 85       	ldd	r18, Z+14	; 0x0e
    28b4:	37 85       	ldd	r19, Z+15	; 0x0f
    28b6:	44 27       	eor	r20, r20
    28b8:	37 fd       	sbrc	r19, 7
    28ba:	40 95       	com	r20
    28bc:	54 2f       	mov	r21, r20
    28be:	0e 94 1a 2c 	call	0x5834	; 0x5834 <__divmodsi4>
    28c2:	62 2f       	mov	r22, r18
    28c4:	23 2f       	mov	r18, r19
    28c6:	b6 cf       	rjmp	.-148    	; 0x2834 <AnalogJoystickAdj+0xc0>
    28c8:	2f e7       	ldi	r18, 0x7F	; 127
    28ca:	30 e0       	ldi	r19, 0x00	; 0
    28cc:	0e 94 51 2c 	call	0x58a2	; 0x58a2 <__usmulhisi3>
    28d0:	f6 01       	movw	r30, r12
    28d2:	22 85       	ldd	r18, Z+10	; 0x0a
    28d4:	33 85       	ldd	r19, Z+11	; 0x0b
    28d6:	44 27       	eor	r20, r20
    28d8:	37 fd       	sbrc	r19, 7
    28da:	40 95       	com	r20
    28dc:	54 2f       	mov	r21, r20
    28de:	0e 94 1a 2c 	call	0x5834	; 0x5834 <__divmodsi4>
    28e2:	89 01       	movw	r16, r18
    28e4:	93 cf       	rjmp	.-218    	; 0x280c <AnalogJoystickAdj+0x98>
    28e6:	81 e8       	ldi	r24, 0x81	; 129
    28e8:	9f ef       	ldi	r25, 0xFF	; 255
    28ea:	80 38       	cpi	r24, 0x80	; 128
    28ec:	91 05       	cpc	r25, r1
    28ee:	0c f4       	brge	.+2      	; 0x28f2 <AnalogJoystickAdj+0x17e>
    28f0:	ae cf       	rjmp	.-164    	; 0x284e <AnalogJoystickAdj+0xda>
    28f2:	d1 cf       	rjmp	.-94     	; 0x2896 <AnalogJoystickAdj+0x122>
    28f4:	01 e8       	ldi	r16, 0x81	; 129
    28f6:	1f ef       	ldi	r17, 0xFF	; 255
    28f8:	86 2f       	mov	r24, r22
    28fa:	92 2f       	mov	r25, r18
    28fc:	81 38       	cpi	r24, 0x81	; 129
    28fe:	ef ef       	ldi	r30, 0xFF	; 255
    2900:	9e 07       	cpc	r25, r30
    2902:	34 f6       	brge	.-116    	; 0x2890 <AnalogJoystickAdj+0x11c>
    2904:	f0 cf       	rjmp	.-32     	; 0x28e6 <AnalogJoystickAdj+0x172>
    2906:	88 27       	eor	r24, r24
    2908:	99 27       	eor	r25, r25
    290a:	8e 19       	sub	r24, r14
    290c:	9f 09       	sbc	r25, r15
    290e:	5e cf       	rjmp	.-324    	; 0x27cc <AnalogJoystickAdj+0x58>

00002910 <MouseJoystickAdj>:
    2910:	cf 93       	push	r28
    2912:	df 93       	push	r29
    2914:	d9 01       	movw	r26, r18
    2916:	ea 01       	movw	r28, r20
    2918:	e8 81       	ld	r30, Y
    291a:	f9 81       	ldd	r31, Y+1	; 0x01
    291c:	ec 01       	movw	r28, r24
    291e:	28 81       	ld	r18, Y
    2920:	39 81       	ldd	r19, Y+1	; 0x01
    2922:	e2 1b       	sub	r30, r18
    2924:	f3 0b       	sbc	r31, r19
    2926:	ea 01       	movw	r28, r20
    2928:	4a 81       	ldd	r20, Y+2	; 0x02
    292a:	5b 81       	ldd	r21, Y+3	; 0x03
    292c:	ec 01       	movw	r28, r24
    292e:	8a 81       	ldd	r24, Y+2	; 0x02
    2930:	9b 81       	ldd	r25, Y+3	; 0x03
    2932:	48 1b       	sub	r20, r24
    2934:	59 0b       	sbc	r21, r25
    2936:	cf 01       	movw	r24, r30
    2938:	f7 fd       	sbrc	r31, 7
    293a:	58 c0       	rjmp	.+176    	; 0x29ec <MouseJoystickAdj+0xdc>
    293c:	91 95       	neg	r25
    293e:	81 95       	neg	r24
    2940:	91 09       	sbc	r25, r1
    2942:	eb 01       	movw	r28, r22
    2944:	2a 89       	ldd	r18, Y+18	; 0x12
    2946:	3b 89       	ldd	r19, Y+19	; 0x13
    2948:	31 95       	neg	r19
    294a:	21 95       	neg	r18
    294c:	31 09       	sbc	r19, r1
    294e:	28 17       	cp	r18, r24
    2950:	39 07       	cpc	r19, r25
    2952:	7c f4       	brge	.+30     	; 0x2972 <MouseJoystickAdj+0x62>
    2954:	ca 01       	movw	r24, r20
    2956:	57 fd       	sbrc	r21, 7
    2958:	61 c0       	rjmp	.+194    	; 0x2a1c <MouseJoystickAdj+0x10c>
    295a:	91 95       	neg	r25
    295c:	81 95       	neg	r24
    295e:	91 09       	sbc	r25, r1
    2960:	eb 01       	movw	r28, r22
    2962:	2c 89       	ldd	r18, Y+20	; 0x14
    2964:	3d 89       	ldd	r19, Y+21	; 0x15
    2966:	31 95       	neg	r19
    2968:	21 95       	neg	r18
    296a:	31 09       	sbc	r19, r1
    296c:	28 17       	cp	r18, r24
    296e:	39 07       	cpc	r19, r25
    2970:	4c f1       	brlt	.+82     	; 0x29c4 <MouseJoystickAdj+0xb4>
    2972:	f1 95       	neg	r31
    2974:	e1 95       	neg	r30
    2976:	f1 09       	sbc	r31, r1
    2978:	51 95       	neg	r21
    297a:	41 95       	neg	r20
    297c:	51 09       	sbc	r21, r1
    297e:	e1 15       	cp	r30, r1
    2980:	d8 e0       	ldi	r29, 0x08	; 8
    2982:	fd 07       	cpc	r31, r29
    2984:	24 f1       	brlt	.+72     	; 0x29ce <MouseJoystickAdj+0xbe>
    2986:	41 15       	cp	r20, r1
    2988:	88 ef       	ldi	r24, 0xF8	; 248
    298a:	58 07       	cpc	r21, r24
    298c:	a4 f0       	brlt	.+40     	; 0x29b6 <MouseJoystickAdj+0xa6>
    298e:	41 15       	cp	r20, r1
    2990:	c8 e0       	ldi	r28, 0x08	; 8
    2992:	5c 07       	cpc	r21, r28
    2994:	6c f4       	brge	.+26     	; 0x29b0 <MouseJoystickAdj+0xa0>
    2996:	9f ef       	ldi	r25, 0xFF	; 255
    2998:	87 e0       	ldi	r24, 0x07	; 7
    299a:	9c 93       	st	X, r25
    299c:	11 96       	adiw	r26, 0x01	; 1
    299e:	8c 93       	st	X, r24
    29a0:	11 97       	sbiw	r26, 0x01	; 1
    29a2:	12 96       	adiw	r26, 0x02	; 2
    29a4:	4d 93       	st	X+, r20
    29a6:	5c 93       	st	X, r21
    29a8:	13 97       	sbiw	r26, 0x03	; 3
    29aa:	df 91       	pop	r29
    29ac:	cf 91       	pop	r28
    29ae:	08 95       	ret
    29b0:	4f ef       	ldi	r20, 0xFF	; 255
    29b2:	57 e0       	ldi	r21, 0x07	; 7
    29b4:	f0 cf       	rjmp	.-32     	; 0x2996 <MouseJoystickAdj+0x86>
    29b6:	40 e0       	ldi	r20, 0x00	; 0
    29b8:	58 ef       	ldi	r21, 0xF8	; 248
    29ba:	41 15       	cp	r20, r1
    29bc:	c8 e0       	ldi	r28, 0x08	; 8
    29be:	5c 07       	cpc	r21, r28
    29c0:	54 f3       	brlt	.-44     	; 0x2996 <MouseJoystickAdj+0x86>
    29c2:	f6 cf       	rjmp	.-20     	; 0x29b0 <MouseJoystickAdj+0xa0>
    29c4:	40 e0       	ldi	r20, 0x00	; 0
    29c6:	50 e0       	ldi	r21, 0x00	; 0
    29c8:	90 e0       	ldi	r25, 0x00	; 0
    29ca:	80 e0       	ldi	r24, 0x00	; 0
    29cc:	e6 cf       	rjmp	.-52     	; 0x299a <MouseJoystickAdj+0x8a>
    29ce:	e1 15       	cp	r30, r1
    29d0:	d8 ef       	ldi	r29, 0xF8	; 248
    29d2:	fd 07       	cpc	r31, r29
    29d4:	e4 f0       	brlt	.+56     	; 0x2a0e <MouseJoystickAdj+0xfe>
    29d6:	41 15       	cp	r20, r1
    29d8:	88 ef       	ldi	r24, 0xF8	; 248
    29da:	58 07       	cpc	r21, r24
    29dc:	8c f0       	brlt	.+34     	; 0x2a00 <MouseJoystickAdj+0xf0>
    29de:	41 15       	cp	r20, r1
    29e0:	c8 e0       	ldi	r28, 0x08	; 8
    29e2:	5c 07       	cpc	r21, r28
    29e4:	44 f4       	brge	.+16     	; 0x29f6 <MouseJoystickAdj+0xe6>
    29e6:	9e 2f       	mov	r25, r30
    29e8:	8f 2f       	mov	r24, r31
    29ea:	d7 cf       	rjmp	.-82     	; 0x299a <MouseJoystickAdj+0x8a>
    29ec:	88 27       	eor	r24, r24
    29ee:	99 27       	eor	r25, r25
    29f0:	8e 1b       	sub	r24, r30
    29f2:	9f 0b       	sbc	r25, r31
    29f4:	a3 cf       	rjmp	.-186    	; 0x293c <MouseJoystickAdj+0x2c>
    29f6:	4f ef       	ldi	r20, 0xFF	; 255
    29f8:	57 e0       	ldi	r21, 0x07	; 7
    29fa:	9e 2f       	mov	r25, r30
    29fc:	8f 2f       	mov	r24, r31
    29fe:	cd cf       	rjmp	.-102    	; 0x299a <MouseJoystickAdj+0x8a>
    2a00:	40 e0       	ldi	r20, 0x00	; 0
    2a02:	58 ef       	ldi	r21, 0xF8	; 248
    2a04:	41 15       	cp	r20, r1
    2a06:	c8 e0       	ldi	r28, 0x08	; 8
    2a08:	5c 07       	cpc	r21, r28
    2a0a:	6c f3       	brlt	.-38     	; 0x29e6 <MouseJoystickAdj+0xd6>
    2a0c:	f4 cf       	rjmp	.-24     	; 0x29f6 <MouseJoystickAdj+0xe6>
    2a0e:	e0 e0       	ldi	r30, 0x00	; 0
    2a10:	f8 ef       	ldi	r31, 0xF8	; 248
    2a12:	41 15       	cp	r20, r1
    2a14:	88 ef       	ldi	r24, 0xF8	; 248
    2a16:	58 07       	cpc	r21, r24
    2a18:	14 f7       	brge	.-60     	; 0x29de <MouseJoystickAdj+0xce>
    2a1a:	f2 cf       	rjmp	.-28     	; 0x2a00 <MouseJoystickAdj+0xf0>
    2a1c:	88 27       	eor	r24, r24
    2a1e:	99 27       	eor	r25, r25
    2a20:	84 1b       	sub	r24, r20
    2a22:	95 0b       	sbc	r25, r21
    2a24:	9a cf       	rjmp	.-204    	; 0x295a <MouseJoystickAdj+0x4a>

00002a26 <powerOff>:
    2a26:	cf 93       	push	r28
    2a28:	df 93       	push	r29
    2a2a:	cd b7       	in	r28, 0x3d	; 61
    2a2c:	de b7       	in	r29, 0x3e	; 62
    2a2e:	28 97       	sbiw	r28, 0x08	; 8
    2a30:	cd bf       	out	0x3d, r28	; 61
    2a32:	de bf       	out	0x3e, r29	; 62
    2a34:	cf d3       	rcall	.+1950   	; 0x31d4 <WatchdogPet>
    2a36:	80 e0       	ldi	r24, 0x00	; 0
    2a38:	e2 d3       	rcall	.+1988   	; 0x31fe <WatchDogEnable>
    2a3a:	0e 94 1b 25 	call	0x4a36	; 0x4a36 <turnBTOff>
    2a3e:	8a ea       	ldi	r24, 0xAA	; 170
    2a40:	90 ea       	ldi	r25, 0xA0	; 160
    2a42:	a1 e0       	ldi	r26, 0x01	; 1
    2a44:	b0 e0       	ldi	r27, 0x00	; 0
    2a46:	01 97       	sbiw	r24, 0x01	; 1
    2a48:	a1 09       	sbc	r26, r1
    2a4a:	b1 09       	sbc	r27, r1
    2a4c:	00 97       	sbiw	r24, 0x00	; 0
    2a4e:	a1 05       	cpc	r26, r1
    2a50:	b1 05       	cpc	r27, r1
    2a52:	c9 f7       	brne	.-14     	; 0x2a46 <powerOff+0x20>
    2a54:	78 94       	sei
    2a56:	80 91 48 00 	lds	r24, 0x0048
    2a5a:	81 7f       	andi	r24, 0xF1	; 241
    2a5c:	84 60       	ori	r24, 0x04	; 4
    2a5e:	80 93 48 00 	sts	0x0048, r24
    2a62:	80 91 48 00 	lds	r24, 0x0048
    2a66:	81 60       	ori	r24, 0x01	; 1
    2a68:	80 93 48 00 	sts	0x0048, r24
    2a6c:	88 95       	sleep
    2a6e:	40 ed       	ldi	r20, 0xD0	; 208
    2a70:	57 e0       	ldi	r21, 0x07	; 7
    2a72:	60 e0       	ldi	r22, 0x00	; 0
    2a74:	70 e0       	ldi	r23, 0x00	; 0
    2a76:	ce 01       	movw	r24, r28
    2a78:	01 96       	adiw	r24, 0x01	; 1
    2a7a:	76 d1       	rcall	.+748    	; 0x2d68 <startTimeout>
    2a7c:	0e 94 d6 09 	call	0x13ac	; 0x13ac <whichConfiguration>
    2a80:	18 2f       	mov	r17, r24
    2a82:	05 c0       	rjmp	.+10     	; 0x2a8e <powerOff+0x68>
    2a84:	88 e0       	ldi	r24, 0x08	; 8
    2a86:	0e 94 d0 04 	call	0x9a0	; 0x9a0 <buttonActivated>
    2a8a:	88 23       	and	r24, r24
    2a8c:	79 f3       	breq	.-34     	; 0x2a6c <powerOff+0x46>
    2a8e:	ce 01       	movw	r24, r28
    2a90:	01 96       	adiw	r24, 0x01	; 1
    2a92:	83 d1       	rcall	.+774    	; 0x2d9a <checkTimeout>
    2a94:	88 23       	and	r24, r24
    2a96:	b1 f3       	breq	.-20     	; 0x2a84 <powerOff+0x5e>
    2a98:	81 2f       	mov	r24, r17
    2a9a:	0e 94 3f 09 	call	0x127e	; 0x127e <loadConfiguration>
    2a9e:	80 91 48 00 	lds	r24, 0x0048
    2aa2:	8e 7f       	andi	r24, 0xFE	; 254
    2aa4:	80 93 48 00 	sts	0x0048, r24
    2aa8:	61 e0       	ldi	r22, 0x01	; 1
    2aaa:	89 e7       	ldi	r24, 0x79	; 121
    2aac:	90 e0       	ldi	r25, 0x00	; 0
    2aae:	d8 d4       	rcall	.+2480   	; 0x3460 <ccp_write_io>
    2ab0:	ff cf       	rjmp	.-2      	; 0x2ab0 <powerOff+0x8a>

00002ab2 <powerOn>:
    2ab2:	8f 92       	push	r8
    2ab4:	9f 92       	push	r9
    2ab6:	af 92       	push	r10
    2ab8:	bf 92       	push	r11
    2aba:	cf 92       	push	r12
    2abc:	df 92       	push	r13
    2abe:	ef 92       	push	r14
    2ac0:	ff 92       	push	r15
    2ac2:	cf 93       	push	r28
    2ac4:	c8 2f       	mov	r28, r24
    2ac6:	86 d3       	rcall	.+1804   	; 0x31d4 <WatchdogPet>
    2ac8:	80 e0       	ldi	r24, 0x00	; 0
    2aca:	99 d3       	rcall	.+1842   	; 0x31fe <WatchDogEnable>
    2acc:	2a d1       	rcall	.+596    	; 0x2d22 <getSystemTime>
    2ace:	6b 01       	movw	r12, r22
    2ad0:	7c 01       	movw	r14, r24
    2ad2:	90 91 a8 06 	lds	r25, 0x06A8
    2ad6:	92 fd       	sbrc	r25, 2
    2ad8:	fc cf       	rjmp	.-8      	; 0x2ad2 <powerOn+0x20>
    2ada:	20 e0       	ldi	r18, 0x00	; 0
    2adc:	30 e0       	ldi	r19, 0x00	; 0
    2ade:	2f 5f       	subi	r18, 0xFF	; 255
    2ae0:	3f 4f       	sbci	r19, 0xFF	; 255
    2ae2:	25 35       	cpi	r18, 0x55	; 85
    2ae4:	80 ed       	ldi	r24, 0xD0	; 208
    2ae6:	38 07       	cpc	r19, r24
    2ae8:	d1 f7       	brne	.-12     	; 0x2ade <powerOn+0x2c>
    2aea:	1b d1       	rcall	.+566    	; 0x2d22 <getSystemTime>
    2aec:	4b 01       	movw	r8, r22
    2aee:	5c 01       	movw	r10, r24
    2af0:	81 e0       	ldi	r24, 0x01	; 1
    2af2:	85 d3       	rcall	.+1802   	; 0x31fe <WatchDogEnable>
    2af4:	6f d3       	rcall	.+1758   	; 0x31d4 <WatchdogPet>
    2af6:	80 ed       	ldi	r24, 0xD0	; 208
    2af8:	c8 0e       	add	r12, r24
    2afa:	87 e0       	ldi	r24, 0x07	; 7
    2afc:	d8 1e       	adc	r13, r24
    2afe:	e1 1c       	adc	r14, r1
    2b00:	f1 1c       	adc	r15, r1
    2b02:	8c 14       	cp	r8, r12
    2b04:	9d 04       	cpc	r9, r13
    2b06:	ae 04       	cpc	r10, r14
    2b08:	bf 04       	cpc	r11, r15
    2b0a:	58 f4       	brcc	.+22     	; 0x2b22 <powerOn+0x70>
    2b0c:	81 e0       	ldi	r24, 0x01	; 1
    2b0e:	cf 91       	pop	r28
    2b10:	ff 90       	pop	r15
    2b12:	ef 90       	pop	r14
    2b14:	df 90       	pop	r13
    2b16:	cf 90       	pop	r12
    2b18:	bf 90       	pop	r11
    2b1a:	af 90       	pop	r10
    2b1c:	9f 90       	pop	r9
    2b1e:	8f 90       	pop	r8
    2b20:	08 95       	ret
    2b22:	8c 2f       	mov	r24, r28
    2b24:	80 df       	rcall	.-256    	; 0x2a26 <powerOff>

00002b26 <setupLEDs>:
    2b26:	80 93 20 27 	sts	0x2720, r24
    2b2a:	24 ef       	ldi	r18, 0xF4	; 244
    2b2c:	31 e0       	ldi	r19, 0x01	; 1
    2b2e:	42 e0       	ldi	r20, 0x02	; 2
    2b30:	66 e0       	ldi	r22, 0x06	; 6
    2b32:	81 e2       	ldi	r24, 0x21	; 33
    2b34:	97 e2       	ldi	r25, 0x27	; 39
    2b36:	0e 94 79 22 	call	0x44f2	; 0x44f2 <pwm_init>
    2b3a:	24 ef       	ldi	r18, 0xF4	; 244
    2b3c:	31 e0       	ldi	r19, 0x01	; 1
    2b3e:	41 e0       	ldi	r20, 0x01	; 1
    2b40:	62 e0       	ldi	r22, 0x02	; 2
    2b42:	88 e2       	ldi	r24, 0x28	; 40
    2b44:	97 e2       	ldi	r25, 0x27	; 39
    2b46:	0e 94 79 22 	call	0x44f2	; 0x44f2 <pwm_init>
    2b4a:	24 ef       	ldi	r18, 0xF4	; 244
    2b4c:	31 e0       	ldi	r19, 0x01	; 1
    2b4e:	42 e0       	ldi	r20, 0x02	; 2
    2b50:	62 e0       	ldi	r22, 0x02	; 2
    2b52:	8f e2       	ldi	r24, 0x2F	; 47
    2b54:	97 e2       	ldi	r25, 0x27	; 39
    2b56:	0e 94 79 22 	call	0x44f2	; 0x44f2 <pwm_init>
    2b5a:	64 e6       	ldi	r22, 0x64	; 100
    2b5c:	81 e2       	ldi	r24, 0x21	; 33
    2b5e:	97 e2       	ldi	r25, 0x27	; 39
    2b60:	0e 94 ae 23 	call	0x475c	; 0x475c <pwm_start>
    2b64:	64 e6       	ldi	r22, 0x64	; 100
    2b66:	88 e2       	ldi	r24, 0x28	; 40
    2b68:	97 e2       	ldi	r25, 0x27	; 39
    2b6a:	0e 94 ae 23 	call	0x475c	; 0x475c <pwm_start>
    2b6e:	64 e6       	ldi	r22, 0x64	; 100
    2b70:	8f e2       	ldi	r24, 0x2F	; 47
    2b72:	97 e2       	ldi	r25, 0x27	; 39
    2b74:	0c 94 ae 23 	jmp	0x475c	; 0x475c <pwm_start>

00002b78 <setLEDValue>:
    2b78:	0f 93       	push	r16
    2b7a:	1f 93       	push	r17
    2b7c:	cf 93       	push	r28
    2b7e:	df 93       	push	r29
    2b80:	c6 2f       	mov	r28, r22
    2b82:	14 2f       	mov	r17, r20
    2b84:	85 36       	cpi	r24, 0x65	; 101
    2b86:	08 f0       	brcs	.+2      	; 0x2b8a <setLEDValue+0x12>
    2b88:	84 e6       	ldi	r24, 0x64	; 100
    2b8a:	a4 e6       	ldi	r26, 0x64	; 100
    2b8c:	a8 1b       	sub	r26, r24
    2b8e:	20 91 26 27 	lds	r18, 0x2726
    2b92:	30 91 27 27 	lds	r19, 0x2727
    2b96:	b0 e0       	ldi	r27, 0x00	; 0
    2b98:	0e 94 42 2c 	call	0x5884	; 0x5884 <__umulhisi3>
    2b9c:	24 e6       	ldi	r18, 0x64	; 100
    2b9e:	30 e0       	ldi	r19, 0x00	; 0
    2ba0:	40 e0       	ldi	r20, 0x00	; 0
    2ba2:	50 e0       	ldi	r21, 0x00	; 0
    2ba4:	0e 94 f8 2b 	call	0x57f0	; 0x57f0 <__udivmodsi4>
    2ba8:	80 91 23 27 	lds	r24, 0x2723
    2bac:	e0 91 21 27 	lds	r30, 0x2721
    2bb0:	f0 91 22 27 	lds	r31, 0x2722
    2bb4:	e6 ff       	sbrs	r30, 6
    2bb6:	62 c0       	rjmp	.+196    	; 0x2c7c <setLEDValue+0x104>
    2bb8:	81 30       	cpi	r24, 0x01	; 1
    2bba:	09 f4       	brne	.+2      	; 0x2bbe <setLEDValue+0x46>
    2bbc:	71 c0       	rjmp	.+226    	; 0x2ca0 <setLEDValue+0x128>
    2bbe:	82 30       	cpi	r24, 0x02	; 2
    2bc0:	09 f4       	brne	.+2      	; 0x2bc4 <setLEDValue+0x4c>
    2bc2:	71 c0       	rjmp	.+226    	; 0x2ca6 <setLEDValue+0x12e>
    2bc4:	6c 2f       	mov	r22, r28
    2bc6:	c5 36       	cpi	r28, 0x65	; 101
    2bc8:	08 f0       	brcs	.+2      	; 0x2bcc <setLEDValue+0x54>
    2bca:	64 e6       	ldi	r22, 0x64	; 100
    2bcc:	a4 e6       	ldi	r26, 0x64	; 100
    2bce:	a6 1b       	sub	r26, r22
    2bd0:	00 91 20 27 	lds	r16, 0x2720
    2bd4:	01 11       	cpse	r16, r1
    2bd6:	83 c0       	rjmp	.+262    	; 0x2cde <setLEDValue+0x166>
    2bd8:	81 e0       	ldi	r24, 0x01	; 1
    2bda:	90 e0       	ldi	r25, 0x00	; 0
    2bdc:	ec 01       	movw	r28, r24
    2bde:	cc 0f       	add	r28, r28
    2be0:	dd 1f       	adc	r29, r29
    2be2:	cc 0f       	add	r28, r28
    2be4:	dd 1f       	adc	r29, r29
    2be6:	cc 0f       	add	r28, r28
    2be8:	dd 1f       	adc	r29, r29
    2bea:	c8 1b       	sub	r28, r24
    2bec:	d9 0b       	sbc	r29, r25
    2bee:	cf 5d       	subi	r28, 0xDF	; 223
    2bf0:	d8 4d       	sbci	r29, 0xD8	; 216
    2bf2:	2d 81       	ldd	r18, Y+5	; 0x05
    2bf4:	3e 81       	ldd	r19, Y+6	; 0x06
    2bf6:	b0 e0       	ldi	r27, 0x00	; 0
    2bf8:	0e 94 42 2c 	call	0x5884	; 0x5884 <__umulhisi3>
    2bfc:	24 e6       	ldi	r18, 0x64	; 100
    2bfe:	30 e0       	ldi	r19, 0x00	; 0
    2c00:	40 e0       	ldi	r20, 0x00	; 0
    2c02:	50 e0       	ldi	r21, 0x00	; 0
    2c04:	0e 94 f8 2b 	call	0x57f0	; 0x57f0 <__udivmodsi4>
    2c08:	8a 81       	ldd	r24, Y+2	; 0x02
    2c0a:	e8 81       	ld	r30, Y
    2c0c:	f9 81       	ldd	r31, Y+1	; 0x01
    2c0e:	e6 ff       	sbrs	r30, 6
    2c10:	4d c0       	rjmp	.+154    	; 0x2cac <setLEDValue+0x134>
    2c12:	81 30       	cpi	r24, 0x01	; 1
    2c14:	09 f4       	brne	.+2      	; 0x2c18 <setLEDValue+0xa0>
    2c16:	75 c0       	rjmp	.+234    	; 0x2d02 <setLEDValue+0x18a>
    2c18:	82 30       	cpi	r24, 0x02	; 2
    2c1a:	e1 f1       	breq	.+120    	; 0x2c94 <setLEDValue+0x11c>
    2c1c:	15 36       	cpi	r17, 0x65	; 101
    2c1e:	08 f0       	brcs	.+2      	; 0x2c22 <setLEDValue+0xaa>
    2c20:	14 e6       	ldi	r17, 0x64	; 100
    2c22:	a4 e6       	ldi	r26, 0x64	; 100
    2c24:	a1 1b       	sub	r26, r17
    2c26:	01 11       	cpse	r16, r1
    2c28:	5d c0       	rjmp	.+186    	; 0x2ce4 <setLEDValue+0x16c>
    2c2a:	82 e0       	ldi	r24, 0x02	; 2
    2c2c:	90 e0       	ldi	r25, 0x00	; 0
    2c2e:	ec 01       	movw	r28, r24
    2c30:	cc 0f       	add	r28, r28
    2c32:	dd 1f       	adc	r29, r29
    2c34:	cc 0f       	add	r28, r28
    2c36:	dd 1f       	adc	r29, r29
    2c38:	cc 0f       	add	r28, r28
    2c3a:	dd 1f       	adc	r29, r29
    2c3c:	c8 1b       	sub	r28, r24
    2c3e:	d9 0b       	sbc	r29, r25
    2c40:	cf 5d       	subi	r28, 0xDF	; 223
    2c42:	d8 4d       	sbci	r29, 0xD8	; 216
    2c44:	2d 81       	ldd	r18, Y+5	; 0x05
    2c46:	3e 81       	ldd	r19, Y+6	; 0x06
    2c48:	b0 e0       	ldi	r27, 0x00	; 0
    2c4a:	0e 94 42 2c 	call	0x5884	; 0x5884 <__umulhisi3>
    2c4e:	24 e6       	ldi	r18, 0x64	; 100
    2c50:	30 e0       	ldi	r19, 0x00	; 0
    2c52:	40 e0       	ldi	r20, 0x00	; 0
    2c54:	50 e0       	ldi	r21, 0x00	; 0
    2c56:	0e 94 f8 2b 	call	0x57f0	; 0x57f0 <__udivmodsi4>
    2c5a:	8a 81       	ldd	r24, Y+2	; 0x02
    2c5c:	e8 81       	ld	r30, Y
    2c5e:	f9 81       	ldd	r31, Y+1	; 0x01
    2c60:	e6 ff       	sbrs	r30, 6
    2c62:	2f c0       	rjmp	.+94     	; 0x2cc2 <setLEDValue+0x14a>
    2c64:	81 30       	cpi	r24, 0x01	; 1
    2c66:	09 f4       	brne	.+2      	; 0x2c6a <setLEDValue+0xf2>
    2c68:	42 c0       	rjmp	.+132    	; 0x2cee <setLEDValue+0x176>
    2c6a:	82 30       	cpi	r24, 0x02	; 2
    2c6c:	11 f4       	brne	.+4      	; 0x2c72 <setLEDValue+0xfa>
    2c6e:	22 af       	std	Z+58, r18	; 0x3a
    2c70:	33 af       	std	Z+59, r19	; 0x3b
    2c72:	df 91       	pop	r29
    2c74:	cf 91       	pop	r28
    2c76:	1f 91       	pop	r17
    2c78:	0f 91       	pop	r16
    2c7a:	08 95       	ret
    2c7c:	82 30       	cpi	r24, 0x02	; 2
    2c7e:	99 f0       	breq	.+38     	; 0x2ca6 <setLEDValue+0x12e>
    2c80:	60 f0       	brcs	.+24     	; 0x2c9a <setLEDValue+0x122>
    2c82:	83 30       	cpi	r24, 0x03	; 3
    2c84:	09 f4       	brne	.+2      	; 0x2c88 <setLEDValue+0x110>
    2c86:	4a c0       	rjmp	.+148    	; 0x2d1c <setLEDValue+0x1a4>
    2c88:	84 30       	cpi	r24, 0x04	; 4
    2c8a:	09 f0       	breq	.+2      	; 0x2c8e <setLEDValue+0x116>
    2c8c:	9b cf       	rjmp	.-202    	; 0x2bc4 <setLEDValue+0x4c>
    2c8e:	26 af       	std	Z+62, r18	; 0x3e
    2c90:	37 af       	std	Z+63, r19	; 0x3f
    2c92:	98 cf       	rjmp	.-208    	; 0x2bc4 <setLEDValue+0x4c>
    2c94:	22 af       	std	Z+58, r18	; 0x3a
    2c96:	33 af       	std	Z+59, r19	; 0x3b
    2c98:	c1 cf       	rjmp	.-126    	; 0x2c1c <setLEDValue+0xa4>
    2c9a:	81 30       	cpi	r24, 0x01	; 1
    2c9c:	09 f0       	breq	.+2      	; 0x2ca0 <setLEDValue+0x128>
    2c9e:	92 cf       	rjmp	.-220    	; 0x2bc4 <setLEDValue+0x4c>
    2ca0:	20 af       	std	Z+56, r18	; 0x38
    2ca2:	31 af       	std	Z+57, r19	; 0x39
    2ca4:	8f cf       	rjmp	.-226    	; 0x2bc4 <setLEDValue+0x4c>
    2ca6:	22 af       	std	Z+58, r18	; 0x3a
    2ca8:	33 af       	std	Z+59, r19	; 0x3b
    2caa:	8c cf       	rjmp	.-232    	; 0x2bc4 <setLEDValue+0x4c>
    2cac:	82 30       	cpi	r24, 0x02	; 2
    2cae:	91 f3       	breq	.-28     	; 0x2c94 <setLEDValue+0x11c>
    2cb0:	28 f1       	brcs	.+74     	; 0x2cfc <setLEDValue+0x184>
    2cb2:	83 30       	cpi	r24, 0x03	; 3
    2cb4:	81 f1       	breq	.+96     	; 0x2d16 <setLEDValue+0x19e>
    2cb6:	84 30       	cpi	r24, 0x04	; 4
    2cb8:	09 f0       	breq	.+2      	; 0x2cbc <setLEDValue+0x144>
    2cba:	b0 cf       	rjmp	.-160    	; 0x2c1c <setLEDValue+0xa4>
    2cbc:	26 af       	std	Z+62, r18	; 0x3e
    2cbe:	37 af       	std	Z+63, r19	; 0x3f
    2cc0:	ad cf       	rjmp	.-166    	; 0x2c1c <setLEDValue+0xa4>
    2cc2:	82 30       	cpi	r24, 0x02	; 2
    2cc4:	a1 f2       	breq	.-88     	; 0x2c6e <setLEDValue+0xf6>
    2cc6:	88 f0       	brcs	.+34     	; 0x2cea <setLEDValue+0x172>
    2cc8:	83 30       	cpi	r24, 0x03	; 3
    2cca:	f1 f0       	breq	.+60     	; 0x2d08 <setLEDValue+0x190>
    2ccc:	84 30       	cpi	r24, 0x04	; 4
    2cce:	89 f6       	brne	.-94     	; 0x2c72 <setLEDValue+0xfa>
    2cd0:	26 af       	std	Z+62, r18	; 0x3e
    2cd2:	37 af       	std	Z+63, r19	; 0x3f
    2cd4:	df 91       	pop	r29
    2cd6:	cf 91       	pop	r28
    2cd8:	1f 91       	pop	r17
    2cda:	0f 91       	pop	r16
    2cdc:	08 95       	ret
    2cde:	82 e0       	ldi	r24, 0x02	; 2
    2ce0:	90 e0       	ldi	r25, 0x00	; 0
    2ce2:	7c cf       	rjmp	.-264    	; 0x2bdc <setLEDValue+0x64>
    2ce4:	81 e0       	ldi	r24, 0x01	; 1
    2ce6:	90 e0       	ldi	r25, 0x00	; 0
    2ce8:	a2 cf       	rjmp	.-188    	; 0x2c2e <setLEDValue+0xb6>
    2cea:	81 30       	cpi	r24, 0x01	; 1
    2cec:	11 f6       	brne	.-124    	; 0x2c72 <setLEDValue+0xfa>
    2cee:	20 af       	std	Z+56, r18	; 0x38
    2cf0:	31 af       	std	Z+57, r19	; 0x39
    2cf2:	df 91       	pop	r29
    2cf4:	cf 91       	pop	r28
    2cf6:	1f 91       	pop	r17
    2cf8:	0f 91       	pop	r16
    2cfa:	08 95       	ret
    2cfc:	81 30       	cpi	r24, 0x01	; 1
    2cfe:	09 f0       	breq	.+2      	; 0x2d02 <setLEDValue+0x18a>
    2d00:	8d cf       	rjmp	.-230    	; 0x2c1c <setLEDValue+0xa4>
    2d02:	20 af       	std	Z+56, r18	; 0x38
    2d04:	31 af       	std	Z+57, r19	; 0x39
    2d06:	8a cf       	rjmp	.-236    	; 0x2c1c <setLEDValue+0xa4>
    2d08:	24 af       	std	Z+60, r18	; 0x3c
    2d0a:	35 af       	std	Z+61, r19	; 0x3d
    2d0c:	df 91       	pop	r29
    2d0e:	cf 91       	pop	r28
    2d10:	1f 91       	pop	r17
    2d12:	0f 91       	pop	r16
    2d14:	08 95       	ret
    2d16:	24 af       	std	Z+60, r18	; 0x3c
    2d18:	35 af       	std	Z+61, r19	; 0x3d
    2d1a:	80 cf       	rjmp	.-256    	; 0x2c1c <setLEDValue+0xa4>
    2d1c:	24 af       	std	Z+60, r18	; 0x3c
    2d1e:	35 af       	std	Z+61, r19	; 0x3d
    2d20:	51 cf       	rjmp	.-350    	; 0x2bc4 <setLEDValue+0x4c>

00002d22 <getSystemTime>:
    2d22:	2f b7       	in	r18, 0x3f	; 63
    2d24:	f8 94       	cli
    2d26:	60 91 38 27 	lds	r22, 0x2738
    2d2a:	70 91 39 27 	lds	r23, 0x2739
    2d2e:	80 91 3a 27 	lds	r24, 0x273A
    2d32:	90 91 3b 27 	lds	r25, 0x273B
    2d36:	2f bf       	out	0x3f, r18	; 63
    2d38:	08 95       	ret

00002d3a <tickSystemTime>:
    2d3a:	2f b7       	in	r18, 0x3f	; 63
    2d3c:	f8 94       	cli
    2d3e:	80 91 38 27 	lds	r24, 0x2738
    2d42:	90 91 39 27 	lds	r25, 0x2739
    2d46:	a0 91 3a 27 	lds	r26, 0x273A
    2d4a:	b0 91 3b 27 	lds	r27, 0x273B
    2d4e:	01 96       	adiw	r24, 0x01	; 1
    2d50:	a1 1d       	adc	r26, r1
    2d52:	b1 1d       	adc	r27, r1
    2d54:	80 93 38 27 	sts	0x2738, r24
    2d58:	90 93 39 27 	sts	0x2739, r25
    2d5c:	a0 93 3a 27 	sts	0x273A, r26
    2d60:	b0 93 3b 27 	sts	0x273B, r27
    2d64:	2f bf       	out	0x3f, r18	; 63
    2d66:	08 95       	ret

00002d68 <startTimeout>:
    2d68:	0f 93       	push	r16
    2d6a:	1f 93       	push	r17
    2d6c:	ef b7       	in	r30, 0x3f	; 63
    2d6e:	f8 94       	cli
    2d70:	00 91 38 27 	lds	r16, 0x2738
    2d74:	10 91 39 27 	lds	r17, 0x2739
    2d78:	20 91 3a 27 	lds	r18, 0x273A
    2d7c:	30 91 3b 27 	lds	r19, 0x273B
    2d80:	ef bf       	out	0x3f, r30	; 63
    2d82:	fc 01       	movw	r30, r24
    2d84:	00 83       	st	Z, r16
    2d86:	11 83       	std	Z+1, r17	; 0x01
    2d88:	22 83       	std	Z+2, r18	; 0x02
    2d8a:	33 83       	std	Z+3, r19	; 0x03
    2d8c:	44 83       	std	Z+4, r20	; 0x04
    2d8e:	55 83       	std	Z+5, r21	; 0x05
    2d90:	66 83       	std	Z+6, r22	; 0x06
    2d92:	77 83       	std	Z+7, r23	; 0x07
    2d94:	1f 91       	pop	r17
    2d96:	0f 91       	pop	r16
    2d98:	08 95       	ret

00002d9a <checkTimeout>:
    2d9a:	0f 93       	push	r16
    2d9c:	1f 93       	push	r17
    2d9e:	fc 01       	movw	r30, r24
    2da0:	44 81       	ldd	r20, Z+4	; 0x04
    2da2:	55 81       	ldd	r21, Z+5	; 0x05
    2da4:	66 81       	ldd	r22, Z+6	; 0x06
    2da6:	77 81       	ldd	r23, Z+7	; 0x07
    2da8:	45 2b       	or	r20, r21
    2daa:	46 2b       	or	r20, r22
    2dac:	47 2b       	or	r20, r23
    2dae:	01 f1       	breq	.+64     	; 0x2df0 <checkTimeout+0x56>
    2db0:	8f b7       	in	r24, 0x3f	; 63
    2db2:	f8 94       	cli
    2db4:	40 91 38 27 	lds	r20, 0x2738
    2db8:	50 91 39 27 	lds	r21, 0x2739
    2dbc:	60 91 3a 27 	lds	r22, 0x273A
    2dc0:	70 91 3b 27 	lds	r23, 0x273B
    2dc4:	8f bf       	out	0x3f, r24	; 63
    2dc6:	00 81       	ld	r16, Z
    2dc8:	11 81       	ldd	r17, Z+1	; 0x01
    2dca:	22 81       	ldd	r18, Z+2	; 0x02
    2dcc:	33 81       	ldd	r19, Z+3	; 0x03
    2dce:	40 1b       	sub	r20, r16
    2dd0:	51 0b       	sbc	r21, r17
    2dd2:	62 0b       	sbc	r22, r18
    2dd4:	73 0b       	sbc	r23, r19
    2dd6:	81 e0       	ldi	r24, 0x01	; 1
    2dd8:	04 81       	ldd	r16, Z+4	; 0x04
    2dda:	15 81       	ldd	r17, Z+5	; 0x05
    2ddc:	26 81       	ldd	r18, Z+6	; 0x06
    2dde:	37 81       	ldd	r19, Z+7	; 0x07
    2de0:	40 17       	cp	r20, r16
    2de2:	51 07       	cpc	r21, r17
    2de4:	62 07       	cpc	r22, r18
    2de6:	73 07       	cpc	r23, r19
    2de8:	18 f0       	brcs	.+6      	; 0x2df0 <checkTimeout+0x56>
    2dea:	1f 91       	pop	r17
    2dec:	0f 91       	pop	r16
    2dee:	08 95       	ret
    2df0:	80 e0       	ldi	r24, 0x00	; 0
    2df2:	1f 91       	pop	r17
    2df4:	0f 91       	pop	r16
    2df6:	08 95       	ret

00002df8 <cancelTimeout>:
    2df8:	fc 01       	movw	r30, r24
    2dfa:	14 82       	std	Z+4, r1	; 0x04
    2dfc:	15 82       	std	Z+5, r1	; 0x05
    2dfe:	16 82       	std	Z+6, r1	; 0x06
    2e00:	17 82       	std	Z+7, r1	; 0x07
    2e02:	08 95       	ret

00002e04 <setupSysTick>:
    2e04:	0f 93       	push	r16
    2e06:	1f 93       	push	r17
    2e08:	cf 93       	push	r28
    2e0a:	df 93       	push	r29
    2e0c:	8c 01       	movw	r16, r24
    2e0e:	80 e4       	ldi	r24, 0x40	; 64
    2e10:	98 e0       	ldi	r25, 0x08	; 8
    2e12:	0e 94 ef 1f 	call	0x3fde	; 0x3fde <tc_enable>
    2e16:	c0 e4       	ldi	r28, 0x40	; 64
    2e18:	d8 e0       	ldi	r29, 0x08	; 8
    2e1a:	88 85       	ldd	r24, Y+8	; 0x08
    2e1c:	8e 6f       	ori	r24, 0xFE	; 254
    2e1e:	88 87       	std	Y+8, r24	; 0x08
    2e20:	89 81       	ldd	r24, Y+1	; 0x01
    2e22:	88 7f       	andi	r24, 0xF8	; 248
    2e24:	89 83       	std	Y+1, r24	; 0x01
    2e26:	18 a2       	std	Y+32, r1	; 0x20
    2e28:	19 a2       	std	Y+33, r1	; 0x21
    2e2a:	80 e0       	ldi	r24, 0x00	; 0
    2e2c:	9d e7       	ldi	r25, 0x7D	; 125
    2e2e:	8e a3       	std	Y+38, r24	; 0x26
    2e30:	9f a3       	std	Y+39, r25	; 0x27
    2e32:	8c 85       	ldd	r24, Y+12	; 0x0c
    2e34:	81 60       	ori	r24, 0x01	; 1
    2e36:	8c 87       	std	Y+12, r24	; 0x0c
    2e38:	b8 01       	movw	r22, r16
    2e3a:	80 e4       	ldi	r24, 0x40	; 64
    2e3c:	98 e0       	ldi	r25, 0x08	; 8
    2e3e:	0e 94 75 20 	call	0x40ea	; 0x40ea <tc_set_overflow_interrupt_callback>
    2e42:	8e 81       	ldd	r24, Y+6	; 0x06
    2e44:	8c 7f       	andi	r24, 0xFC	; 252
    2e46:	8e 83       	std	Y+6, r24	; 0x06
    2e48:	8e 81       	ldd	r24, Y+6	; 0x06
    2e4a:	81 60       	ori	r24, 0x01	; 1
    2e4c:	8e 83       	std	Y+6, r24	; 0x06
    2e4e:	88 81       	ld	r24, Y
    2e50:	80 7f       	andi	r24, 0xF0	; 240
    2e52:	81 60       	ori	r24, 0x01	; 1
    2e54:	88 83       	st	Y, r24
    2e56:	80 e4       	ldi	r24, 0x40	; 64
    2e58:	98 e0       	ldi	r25, 0x08	; 8
    2e5a:	df 91       	pop	r29
    2e5c:	cf 91       	pop	r28
    2e5e:	1f 91       	pop	r17
    2e60:	0f 91       	pop	r16
    2e62:	0c 94 30 20 	jmp	0x4060	; 0x4060 <tc_disable>

00002e66 <enableSysTick>:
    2e66:	80 e4       	ldi	r24, 0x40	; 64
    2e68:	98 e0       	ldi	r25, 0x08	; 8
    2e6a:	0c 94 ef 1f 	jmp	0x3fde	; 0x3fde <tc_enable>

00002e6e <clearSysTickFlag>:
    2e6e:	e0 e4       	ldi	r30, 0x40	; 64
    2e70:	f8 e0       	ldi	r31, 0x08	; 8
    2e72:	84 85       	ldd	r24, Z+12	; 0x0c
    2e74:	81 60       	ori	r24, 0x01	; 1
    2e76:	84 87       	std	Z+12, r24	; 0x0c
    2e78:	08 95       	ret

00002e7a <setupUsb>:
    2e7a:	60 e1       	ldi	r22, 0x10	; 16
    2e7c:	83 e0       	ldi	r24, 0x03	; 3
    2e7e:	f9 d1       	rcall	.+1010   	; 0x3272 <sysclk_enable_module>
    2e80:	80 e0       	ldi	r24, 0x00	; 0
    2e82:	95 e2       	ldi	r25, 0x25	; 37
    2e84:	02 dc       	rcall	.-2044   	; 0x268a <sendDBGString>
    2e86:	a6 d1       	rcall	.+844    	; 0x31d4 <WatchdogPet>
    2e88:	6e e5       	ldi	r22, 0x5E	; 94
    2e8a:	70 e2       	ldi	r23, 0x20	; 32
    2e8c:	80 ea       	ldi	r24, 0xA0	; 160
    2e8e:	98 e0       	ldi	r25, 0x08	; 8
    2e90:	0e 94 a2 20 	call	0x4144	; 0x4144 <usart_init_rs232>
    2e94:	81 11       	cpse	r24, r1
    2e96:	18 c0       	rjmp	.+48     	; 0x2ec8 <setupUsb+0x4e>
    2e98:	85 e1       	ldi	r24, 0x15	; 21
    2e9a:	95 e2       	ldi	r25, 0x25	; 37
    2e9c:	08 dc       	rcall	.-2032   	; 0x26ae <sendDBGLine>
    2e9e:	40 e4       	ldi	r20, 0x40	; 64
    2ea0:	68 e6       	ldi	r22, 0x68	; 104
    2ea2:	77 e2       	ldi	r23, 0x27	; 39
    2ea4:	82 e6       	ldi	r24, 0x62	; 98
    2ea6:	97 e2       	ldi	r25, 0x27	; 39
    2ea8:	0e 94 43 05 	call	0xa86	; 0xa86 <initCB>
    2eac:	40 e2       	ldi	r20, 0x20	; 32
    2eae:	62 e4       	ldi	r22, 0x42	; 66
    2eb0:	77 e2       	ldi	r23, 0x27	; 39
    2eb2:	8c e3       	ldi	r24, 0x3C	; 60
    2eb4:	97 e2       	ldi	r25, 0x27	; 39
    2eb6:	0e 94 43 05 	call	0xa86	; 0xa86 <initCB>
    2eba:	80 91 a3 08 	lds	r24, 0x08A3
    2ebe:	8f 7c       	andi	r24, 0xCF	; 207
    2ec0:	80 61       	ori	r24, 0x10	; 16
    2ec2:	80 93 a3 08 	sts	0x08A3, r24
    2ec6:	08 95       	ret
    2ec8:	80 e1       	ldi	r24, 0x10	; 16
    2eca:	95 e2       	ldi	r25, 0x25	; 37
    2ecc:	f0 db       	rcall	.-2080   	; 0x26ae <sendDBGLine>
    2ece:	e7 cf       	rjmp	.-50     	; 0x2e9e <setupUsb+0x24>

00002ed0 <sendUSBChar>:
    2ed0:	cf 93       	push	r28
    2ed2:	c8 2f       	mov	r28, r24
    2ed4:	6c 2f       	mov	r22, r28
    2ed6:	8c e3       	ldi	r24, 0x3C	; 60
    2ed8:	97 e2       	ldi	r25, 0x27	; 39
    2eda:	0e 94 4c 05 	call	0xa98	; 0xa98 <addByteToCB>
    2ede:	88 23       	and	r24, r24
    2ee0:	c9 f3       	breq	.-14     	; 0x2ed4 <sendUSBChar+0x4>
    2ee2:	80 91 a3 08 	lds	r24, 0x08A3
    2ee6:	8c 7f       	andi	r24, 0xFC	; 252
    2ee8:	81 60       	ori	r24, 0x01	; 1
    2eea:	80 93 a3 08 	sts	0x08A3, r24
    2eee:	cf 91       	pop	r28
    2ef0:	08 95       	ret

00002ef2 <sendUSBString>:
    2ef2:	0f 93       	push	r16
    2ef4:	1f 93       	push	r17
    2ef6:	cf 93       	push	r28
    2ef8:	df 93       	push	r29
    2efa:	06 2f       	mov	r16, r22
    2efc:	fc 01       	movw	r30, r24
    2efe:	10 81       	ld	r17, Z
    2f00:	11 23       	and	r17, r17
    2f02:	91 f0       	breq	.+36     	; 0x2f28 <sendUSBString+0x36>
    2f04:	ec 01       	movw	r28, r24
    2f06:	21 96       	adiw	r28, 0x01	; 1
    2f08:	61 2f       	mov	r22, r17
    2f0a:	8c e3       	ldi	r24, 0x3C	; 60
    2f0c:	97 e2       	ldi	r25, 0x27	; 39
    2f0e:	0e 94 4c 05 	call	0xa98	; 0xa98 <addByteToCB>
    2f12:	88 23       	and	r24, r24
    2f14:	c9 f3       	breq	.-14     	; 0x2f08 <sendUSBString+0x16>
    2f16:	80 91 a3 08 	lds	r24, 0x08A3
    2f1a:	8c 7f       	andi	r24, 0xFC	; 252
    2f1c:	81 60       	ori	r24, 0x01	; 1
    2f1e:	80 93 a3 08 	sts	0x08A3, r24
    2f22:	19 91       	ld	r17, Y+
    2f24:	11 11       	cpse	r17, r1
    2f26:	f0 cf       	rjmp	.-32     	; 0x2f08 <sendUSBString+0x16>
    2f28:	01 11       	cpse	r16, r1
    2f2a:	05 c0       	rjmp	.+10     	; 0x2f36 <sendUSBString+0x44>
    2f2c:	df 91       	pop	r29
    2f2e:	cf 91       	pop	r28
    2f30:	1f 91       	pop	r17
    2f32:	0f 91       	pop	r16
    2f34:	08 95       	ret
    2f36:	60 e0       	ldi	r22, 0x00	; 0
    2f38:	8c e3       	ldi	r24, 0x3C	; 60
    2f3a:	97 e2       	ldi	r25, 0x27	; 39
    2f3c:	0e 94 4c 05 	call	0xa98	; 0xa98 <addByteToCB>
    2f40:	88 23       	and	r24, r24
    2f42:	c9 f3       	breq	.-14     	; 0x2f36 <sendUSBString+0x44>
    2f44:	80 91 a3 08 	lds	r24, 0x08A3
    2f48:	8c 7f       	andi	r24, 0xFC	; 252
    2f4a:	81 60       	ori	r24, 0x01	; 1
    2f4c:	80 93 a3 08 	sts	0x08A3, r24
    2f50:	df 91       	pop	r29
    2f52:	cf 91       	pop	r28
    2f54:	1f 91       	pop	r17
    2f56:	0f 91       	pop	r16
    2f58:	08 95       	ret

00002f5a <sendUSBLine>:
    2f5a:	1f 93       	push	r17
    2f5c:	cf 93       	push	r28
    2f5e:	df 93       	push	r29
    2f60:	fc 01       	movw	r30, r24
    2f62:	10 81       	ld	r17, Z
    2f64:	11 23       	and	r17, r17
    2f66:	91 f0       	breq	.+36     	; 0x2f8c <sendUSBLine+0x32>
    2f68:	ec 01       	movw	r28, r24
    2f6a:	21 96       	adiw	r28, 0x01	; 1
    2f6c:	61 2f       	mov	r22, r17
    2f6e:	8c e3       	ldi	r24, 0x3C	; 60
    2f70:	97 e2       	ldi	r25, 0x27	; 39
    2f72:	0e 94 4c 05 	call	0xa98	; 0xa98 <addByteToCB>
    2f76:	88 23       	and	r24, r24
    2f78:	c9 f3       	breq	.-14     	; 0x2f6c <sendUSBLine+0x12>
    2f7a:	80 91 a3 08 	lds	r24, 0x08A3
    2f7e:	8c 7f       	andi	r24, 0xFC	; 252
    2f80:	81 60       	ori	r24, 0x01	; 1
    2f82:	80 93 a3 08 	sts	0x08A3, r24
    2f86:	19 91       	ld	r17, Y+
    2f88:	11 11       	cpse	r17, r1
    2f8a:	f0 cf       	rjmp	.-32     	; 0x2f6c <sendUSBLine+0x12>
    2f8c:	6d e0       	ldi	r22, 0x0D	; 13
    2f8e:	8c e3       	ldi	r24, 0x3C	; 60
    2f90:	97 e2       	ldi	r25, 0x27	; 39
    2f92:	0e 94 4c 05 	call	0xa98	; 0xa98 <addByteToCB>
    2f96:	88 23       	and	r24, r24
    2f98:	c9 f3       	breq	.-14     	; 0x2f8c <sendUSBLine+0x32>
    2f9a:	80 91 a3 08 	lds	r24, 0x08A3
    2f9e:	8c 7f       	andi	r24, 0xFC	; 252
    2fa0:	81 60       	ori	r24, 0x01	; 1
    2fa2:	80 93 a3 08 	sts	0x08A3, r24
    2fa6:	6a e0       	ldi	r22, 0x0A	; 10
    2fa8:	8c e3       	ldi	r24, 0x3C	; 60
    2faa:	97 e2       	ldi	r25, 0x27	; 39
    2fac:	0e 94 4c 05 	call	0xa98	; 0xa98 <addByteToCB>
    2fb0:	88 23       	and	r24, r24
    2fb2:	c9 f3       	breq	.-14     	; 0x2fa6 <sendUSBLine+0x4c>
    2fb4:	80 91 a3 08 	lds	r24, 0x08A3
    2fb8:	8c 7f       	andi	r24, 0xFC	; 252
    2fba:	81 60       	ori	r24, 0x01	; 1
    2fbc:	80 93 a3 08 	sts	0x08A3, r24
    2fc0:	df 91       	pop	r29
    2fc2:	cf 91       	pop	r28
    2fc4:	1f 91       	pop	r17
    2fc6:	08 95       	ret

00002fc8 <recvUSBString>:
    2fc8:	46 2f       	mov	r20, r22
    2fca:	bc 01       	movw	r22, r24
    2fcc:	82 e6       	ldi	r24, 0x62	; 98
    2fce:	97 e2       	ldi	r25, 0x27	; 39
    2fd0:	0c 94 8f 05 	jmp	0xb1e	; 0xb1e <readStringFromCB>

00002fd4 <__vector_25>:
    2fd4:	1f 92       	push	r1
    2fd6:	0f 92       	push	r0
    2fd8:	0f b6       	in	r0, 0x3f	; 63
    2fda:	0f 92       	push	r0
    2fdc:	11 24       	eor	r1, r1
    2fde:	0b b6       	in	r0, 0x3b	; 59
    2fe0:	0f 92       	push	r0
    2fe2:	2f 93       	push	r18
    2fe4:	3f 93       	push	r19
    2fe6:	4f 93       	push	r20
    2fe8:	5f 93       	push	r21
    2fea:	6f 93       	push	r22
    2fec:	7f 93       	push	r23
    2fee:	8f 93       	push	r24
    2ff0:	9f 93       	push	r25
    2ff2:	af 93       	push	r26
    2ff4:	bf 93       	push	r27
    2ff6:	cf 93       	push	r28
    2ff8:	ef 93       	push	r30
    2ffa:	ff 93       	push	r31
    2ffc:	cf b7       	in	r28, 0x3f	; 63
    2ffe:	f8 94       	cli
    3000:	60 91 a0 08 	lds	r22, 0x08A0
    3004:	6b 31       	cpi	r22, 0x1B	; 27
    3006:	e1 f0       	breq	.+56     	; 0x3040 <__stack+0x41>
    3008:	82 e6       	ldi	r24, 0x62	; 98
    300a:	97 e2       	ldi	r25, 0x27	; 39
    300c:	0e 94 4c 05 	call	0xa98	; 0xa98 <addByteToCB>
    3010:	80 e8       	ldi	r24, 0x80	; 128
    3012:	80 93 a1 08 	sts	0x08A1, r24
    3016:	cf bf       	out	0x3f, r28	; 63
    3018:	ff 91       	pop	r31
    301a:	ef 91       	pop	r30
    301c:	cf 91       	pop	r28
    301e:	bf 91       	pop	r27
    3020:	af 91       	pop	r26
    3022:	9f 91       	pop	r25
    3024:	8f 91       	pop	r24
    3026:	7f 91       	pop	r23
    3028:	6f 91       	pop	r22
    302a:	5f 91       	pop	r21
    302c:	4f 91       	pop	r20
    302e:	3f 91       	pop	r19
    3030:	2f 91       	pop	r18
    3032:	0f 90       	pop	r0
    3034:	0b be       	out	0x3b, r0	; 59
    3036:	0f 90       	pop	r0
    3038:	0f be       	out	0x3f, r0	; 63
    303a:	0f 90       	pop	r0
    303c:	1f 90       	pop	r1
    303e:	18 95       	reti
    3040:	61 e0       	ldi	r22, 0x01	; 1
    3042:	89 e7       	ldi	r24, 0x79	; 121
    3044:	90 e0       	ldi	r25, 0x00	; 0
    3046:	0c d2       	rcall	.+1048   	; 0x3460 <ccp_write_io>
    3048:	ff cf       	rjmp	.-2      	; 0x3048 <__stack+0x49>

0000304a <__vector_26>:
    304a:	1f 92       	push	r1
    304c:	0f 92       	push	r0
    304e:	0f b6       	in	r0, 0x3f	; 63
    3050:	0f 92       	push	r0
    3052:	11 24       	eor	r1, r1
    3054:	0b b6       	in	r0, 0x3b	; 59
    3056:	0f 92       	push	r0
    3058:	2f 93       	push	r18
    305a:	3f 93       	push	r19
    305c:	4f 93       	push	r20
    305e:	5f 93       	push	r21
    3060:	6f 93       	push	r22
    3062:	7f 93       	push	r23
    3064:	8f 93       	push	r24
    3066:	9f 93       	push	r25
    3068:	af 93       	push	r26
    306a:	bf 93       	push	r27
    306c:	ef 93       	push	r30
    306e:	ff 93       	push	r31
    3070:	cf 93       	push	r28
    3072:	df 93       	push	r29
    3074:	1f 92       	push	r1
    3076:	cd b7       	in	r28, 0x3d	; 61
    3078:	de b7       	in	r29, 0x3e	; 62
    307a:	be 01       	movw	r22, r28
    307c:	6f 5f       	subi	r22, 0xFF	; 255
    307e:	7f 4f       	sbci	r23, 0xFF	; 255
    3080:	8c e3       	ldi	r24, 0x3C	; 60
    3082:	97 e2       	ldi	r25, 0x27	; 39
    3084:	0e 94 6d 05 	call	0xada	; 0xada <readByteFromCB>
    3088:	81 11       	cpse	r24, r1
    308a:	1b c0       	rjmp	.+54     	; 0x30c2 <__vector_26+0x78>
    308c:	80 91 a3 08 	lds	r24, 0x08A3
    3090:	8c 7f       	andi	r24, 0xFC	; 252
    3092:	80 93 a3 08 	sts	0x08A3, r24
    3096:	0f 90       	pop	r0
    3098:	df 91       	pop	r29
    309a:	cf 91       	pop	r28
    309c:	ff 91       	pop	r31
    309e:	ef 91       	pop	r30
    30a0:	bf 91       	pop	r27
    30a2:	af 91       	pop	r26
    30a4:	9f 91       	pop	r25
    30a6:	8f 91       	pop	r24
    30a8:	7f 91       	pop	r23
    30aa:	6f 91       	pop	r22
    30ac:	5f 91       	pop	r21
    30ae:	4f 91       	pop	r20
    30b0:	3f 91       	pop	r19
    30b2:	2f 91       	pop	r18
    30b4:	0f 90       	pop	r0
    30b6:	0b be       	out	0x3b, r0	; 59
    30b8:	0f 90       	pop	r0
    30ba:	0f be       	out	0x3f, r0	; 63
    30bc:	0f 90       	pop	r0
    30be:	1f 90       	pop	r1
    30c0:	18 95       	reti
    30c2:	89 81       	ldd	r24, Y+1	; 0x01
    30c4:	80 93 a0 08 	sts	0x08A0, r24
    30c8:	e6 cf       	rjmp	.-52     	; 0x3096 <__vector_26+0x4c>

000030ca <PrintXY>:
    30ca:	df 92       	push	r13
    30cc:	ef 92       	push	r14
    30ce:	ff 92       	push	r15
    30d0:	0f 93       	push	r16
    30d2:	1f 93       	push	r17
    30d4:	cf 93       	push	r28
    30d6:	df 93       	push	r29
    30d8:	cd b7       	in	r28, 0x3d	; 61
    30da:	de b7       	in	r29, 0x3e	; 62
    30dc:	28 97       	sbiw	r28, 0x08	; 8
    30de:	cd bf       	out	0x3d, r28	; 61
    30e0:	de bf       	out	0x3e, r29	; 62
    30e2:	8c 01       	movw	r16, r24
    30e4:	7b 01       	movw	r14, r22
    30e6:	68 e2       	ldi	r22, 0x28	; 40
    30e8:	8c e3       	ldi	r24, 0x3C	; 60
    30ea:	97 e2       	ldi	r25, 0x27	; 39
    30ec:	0e 94 4c 05 	call	0xa98	; 0xa98 <addByteToCB>
    30f0:	88 23       	and	r24, r24
    30f2:	c9 f3       	breq	.-14     	; 0x30e6 <PrintXY+0x1c>
    30f4:	80 91 a3 08 	lds	r24, 0x08A3
    30f8:	8c 7f       	andi	r24, 0xFC	; 252
    30fa:	81 60       	ori	r24, 0x01	; 1
    30fc:	80 93 a3 08 	sts	0x08A3, r24
    3100:	4a e0       	ldi	r20, 0x0A	; 10
    3102:	be 01       	movw	r22, r28
    3104:	6f 5f       	subi	r22, 0xFF	; 255
    3106:	7f 4f       	sbci	r23, 0xFF	; 255
    3108:	c8 01       	movw	r24, r16
    310a:	0e 94 91 2c 	call	0x5922	; 0x5922 <__itoa_ncheck>
    310e:	fc 01       	movw	r30, r24
    3110:	d0 80       	ld	r13, Z
    3112:	dd 20       	and	r13, r13
    3114:	a9 f0       	breq	.+42     	; 0x3140 <PrintXY+0x76>
    3116:	8c 01       	movw	r16, r24
    3118:	0f 5f       	subi	r16, 0xFF	; 255
    311a:	1f 4f       	sbci	r17, 0xFF	; 255
    311c:	6d 2d       	mov	r22, r13
    311e:	8c e3       	ldi	r24, 0x3C	; 60
    3120:	97 e2       	ldi	r25, 0x27	; 39
    3122:	0e 94 4c 05 	call	0xa98	; 0xa98 <addByteToCB>
    3126:	88 23       	and	r24, r24
    3128:	c9 f3       	breq	.-14     	; 0x311c <PrintXY+0x52>
    312a:	80 91 a3 08 	lds	r24, 0x08A3
    312e:	8c 7f       	andi	r24, 0xFC	; 252
    3130:	81 60       	ori	r24, 0x01	; 1
    3132:	80 93 a3 08 	sts	0x08A3, r24
    3136:	f8 01       	movw	r30, r16
    3138:	d1 90       	ld	r13, Z+
    313a:	8f 01       	movw	r16, r30
    313c:	d1 10       	cpse	r13, r1
    313e:	ee cf       	rjmp	.-36     	; 0x311c <PrintXY+0x52>
    3140:	6c e2       	ldi	r22, 0x2C	; 44
    3142:	8c e3       	ldi	r24, 0x3C	; 60
    3144:	97 e2       	ldi	r25, 0x27	; 39
    3146:	0e 94 4c 05 	call	0xa98	; 0xa98 <addByteToCB>
    314a:	88 23       	and	r24, r24
    314c:	c9 f3       	breq	.-14     	; 0x3140 <PrintXY+0x76>
    314e:	80 91 a3 08 	lds	r24, 0x08A3
    3152:	8c 7f       	andi	r24, 0xFC	; 252
    3154:	81 60       	ori	r24, 0x01	; 1
    3156:	80 93 a3 08 	sts	0x08A3, r24
    315a:	4a e0       	ldi	r20, 0x0A	; 10
    315c:	be 01       	movw	r22, r28
    315e:	6f 5f       	subi	r22, 0xFF	; 255
    3160:	7f 4f       	sbci	r23, 0xFF	; 255
    3162:	c7 01       	movw	r24, r14
    3164:	0e 94 91 2c 	call	0x5922	; 0x5922 <__itoa_ncheck>
    3168:	fc 01       	movw	r30, r24
    316a:	f0 80       	ld	r15, Z
    316c:	ff 20       	and	r15, r15
    316e:	a9 f0       	breq	.+42     	; 0x319a <PrintXY+0xd0>
    3170:	8c 01       	movw	r16, r24
    3172:	0f 5f       	subi	r16, 0xFF	; 255
    3174:	1f 4f       	sbci	r17, 0xFF	; 255
    3176:	6f 2d       	mov	r22, r15
    3178:	8c e3       	ldi	r24, 0x3C	; 60
    317a:	97 e2       	ldi	r25, 0x27	; 39
    317c:	0e 94 4c 05 	call	0xa98	; 0xa98 <addByteToCB>
    3180:	88 23       	and	r24, r24
    3182:	c9 f3       	breq	.-14     	; 0x3176 <PrintXY+0xac>
    3184:	80 91 a3 08 	lds	r24, 0x08A3
    3188:	8c 7f       	andi	r24, 0xFC	; 252
    318a:	81 60       	ori	r24, 0x01	; 1
    318c:	80 93 a3 08 	sts	0x08A3, r24
    3190:	f8 01       	movw	r30, r16
    3192:	f1 90       	ld	r15, Z+
    3194:	8f 01       	movw	r16, r30
    3196:	f1 10       	cpse	r15, r1
    3198:	ee cf       	rjmp	.-36     	; 0x3176 <PrintXY+0xac>
    319a:	69 e2       	ldi	r22, 0x29	; 41
    319c:	8c e3       	ldi	r24, 0x3C	; 60
    319e:	97 e2       	ldi	r25, 0x27	; 39
    31a0:	0e 94 4c 05 	call	0xa98	; 0xa98 <addByteToCB>
    31a4:	88 23       	and	r24, r24
    31a6:	c9 f3       	breq	.-14     	; 0x319a <PrintXY+0xd0>
    31a8:	80 91 a3 08 	lds	r24, 0x08A3
    31ac:	8c 7f       	andi	r24, 0xFC	; 252
    31ae:	81 60       	ori	r24, 0x01	; 1
    31b0:	80 93 a3 08 	sts	0x08A3, r24
    31b4:	28 96       	adiw	r28, 0x08	; 8
    31b6:	cd bf       	out	0x3d, r28	; 61
    31b8:	de bf       	out	0x3e, r29	; 62
    31ba:	df 91       	pop	r29
    31bc:	cf 91       	pop	r28
    31be:	1f 91       	pop	r17
    31c0:	0f 91       	pop	r16
    31c2:	ff 90       	pop	r15
    31c4:	ef 90       	pop	r14
    31c6:	df 90       	pop	r13
    31c8:	08 95       	ret

000031ca <WatchdogInit>:
    31ca:	8a e0       	ldi	r24, 0x0A	; 10
    31cc:	0e 94 51 22 	call	0x44a2	; 0x44a2 <wdt_set_timeout_period>
    31d0:	0c 94 6c 22 	jmp	0x44d8	; 0x44d8 <wdt_enable>

000031d4 <WatchdogPet>:
    31d4:	89 e1       	ldi	r24, 0x19	; 25
    31d6:	95 e2       	ldi	r25, 0x25	; 37
    31d8:	58 da       	rcall	.-2896   	; 0x268a <sendDBGString>
    31da:	a8 95       	wdr
    31dc:	08 95       	ret

000031de <WatchdogValidate>:
    31de:	80 91 65 20 	lds	r24, 0x2065
    31e2:	90 91 66 20 	lds	r25, 0x2066
    31e6:	00 97       	sbiw	r24, 0x00	; 0
    31e8:	29 f0       	breq	.+10     	; 0x31f4 <WatchdogValidate+0x16>
    31ea:	01 97       	sbiw	r24, 0x01	; 1
    31ec:	80 93 65 20 	sts	0x2065, r24
    31f0:	90 93 66 20 	sts	0x2066, r25
    31f4:	89 e1       	ldi	r24, 0x19	; 25
    31f6:	95 e2       	ldi	r25, 0x25	; 37
    31f8:	48 da       	rcall	.-2928   	; 0x268a <sendDBGString>
    31fa:	a8 95       	wdr
    31fc:	08 95       	ret

000031fe <WatchDogEnable>:
    31fe:	81 11       	cpse	r24, r1
    3200:	02 c0       	rjmp	.+4      	; 0x3206 <WatchDogEnable+0x8>
    3202:	0c 94 64 22 	jmp	0x44c8	; 0x44c8 <wdt_disable>
    3206:	0c 94 6c 22 	jmp	0x44d8	; 0x44d8 <wdt_enable>

0000320a <WatchdogTaskRunning>:
    320a:	88 23       	and	r24, r24
    320c:	51 f0       	breq	.+20     	; 0x3222 <WatchdogTaskRunning+0x18>
    320e:	82 30       	cpi	r24, 0x02	; 2
    3210:	39 f4       	brne	.+14     	; 0x3220 <WatchdogTaskRunning+0x16>
    3212:	84 e6       	ldi	r24, 0x64	; 100
    3214:	90 e0       	ldi	r25, 0x00	; 0
    3216:	80 93 67 20 	sts	0x2067, r24
    321a:	90 93 68 20 	sts	0x2068, r25
    321e:	08 95       	ret
    3220:	08 95       	ret
    3222:	84 e6       	ldi	r24, 0x64	; 100
    3224:	90 e0       	ldi	r25, 0x00	; 0
    3226:	80 93 65 20 	sts	0x2065, r24
    322a:	90 93 66 20 	sts	0x2066, r25
    322e:	08 95       	ret

00003230 <sysclk_init>:
    3230:	47 e0       	ldi	r20, 0x07	; 7
    3232:	50 e0       	ldi	r21, 0x00	; 0
    3234:	6f ef       	ldi	r22, 0xFF	; 255
    3236:	7f ef       	ldi	r23, 0xFF	; 255
    3238:	80 e7       	ldi	r24, 0x70	; 112
    323a:	90 e0       	ldi	r25, 0x00	; 0
    323c:	0e 94 81 2c 	call	0x5902	; 0x5902 <memset>
    3240:	9f b7       	in	r25, 0x3f	; 63
    3242:	f8 94       	cli
    3244:	80 91 50 00 	lds	r24, 0x0050
    3248:	82 60       	ori	r24, 0x02	; 2
    324a:	80 93 50 00 	sts	0x0050, r24
    324e:	9f bf       	out	0x3f, r25	; 63
    3250:	80 91 51 00 	lds	r24, 0x0051
    3254:	81 ff       	sbrs	r24, 1
    3256:	fc cf       	rjmp	.-8      	; 0x3250 <sysclk_init+0x20>
    3258:	61 e0       	ldi	r22, 0x01	; 1
    325a:	80 e4       	ldi	r24, 0x40	; 64
    325c:	90 e0       	ldi	r25, 0x00	; 0
    325e:	00 d1       	rcall	.+512    	; 0x3460 <ccp_write_io>
    3260:	9f b7       	in	r25, 0x3f	; 63
    3262:	f8 94       	cli
    3264:	80 91 50 00 	lds	r24, 0x0050
    3268:	8e 7f       	andi	r24, 0xFE	; 254
    326a:	80 93 50 00 	sts	0x0050, r24
    326e:	9f bf       	out	0x3f, r25	; 63
    3270:	08 95       	ret

00003272 <sysclk_enable_module>:
    3272:	9f b7       	in	r25, 0x3f	; 63
    3274:	f8 94       	cli
    3276:	e8 2f       	mov	r30, r24
    3278:	f0 e0       	ldi	r31, 0x00	; 0
    327a:	e0 59       	subi	r30, 0x90	; 144
    327c:	ff 4f       	sbci	r31, 0xFF	; 255
    327e:	60 95       	com	r22
    3280:	80 81       	ld	r24, Z
    3282:	86 23       	and	r24, r22
    3284:	80 83       	st	Z, r24
    3286:	9f bf       	out	0x3f, r25	; 63
    3288:	08 95       	ret

0000328a <sysclk_disable_module>:
    328a:	9f b7       	in	r25, 0x3f	; 63
    328c:	f8 94       	cli
    328e:	e8 2f       	mov	r30, r24
    3290:	f0 e0       	ldi	r31, 0x00	; 0
    3292:	e0 59       	subi	r30, 0x90	; 144
    3294:	ff 4f       	sbci	r31, 0xFF	; 255
    3296:	80 81       	ld	r24, Z
    3298:	86 2b       	or	r24, r22
    329a:	80 83       	st	Z, r24
    329c:	9f bf       	out	0x3f, r25	; 63
    329e:	08 95       	ret

000032a0 <adc_enable_clock>:
    32a0:	81 15       	cp	r24, r1
    32a2:	92 40       	sbci	r25, 0x02	; 2
    32a4:	09 f0       	breq	.+2      	; 0x32a8 <adc_enable_clock+0x8>
    32a6:	08 95       	ret
    32a8:	80 91 a8 27 	lds	r24, 0x27A8
    32ac:	91 e0       	ldi	r25, 0x01	; 1
    32ae:	98 0f       	add	r25, r24
    32b0:	90 93 a8 27 	sts	0x27A8, r25
    32b4:	81 11       	cpse	r24, r1
    32b6:	f7 cf       	rjmp	.-18     	; 0x32a6 <adc_enable_clock+0x6>
    32b8:	62 e0       	ldi	r22, 0x02	; 2
    32ba:	81 e0       	ldi	r24, 0x01	; 1
    32bc:	da cf       	rjmp	.-76     	; 0x3272 <sysclk_enable_module>

000032be <adc_disable_clock>:
    32be:	81 15       	cp	r24, r1
    32c0:	92 40       	sbci	r25, 0x02	; 2
    32c2:	09 f0       	breq	.+2      	; 0x32c6 <adc_disable_clock+0x8>
    32c4:	08 95       	ret
    32c6:	80 91 a8 27 	lds	r24, 0x27A8
    32ca:	81 50       	subi	r24, 0x01	; 1
    32cc:	80 93 a8 27 	sts	0x27A8, r24
    32d0:	81 11       	cpse	r24, r1
    32d2:	f8 cf       	rjmp	.-16     	; 0x32c4 <adc_disable_clock+0x6>
    32d4:	62 e0       	ldi	r22, 0x02	; 2
    32d6:	81 e0       	ldi	r24, 0x01	; 1
    32d8:	d8 cf       	rjmp	.-80     	; 0x328a <sysclk_disable_module>

000032da <adc_enable>:
    32da:	1f 93       	push	r17
    32dc:	cf 93       	push	r28
    32de:	df 93       	push	r29
    32e0:	ec 01       	movw	r28, r24
    32e2:	1f b7       	in	r17, 0x3f	; 63
    32e4:	f8 94       	cli
    32e6:	c1 15       	cp	r28, r1
    32e8:	82 e0       	ldi	r24, 0x02	; 2
    32ea:	d8 07       	cpc	r29, r24
    32ec:	81 f0       	breq	.+32     	; 0x330e <adc_enable+0x34>
    32ee:	88 81       	ld	r24, Y
    32f0:	81 60       	ori	r24, 0x01	; 1
    32f2:	88 83       	st	Y, r24
    32f4:	1f bf       	out	0x3f, r17	; 63
    32f6:	9f b7       	in	r25, 0x3f	; 63
    32f8:	f8 94       	cli
    32fa:	80 91 0e 28 	lds	r24, 0x280E
    32fe:	8f 5f       	subi	r24, 0xFF	; 255
    3300:	80 93 0e 28 	sts	0x280E, r24
    3304:	9f bf       	out	0x3f, r25	; 63
    3306:	df 91       	pop	r29
    3308:	cf 91       	pop	r28
    330a:	1f 91       	pop	r17
    330c:	08 95       	ret
    330e:	80 91 a8 27 	lds	r24, 0x27A8
    3312:	91 e0       	ldi	r25, 0x01	; 1
    3314:	98 0f       	add	r25, r24
    3316:	90 93 a8 27 	sts	0x27A8, r25
    331a:	81 11       	cpse	r24, r1
    331c:	e8 cf       	rjmp	.-48     	; 0x32ee <adc_enable+0x14>
    331e:	62 e0       	ldi	r22, 0x02	; 2
    3320:	81 e0       	ldi	r24, 0x01	; 1
    3322:	a7 df       	rcall	.-178    	; 0x3272 <sysclk_enable_module>
    3324:	e4 cf       	rjmp	.-56     	; 0x32ee <adc_enable+0x14>

00003326 <adc_write_configuration>:
    3326:	ff 92       	push	r15
    3328:	0f 93       	push	r16
    332a:	1f 93       	push	r17
    332c:	cf 93       	push	r28
    332e:	df 93       	push	r29
    3330:	eb 01       	movw	r28, r22
    3332:	81 15       	cp	r24, r1
    3334:	92 40       	sbci	r25, 0x02	; 2
    3336:	31 f0       	breq	.+12     	; 0x3344 <adc_write_configuration+0x1e>
    3338:	df 91       	pop	r29
    333a:	cf 91       	pop	r28
    333c:	1f 91       	pop	r17
    333e:	0f 91       	pop	r16
    3340:	ff 90       	pop	r15
    3342:	08 95       	ret
    3344:	61 e2       	ldi	r22, 0x21	; 33
    3346:	70 e0       	ldi	r23, 0x00	; 0
    3348:	82 e0       	ldi	r24, 0x02	; 2
    334a:	53 d1       	rcall	.+678    	; 0x35f2 <nvm_read_byte>
    334c:	08 2f       	mov	r16, r24
    334e:	10 e0       	ldi	r17, 0x00	; 0
    3350:	60 e2       	ldi	r22, 0x20	; 32
    3352:	70 e0       	ldi	r23, 0x00	; 0
    3354:	82 e0       	ldi	r24, 0x02	; 2
    3356:	4d d1       	rcall	.+666    	; 0x35f2 <nvm_read_byte>
    3358:	10 2f       	mov	r17, r16
    335a:	00 27       	eor	r16, r16
    335c:	08 2b       	or	r16, r24
    335e:	ff b6       	in	r15, 0x3f	; 63
    3360:	f8 94       	cli
    3362:	80 e0       	ldi	r24, 0x00	; 0
    3364:	92 e0       	ldi	r25, 0x02	; 2
    3366:	9c df       	rcall	.-200    	; 0x32a0 <adc_enable_clock>
    3368:	20 91 00 02 	lds	r18, 0x0200
    336c:	21 70       	andi	r18, 0x01	; 1
    336e:	82 e0       	ldi	r24, 0x02	; 2
    3370:	80 93 00 02 	sts	0x0200, r24
    3374:	00 93 0c 02 	sts	0x020C, r16
    3378:	10 93 0d 02 	sts	0x020D, r17
    337c:	8c 81       	ldd	r24, Y+4	; 0x04
    337e:	9d 81       	ldd	r25, Y+5	; 0x05
    3380:	80 93 18 02 	sts	0x0218, r24
    3384:	90 93 19 02 	sts	0x0219, r25
    3388:	89 81       	ldd	r24, Y+1	; 0x01
    338a:	80 93 02 02 	sts	0x0202, r24
    338e:	8b 81       	ldd	r24, Y+3	; 0x03
    3390:	80 93 04 02 	sts	0x0204, r24
    3394:	8a 81       	ldd	r24, Y+2	; 0x02
    3396:	80 93 03 02 	sts	0x0203, r24
    339a:	88 81       	ld	r24, Y
    339c:	80 93 01 02 	sts	0x0201, r24
    33a0:	20 93 00 02 	sts	0x0200, r18
    33a4:	80 e0       	ldi	r24, 0x00	; 0
    33a6:	92 e0       	ldi	r25, 0x02	; 2
    33a8:	8a df       	rcall	.-236    	; 0x32be <adc_disable_clock>
    33aa:	ff be       	out	0x3f, r15	; 63
    33ac:	df 91       	pop	r29
    33ae:	cf 91       	pop	r28
    33b0:	1f 91       	pop	r17
    33b2:	0f 91       	pop	r16
    33b4:	ff 90       	pop	r15
    33b6:	08 95       	ret

000033b8 <adc_read_configuration>:
    33b8:	ff 92       	push	r15
    33ba:	0f 93       	push	r16
    33bc:	1f 93       	push	r17
    33be:	cf 93       	push	r28
    33c0:	df 93       	push	r29
    33c2:	ec 01       	movw	r28, r24
    33c4:	8b 01       	movw	r16, r22
    33c6:	ff b6       	in	r15, 0x3f	; 63
    33c8:	f8 94       	cli
    33ca:	6a df       	rcall	.-300    	; 0x32a0 <adc_enable_clock>
    33cc:	88 8d       	ldd	r24, Y+24	; 0x18
    33ce:	99 8d       	ldd	r25, Y+25	; 0x19
    33d0:	f8 01       	movw	r30, r16
    33d2:	84 83       	std	Z+4, r24	; 0x04
    33d4:	95 83       	std	Z+5, r25	; 0x05
    33d6:	8a 81       	ldd	r24, Y+2	; 0x02
    33d8:	81 83       	std	Z+1, r24	; 0x01
    33da:	8c 81       	ldd	r24, Y+4	; 0x04
    33dc:	83 83       	std	Z+3, r24	; 0x03
    33de:	8b 81       	ldd	r24, Y+3	; 0x03
    33e0:	82 83       	std	Z+2, r24	; 0x02
    33e2:	89 81       	ldd	r24, Y+1	; 0x01
    33e4:	80 83       	st	Z, r24
    33e6:	ce 01       	movw	r24, r28
    33e8:	6a df       	rcall	.-300    	; 0x32be <adc_disable_clock>
    33ea:	ff be       	out	0x3f, r15	; 63
    33ec:	df 91       	pop	r29
    33ee:	cf 91       	pop	r28
    33f0:	1f 91       	pop	r17
    33f2:	0f 91       	pop	r16
    33f4:	ff 90       	pop	r15
    33f6:	08 95       	ret

000033f8 <adcch_write_configuration>:
    33f8:	ff 92       	push	r15
    33fa:	0f 93       	push	r16
    33fc:	1f 93       	push	r17
    33fe:	cf 93       	push	r28
    3400:	df 93       	push	r29
    3402:	ec 01       	movw	r28, r24
    3404:	8a 01       	movw	r16, r20
    3406:	ff b6       	in	r15, 0x3f	; 63
    3408:	f8 94       	cli
    340a:	4a df       	rcall	.-364    	; 0x32a0 <adc_enable_clock>
    340c:	f8 01       	movw	r30, r16
    340e:	80 81       	ld	r24, Z
    3410:	88 a3       	std	Y+32, r24	; 0x20
    3412:	82 81       	ldd	r24, Z+2	; 0x02
    3414:	8a a3       	std	Y+34, r24	; 0x22
    3416:	81 81       	ldd	r24, Z+1	; 0x01
    3418:	89 a3       	std	Y+33, r24	; 0x21
    341a:	ce 01       	movw	r24, r28
    341c:	50 df       	rcall	.-352    	; 0x32be <adc_disable_clock>
    341e:	ff be       	out	0x3f, r15	; 63
    3420:	df 91       	pop	r29
    3422:	cf 91       	pop	r28
    3424:	1f 91       	pop	r17
    3426:	0f 91       	pop	r16
    3428:	ff 90       	pop	r15
    342a:	08 95       	ret

0000342c <adcch_read_configuration>:
    342c:	ff 92       	push	r15
    342e:	0f 93       	push	r16
    3430:	1f 93       	push	r17
    3432:	cf 93       	push	r28
    3434:	df 93       	push	r29
    3436:	ec 01       	movw	r28, r24
    3438:	8a 01       	movw	r16, r20
    343a:	ff b6       	in	r15, 0x3f	; 63
    343c:	f8 94       	cli
    343e:	30 df       	rcall	.-416    	; 0x32a0 <adc_enable_clock>
    3440:	88 a1       	ldd	r24, Y+32	; 0x20
    3442:	f8 01       	movw	r30, r16
    3444:	80 83       	st	Z, r24
    3446:	8a a1       	ldd	r24, Y+34	; 0x22
    3448:	82 83       	std	Z+2, r24	; 0x02
    344a:	89 a1       	ldd	r24, Y+33	; 0x21
    344c:	81 83       	std	Z+1, r24	; 0x01
    344e:	ce 01       	movw	r24, r28
    3450:	36 df       	rcall	.-404    	; 0x32be <adc_disable_clock>
    3452:	ff be       	out	0x3f, r15	; 63
    3454:	df 91       	pop	r29
    3456:	cf 91       	pop	r28
    3458:	1f 91       	pop	r17
    345a:	0f 91       	pop	r16
    345c:	ff 90       	pop	r15
    345e:	08 95       	ret

00003460 <ccp_write_io>:

	PUBLIC_FUNCTION(ccp_write_io)

#if defined(__GNUC__)

	out     RAMPZ, r1               // Reset bits 23:16 of Z
    3460:	1b be       	out	0x3b, r1	; 59
	movw    r30, r24                // Load addr into Z
    3462:	fc 01       	movw	r30, r24
	ldi     r18, CCP_IOREG          // Load magic CCP value
    3464:	28 ed       	ldi	r18, 0xD8	; 216
	out     CCP, r18                // Start CCP handshake
    3466:	24 bf       	out	0x34, r18	; 52
	st      Z, r22                  // Write value to I/O register
    3468:	60 83       	st	Z, r22
	ret                             // Return to caller
    346a:	08 95       	ret

0000346c <nvm_eeprom_read_buffer>:
    346c:	9b 01       	movw	r18, r22
    346e:	60 91 cf 01 	lds	r22, 0x01CF
    3472:	67 fd       	sbrc	r22, 7
    3474:	fc cf       	rjmp	.-8      	; 0x346e <nvm_eeprom_read_buffer+0x2>
    3476:	60 91 cc 01 	lds	r22, 0x01CC
    347a:	68 60       	ori	r22, 0x08	; 8
    347c:	60 93 cc 01 	sts	0x01CC, r22
    3480:	bc 01       	movw	r22, r24
    3482:	70 5f       	subi	r23, 0xF0	; 240
    3484:	c9 01       	movw	r24, r18
    3486:	0e 94 78 2c 	call	0x58f0	; 0x58f0 <memcpy>
    348a:	80 91 cc 01 	lds	r24, 0x01CC
    348e:	87 7f       	andi	r24, 0xF7	; 247
    3490:	80 93 cc 01 	sts	0x01CC, r24
    3494:	08 95       	ret

00003496 <nvm_eeprom_erase_and_write_buffer>:
    3496:	7f 92       	push	r7
    3498:	8f 92       	push	r8
    349a:	9f 92       	push	r9
    349c:	af 92       	push	r10
    349e:	bf 92       	push	r11
    34a0:	cf 92       	push	r12
    34a2:	df 92       	push	r13
    34a4:	ef 92       	push	r14
    34a6:	ff 92       	push	r15
    34a8:	0f 93       	push	r16
    34aa:	1f 93       	push	r17
    34ac:	cf 93       	push	r28
    34ae:	df 93       	push	r29
    34b0:	7c 01       	movw	r14, r24
    34b2:	eb 01       	movw	r28, r22
    34b4:	6a 01       	movw	r12, r20
    34b6:	41 15       	cp	r20, r1
    34b8:	51 05       	cpc	r21, r1
    34ba:	09 f4       	brne	.+2      	; 0x34be <nvm_eeprom_erase_and_write_buffer+0x28>
    34bc:	42 c0       	rjmp	.+132    	; 0x3542 <nvm_eeprom_erase_and_write_buffer+0xac>
    34be:	43 e3       	ldi	r20, 0x33	; 51
    34c0:	a4 2e       	mov	r10, r20
    34c2:	55 e3       	ldi	r21, 0x35	; 53
    34c4:	b5 2e       	mov	r11, r21
    34c6:	66 e3       	ldi	r22, 0x36	; 54
    34c8:	96 2e       	mov	r9, r22
    34ca:	c7 01       	movw	r24, r14
    34cc:	8f 71       	andi	r24, 0x1F	; 31
    34ce:	99 27       	eor	r25, r25
    34d0:	89 2b       	or	r24, r25
    34d2:	29 f4       	brne	.+10     	; 0x34de <nvm_eeprom_erase_and_write_buffer+0x48>
    34d4:	20 e2       	ldi	r18, 0x20	; 32
    34d6:	c2 16       	cp	r12, r18
    34d8:	d1 04       	cpc	r13, r1
    34da:	08 f0       	brcs	.+2      	; 0x34de <nvm_eeprom_erase_and_write_buffer+0x48>
    34dc:	40 c0       	rjmp	.+128    	; 0x355e <nvm_eeprom_erase_and_write_buffer+0xc8>
    34de:	78 80       	ld	r7, Y
    34e0:	87 01       	movw	r16, r14
    34e2:	0f 5f       	subi	r16, 0xFF	; 255
    34e4:	1f 4f       	sbci	r17, 0xFF	; 255
    34e6:	80 90 ca 01 	lds	r8, 0x01CA
    34ea:	80 91 cf 01 	lds	r24, 0x01CF
    34ee:	87 fd       	sbrc	r24, 7
    34f0:	fc cf       	rjmp	.-8      	; 0x34ea <nvm_eeprom_erase_and_write_buffer+0x54>
    34f2:	80 91 cf 01 	lds	r24, 0x01CF
    34f6:	81 ff       	sbrs	r24, 1
    34f8:	06 c0       	rjmp	.+12     	; 0x3506 <nvm_eeprom_erase_and_write_buffer+0x70>
    34fa:	90 92 ca 01 	sts	0x01CA, r9
    34fe:	61 e0       	ldi	r22, 0x01	; 1
    3500:	8b ec       	ldi	r24, 0xCB	; 203
    3502:	91 e0       	ldi	r25, 0x01	; 1
    3504:	ad df       	rcall	.-166    	; 0x3460 <ccp_write_io>
    3506:	80 91 cf 01 	lds	r24, 0x01CF
    350a:	87 fd       	sbrc	r24, 7
    350c:	fc cf       	rjmp	.-8      	; 0x3506 <nvm_eeprom_erase_and_write_buffer+0x70>
    350e:	a0 92 ca 01 	sts	0x01CA, r10
    3512:	10 92 c2 01 	sts	0x01C2, r1
    3516:	f0 92 c1 01 	sts	0x01C1, r15
    351a:	e0 92 c0 01 	sts	0x01C0, r14
    351e:	70 92 c4 01 	sts	0x01C4, r7
    3522:	b0 92 ca 01 	sts	0x01CA, r11
    3526:	61 e0       	ldi	r22, 0x01	; 1
    3528:	8b ec       	ldi	r24, 0xCB	; 203
    352a:	91 e0       	ldi	r25, 0x01	; 1
    352c:	99 df       	rcall	.-206    	; 0x3460 <ccp_write_io>
    352e:	80 92 ca 01 	sts	0x01CA, r8
    3532:	21 96       	adiw	r28, 0x01	; 1
    3534:	81 e0       	ldi	r24, 0x01	; 1
    3536:	c8 1a       	sub	r12, r24
    3538:	d1 08       	sbc	r13, r1
    353a:	78 01       	movw	r14, r16
    353c:	c1 14       	cp	r12, r1
    353e:	d1 04       	cpc	r13, r1
    3540:	21 f6       	brne	.-120    	; 0x34ca <nvm_eeprom_erase_and_write_buffer+0x34>
    3542:	df 91       	pop	r29
    3544:	cf 91       	pop	r28
    3546:	1f 91       	pop	r17
    3548:	0f 91       	pop	r16
    354a:	ff 90       	pop	r15
    354c:	ef 90       	pop	r14
    354e:	df 90       	pop	r13
    3550:	cf 90       	pop	r12
    3552:	bf 90       	pop	r11
    3554:	af 90       	pop	r10
    3556:	9f 90       	pop	r9
    3558:	8f 90       	pop	r8
    355a:	7f 90       	pop	r7
    355c:	08 95       	ret
    355e:	90 91 ca 01 	lds	r25, 0x01CA
    3562:	80 91 cf 01 	lds	r24, 0x01CF
    3566:	87 fd       	sbrc	r24, 7
    3568:	fc cf       	rjmp	.-8      	; 0x3562 <nvm_eeprom_erase_and_write_buffer+0xcc>
    356a:	a0 92 ca 01 	sts	0x01CA, r10
    356e:	10 92 c2 01 	sts	0x01C2, r1
    3572:	10 92 c1 01 	sts	0x01C1, r1
    3576:	8e 01       	movw	r16, r28
    3578:	00 5e       	subi	r16, 0xE0	; 224
    357a:	1f 4f       	sbci	r17, 0xFF	; 255
    357c:	fe 01       	movw	r30, r28
    357e:	8e 2f       	mov	r24, r30
    3580:	8c 1b       	sub	r24, r28
    3582:	80 93 c0 01 	sts	0x01C0, r24
    3586:	81 91       	ld	r24, Z+
    3588:	80 93 c4 01 	sts	0x01C4, r24
    358c:	e0 17       	cp	r30, r16
    358e:	f1 07       	cpc	r31, r17
    3590:	b1 f7       	brne	.-20     	; 0x357e <nvm_eeprom_erase_and_write_buffer+0xe8>
    3592:	90 93 ca 01 	sts	0x01CA, r25
    3596:	c7 01       	movw	r24, r14
    3598:	96 95       	lsr	r25
    359a:	87 95       	ror	r24
    359c:	92 95       	swap	r25
    359e:	82 95       	swap	r24
    35a0:	8f 70       	andi	r24, 0x0F	; 15
    35a2:	89 27       	eor	r24, r25
    35a4:	9f 70       	andi	r25, 0x0F	; 15
    35a6:	89 27       	eor	r24, r25
    35a8:	20 91 cf 01 	lds	r18, 0x01CF
    35ac:	27 fd       	sbrc	r18, 7
    35ae:	fc cf       	rjmp	.-8      	; 0x35a8 <nvm_eeprom_erase_and_write_buffer+0x112>
    35b0:	99 27       	eor	r25, r25
    35b2:	88 0f       	add	r24, r24
    35b4:	99 1f       	adc	r25, r25
    35b6:	82 95       	swap	r24
    35b8:	92 95       	swap	r25
    35ba:	90 7f       	andi	r25, 0xF0	; 240
    35bc:	98 27       	eor	r25, r24
    35be:	80 7f       	andi	r24, 0xF0	; 240
    35c0:	98 27       	eor	r25, r24
    35c2:	10 92 c2 01 	sts	0x01C2, r1
    35c6:	90 93 c1 01 	sts	0x01C1, r25
    35ca:	80 93 c0 01 	sts	0x01C0, r24
    35ce:	c0 91 ca 01 	lds	r28, 0x01CA
    35d2:	b0 92 ca 01 	sts	0x01CA, r11
    35d6:	61 e0       	ldi	r22, 0x01	; 1
    35d8:	8b ec       	ldi	r24, 0xCB	; 203
    35da:	91 e0       	ldi	r25, 0x01	; 1
    35dc:	41 df       	rcall	.-382    	; 0x3460 <ccp_write_io>
    35de:	c0 93 ca 01 	sts	0x01CA, r28
    35e2:	80 e2       	ldi	r24, 0x20	; 32
    35e4:	e8 0e       	add	r14, r24
    35e6:	f1 1c       	adc	r15, r1
    35e8:	20 e2       	ldi	r18, 0x20	; 32
    35ea:	c2 1a       	sub	r12, r18
    35ec:	d1 08       	sbc	r13, r1
    35ee:	e8 01       	movw	r28, r16
    35f0:	a5 cf       	rjmp	.-182    	; 0x353c <nvm_eeprom_erase_and_write_buffer+0xa6>

000035f2 <nvm_read_byte>:
#endif

#ifndef __DOXYGEN__
	PUBLIC_FUNCTION(nvm_read_byte)
#if defined(__GNUC__)
	lds r20, NVM_CMD          ; Store NVM command register
    35f2:	40 91 ca 01 	lds	r20, 0x01CA
	mov ZL, r22               ; Load byte index into low byte of Z.
    35f6:	e6 2f       	mov	r30, r22
	mov ZH, r23               ; Load high byte into Z.
    35f8:	f7 2f       	mov	r31, r23
	sts NVM_CMD, r24          ; Load prepared command into NVM Command register.
    35fa:	80 93 ca 01 	sts	0x01CA, r24
	lpm r24, Z                ; Perform an LPM to read out byte
    35fe:	84 91       	lpm	r24, Z
	sts NVM_CMD, r20          ; Restore NVM command register
    3600:	40 93 ca 01 	sts	0x01CA, r20
	sts NVM_CMD, r16          ; Load prepared command into NVM Command register.
	lpm r16, Z                ; Perform an LPM to read out byte
	sts NVM_CMD, r20          ; Restore NVM command register
#endif

	ret
    3604:	08 95       	ret

00003606 <__vector_14>:
    3606:	1f 92       	push	r1
    3608:	0f 92       	push	r0
    360a:	0f b6       	in	r0, 0x3f	; 63
    360c:	0f 92       	push	r0
    360e:	11 24       	eor	r1, r1
    3610:	0b b6       	in	r0, 0x3b	; 59
    3612:	0f 92       	push	r0
    3614:	2f 93       	push	r18
    3616:	3f 93       	push	r19
    3618:	4f 93       	push	r20
    361a:	5f 93       	push	r21
    361c:	6f 93       	push	r22
    361e:	7f 93       	push	r23
    3620:	8f 93       	push	r24
    3622:	9f 93       	push	r25
    3624:	af 93       	push	r26
    3626:	bf 93       	push	r27
    3628:	ef 93       	push	r30
    362a:	ff 93       	push	r31
    362c:	e0 91 df 27 	lds	r30, 0x27DF
    3630:	f0 91 e0 27 	lds	r31, 0x27E0
    3634:	30 97       	sbiw	r30, 0x00	; 0
    3636:	09 f0       	breq	.+2      	; 0x363a <__vector_14+0x34>
    3638:	09 95       	icall
    363a:	ff 91       	pop	r31
    363c:	ef 91       	pop	r30
    363e:	bf 91       	pop	r27
    3640:	af 91       	pop	r26
    3642:	9f 91       	pop	r25
    3644:	8f 91       	pop	r24
    3646:	7f 91       	pop	r23
    3648:	6f 91       	pop	r22
    364a:	5f 91       	pop	r21
    364c:	4f 91       	pop	r20
    364e:	3f 91       	pop	r19
    3650:	2f 91       	pop	r18
    3652:	0f 90       	pop	r0
    3654:	0b be       	out	0x3b, r0	; 59
    3656:	0f 90       	pop	r0
    3658:	0f be       	out	0x3f, r0	; 63
    365a:	0f 90       	pop	r0
    365c:	1f 90       	pop	r1
    365e:	18 95       	reti

00003660 <__vector_15>:
    3660:	1f 92       	push	r1
    3662:	0f 92       	push	r0
    3664:	0f b6       	in	r0, 0x3f	; 63
    3666:	0f 92       	push	r0
    3668:	11 24       	eor	r1, r1
    366a:	0b b6       	in	r0, 0x3b	; 59
    366c:	0f 92       	push	r0
    366e:	2f 93       	push	r18
    3670:	3f 93       	push	r19
    3672:	4f 93       	push	r20
    3674:	5f 93       	push	r21
    3676:	6f 93       	push	r22
    3678:	7f 93       	push	r23
    367a:	8f 93       	push	r24
    367c:	9f 93       	push	r25
    367e:	af 93       	push	r26
    3680:	bf 93       	push	r27
    3682:	ef 93       	push	r30
    3684:	ff 93       	push	r31
    3686:	e0 91 dd 27 	lds	r30, 0x27DD
    368a:	f0 91 de 27 	lds	r31, 0x27DE
    368e:	30 97       	sbiw	r30, 0x00	; 0
    3690:	09 f0       	breq	.+2      	; 0x3694 <__vector_15+0x34>
    3692:	09 95       	icall
    3694:	ff 91       	pop	r31
    3696:	ef 91       	pop	r30
    3698:	bf 91       	pop	r27
    369a:	af 91       	pop	r26
    369c:	9f 91       	pop	r25
    369e:	8f 91       	pop	r24
    36a0:	7f 91       	pop	r23
    36a2:	6f 91       	pop	r22
    36a4:	5f 91       	pop	r21
    36a6:	4f 91       	pop	r20
    36a8:	3f 91       	pop	r19
    36aa:	2f 91       	pop	r18
    36ac:	0f 90       	pop	r0
    36ae:	0b be       	out	0x3b, r0	; 59
    36b0:	0f 90       	pop	r0
    36b2:	0f be       	out	0x3f, r0	; 63
    36b4:	0f 90       	pop	r0
    36b6:	1f 90       	pop	r1
    36b8:	18 95       	reti

000036ba <__vector_16>:
    36ba:	1f 92       	push	r1
    36bc:	0f 92       	push	r0
    36be:	0f b6       	in	r0, 0x3f	; 63
    36c0:	0f 92       	push	r0
    36c2:	11 24       	eor	r1, r1
    36c4:	0b b6       	in	r0, 0x3b	; 59
    36c6:	0f 92       	push	r0
    36c8:	2f 93       	push	r18
    36ca:	3f 93       	push	r19
    36cc:	4f 93       	push	r20
    36ce:	5f 93       	push	r21
    36d0:	6f 93       	push	r22
    36d2:	7f 93       	push	r23
    36d4:	8f 93       	push	r24
    36d6:	9f 93       	push	r25
    36d8:	af 93       	push	r26
    36da:	bf 93       	push	r27
    36dc:	ef 93       	push	r30
    36de:	ff 93       	push	r31
    36e0:	e0 91 db 27 	lds	r30, 0x27DB
    36e4:	f0 91 dc 27 	lds	r31, 0x27DC
    36e8:	30 97       	sbiw	r30, 0x00	; 0
    36ea:	09 f0       	breq	.+2      	; 0x36ee <__vector_16+0x34>
    36ec:	09 95       	icall
    36ee:	ff 91       	pop	r31
    36f0:	ef 91       	pop	r30
    36f2:	bf 91       	pop	r27
    36f4:	af 91       	pop	r26
    36f6:	9f 91       	pop	r25
    36f8:	8f 91       	pop	r24
    36fa:	7f 91       	pop	r23
    36fc:	6f 91       	pop	r22
    36fe:	5f 91       	pop	r21
    3700:	4f 91       	pop	r20
    3702:	3f 91       	pop	r19
    3704:	2f 91       	pop	r18
    3706:	0f 90       	pop	r0
    3708:	0b be       	out	0x3b, r0	; 59
    370a:	0f 90       	pop	r0
    370c:	0f be       	out	0x3f, r0	; 63
    370e:	0f 90       	pop	r0
    3710:	1f 90       	pop	r1
    3712:	18 95       	reti

00003714 <__vector_17>:
    3714:	1f 92       	push	r1
    3716:	0f 92       	push	r0
    3718:	0f b6       	in	r0, 0x3f	; 63
    371a:	0f 92       	push	r0
    371c:	11 24       	eor	r1, r1
    371e:	0b b6       	in	r0, 0x3b	; 59
    3720:	0f 92       	push	r0
    3722:	2f 93       	push	r18
    3724:	3f 93       	push	r19
    3726:	4f 93       	push	r20
    3728:	5f 93       	push	r21
    372a:	6f 93       	push	r22
    372c:	7f 93       	push	r23
    372e:	8f 93       	push	r24
    3730:	9f 93       	push	r25
    3732:	af 93       	push	r26
    3734:	bf 93       	push	r27
    3736:	ef 93       	push	r30
    3738:	ff 93       	push	r31
    373a:	e0 91 d9 27 	lds	r30, 0x27D9
    373e:	f0 91 da 27 	lds	r31, 0x27DA
    3742:	30 97       	sbiw	r30, 0x00	; 0
    3744:	09 f0       	breq	.+2      	; 0x3748 <__vector_17+0x34>
    3746:	09 95       	icall
    3748:	ff 91       	pop	r31
    374a:	ef 91       	pop	r30
    374c:	bf 91       	pop	r27
    374e:	af 91       	pop	r26
    3750:	9f 91       	pop	r25
    3752:	8f 91       	pop	r24
    3754:	7f 91       	pop	r23
    3756:	6f 91       	pop	r22
    3758:	5f 91       	pop	r21
    375a:	4f 91       	pop	r20
    375c:	3f 91       	pop	r19
    375e:	2f 91       	pop	r18
    3760:	0f 90       	pop	r0
    3762:	0b be       	out	0x3b, r0	; 59
    3764:	0f 90       	pop	r0
    3766:	0f be       	out	0x3f, r0	; 63
    3768:	0f 90       	pop	r0
    376a:	1f 90       	pop	r1
    376c:	18 95       	reti

0000376e <__vector_18>:
    376e:	1f 92       	push	r1
    3770:	0f 92       	push	r0
    3772:	0f b6       	in	r0, 0x3f	; 63
    3774:	0f 92       	push	r0
    3776:	11 24       	eor	r1, r1
    3778:	0b b6       	in	r0, 0x3b	; 59
    377a:	0f 92       	push	r0
    377c:	2f 93       	push	r18
    377e:	3f 93       	push	r19
    3780:	4f 93       	push	r20
    3782:	5f 93       	push	r21
    3784:	6f 93       	push	r22
    3786:	7f 93       	push	r23
    3788:	8f 93       	push	r24
    378a:	9f 93       	push	r25
    378c:	af 93       	push	r26
    378e:	bf 93       	push	r27
    3790:	ef 93       	push	r30
    3792:	ff 93       	push	r31
    3794:	e0 91 d7 27 	lds	r30, 0x27D7
    3798:	f0 91 d8 27 	lds	r31, 0x27D8
    379c:	30 97       	sbiw	r30, 0x00	; 0
    379e:	09 f0       	breq	.+2      	; 0x37a2 <__vector_18+0x34>
    37a0:	09 95       	icall
    37a2:	ff 91       	pop	r31
    37a4:	ef 91       	pop	r30
    37a6:	bf 91       	pop	r27
    37a8:	af 91       	pop	r26
    37aa:	9f 91       	pop	r25
    37ac:	8f 91       	pop	r24
    37ae:	7f 91       	pop	r23
    37b0:	6f 91       	pop	r22
    37b2:	5f 91       	pop	r21
    37b4:	4f 91       	pop	r20
    37b6:	3f 91       	pop	r19
    37b8:	2f 91       	pop	r18
    37ba:	0f 90       	pop	r0
    37bc:	0b be       	out	0x3b, r0	; 59
    37be:	0f 90       	pop	r0
    37c0:	0f be       	out	0x3f, r0	; 63
    37c2:	0f 90       	pop	r0
    37c4:	1f 90       	pop	r1
    37c6:	18 95       	reti

000037c8 <__vector_19>:
    37c8:	1f 92       	push	r1
    37ca:	0f 92       	push	r0
    37cc:	0f b6       	in	r0, 0x3f	; 63
    37ce:	0f 92       	push	r0
    37d0:	11 24       	eor	r1, r1
    37d2:	0b b6       	in	r0, 0x3b	; 59
    37d4:	0f 92       	push	r0
    37d6:	2f 93       	push	r18
    37d8:	3f 93       	push	r19
    37da:	4f 93       	push	r20
    37dc:	5f 93       	push	r21
    37de:	6f 93       	push	r22
    37e0:	7f 93       	push	r23
    37e2:	8f 93       	push	r24
    37e4:	9f 93       	push	r25
    37e6:	af 93       	push	r26
    37e8:	bf 93       	push	r27
    37ea:	ef 93       	push	r30
    37ec:	ff 93       	push	r31
    37ee:	e0 91 d5 27 	lds	r30, 0x27D5
    37f2:	f0 91 d6 27 	lds	r31, 0x27D6
    37f6:	30 97       	sbiw	r30, 0x00	; 0
    37f8:	09 f0       	breq	.+2      	; 0x37fc <__vector_19+0x34>
    37fa:	09 95       	icall
    37fc:	ff 91       	pop	r31
    37fe:	ef 91       	pop	r30
    3800:	bf 91       	pop	r27
    3802:	af 91       	pop	r26
    3804:	9f 91       	pop	r25
    3806:	8f 91       	pop	r24
    3808:	7f 91       	pop	r23
    380a:	6f 91       	pop	r22
    380c:	5f 91       	pop	r21
    380e:	4f 91       	pop	r20
    3810:	3f 91       	pop	r19
    3812:	2f 91       	pop	r18
    3814:	0f 90       	pop	r0
    3816:	0b be       	out	0x3b, r0	; 59
    3818:	0f 90       	pop	r0
    381a:	0f be       	out	0x3f, r0	; 63
    381c:	0f 90       	pop	r0
    381e:	1f 90       	pop	r1
    3820:	18 95       	reti

00003822 <__vector_20>:
    3822:	1f 92       	push	r1
    3824:	0f 92       	push	r0
    3826:	0f b6       	in	r0, 0x3f	; 63
    3828:	0f 92       	push	r0
    382a:	11 24       	eor	r1, r1
    382c:	0b b6       	in	r0, 0x3b	; 59
    382e:	0f 92       	push	r0
    3830:	2f 93       	push	r18
    3832:	3f 93       	push	r19
    3834:	4f 93       	push	r20
    3836:	5f 93       	push	r21
    3838:	6f 93       	push	r22
    383a:	7f 93       	push	r23
    383c:	8f 93       	push	r24
    383e:	9f 93       	push	r25
    3840:	af 93       	push	r26
    3842:	bf 93       	push	r27
    3844:	ef 93       	push	r30
    3846:	ff 93       	push	r31
    3848:	e0 91 d3 27 	lds	r30, 0x27D3
    384c:	f0 91 d4 27 	lds	r31, 0x27D4
    3850:	30 97       	sbiw	r30, 0x00	; 0
    3852:	09 f0       	breq	.+2      	; 0x3856 <__vector_20+0x34>
    3854:	09 95       	icall
    3856:	ff 91       	pop	r31
    3858:	ef 91       	pop	r30
    385a:	bf 91       	pop	r27
    385c:	af 91       	pop	r26
    385e:	9f 91       	pop	r25
    3860:	8f 91       	pop	r24
    3862:	7f 91       	pop	r23
    3864:	6f 91       	pop	r22
    3866:	5f 91       	pop	r21
    3868:	4f 91       	pop	r20
    386a:	3f 91       	pop	r19
    386c:	2f 91       	pop	r18
    386e:	0f 90       	pop	r0
    3870:	0b be       	out	0x3b, r0	; 59
    3872:	0f 90       	pop	r0
    3874:	0f be       	out	0x3f, r0	; 63
    3876:	0f 90       	pop	r0
    3878:	1f 90       	pop	r1
    387a:	18 95       	reti

0000387c <__vector_21>:
    387c:	1f 92       	push	r1
    387e:	0f 92       	push	r0
    3880:	0f b6       	in	r0, 0x3f	; 63
    3882:	0f 92       	push	r0
    3884:	11 24       	eor	r1, r1
    3886:	0b b6       	in	r0, 0x3b	; 59
    3888:	0f 92       	push	r0
    388a:	2f 93       	push	r18
    388c:	3f 93       	push	r19
    388e:	4f 93       	push	r20
    3890:	5f 93       	push	r21
    3892:	6f 93       	push	r22
    3894:	7f 93       	push	r23
    3896:	8f 93       	push	r24
    3898:	9f 93       	push	r25
    389a:	af 93       	push	r26
    389c:	bf 93       	push	r27
    389e:	ef 93       	push	r30
    38a0:	ff 93       	push	r31
    38a2:	e0 91 d1 27 	lds	r30, 0x27D1
    38a6:	f0 91 d2 27 	lds	r31, 0x27D2
    38aa:	30 97       	sbiw	r30, 0x00	; 0
    38ac:	09 f0       	breq	.+2      	; 0x38b0 <__vector_21+0x34>
    38ae:	09 95       	icall
    38b0:	ff 91       	pop	r31
    38b2:	ef 91       	pop	r30
    38b4:	bf 91       	pop	r27
    38b6:	af 91       	pop	r26
    38b8:	9f 91       	pop	r25
    38ba:	8f 91       	pop	r24
    38bc:	7f 91       	pop	r23
    38be:	6f 91       	pop	r22
    38c0:	5f 91       	pop	r21
    38c2:	4f 91       	pop	r20
    38c4:	3f 91       	pop	r19
    38c6:	2f 91       	pop	r18
    38c8:	0f 90       	pop	r0
    38ca:	0b be       	out	0x3b, r0	; 59
    38cc:	0f 90       	pop	r0
    38ce:	0f be       	out	0x3f, r0	; 63
    38d0:	0f 90       	pop	r0
    38d2:	1f 90       	pop	r1
    38d4:	18 95       	reti

000038d6 <__vector_22>:
    38d6:	1f 92       	push	r1
    38d8:	0f 92       	push	r0
    38da:	0f b6       	in	r0, 0x3f	; 63
    38dc:	0f 92       	push	r0
    38de:	11 24       	eor	r1, r1
    38e0:	0b b6       	in	r0, 0x3b	; 59
    38e2:	0f 92       	push	r0
    38e4:	2f 93       	push	r18
    38e6:	3f 93       	push	r19
    38e8:	4f 93       	push	r20
    38ea:	5f 93       	push	r21
    38ec:	6f 93       	push	r22
    38ee:	7f 93       	push	r23
    38f0:	8f 93       	push	r24
    38f2:	9f 93       	push	r25
    38f4:	af 93       	push	r26
    38f6:	bf 93       	push	r27
    38f8:	ef 93       	push	r30
    38fa:	ff 93       	push	r31
    38fc:	e0 91 cf 27 	lds	r30, 0x27CF
    3900:	f0 91 d0 27 	lds	r31, 0x27D0
    3904:	30 97       	sbiw	r30, 0x00	; 0
    3906:	09 f0       	breq	.+2      	; 0x390a <__vector_22+0x34>
    3908:	09 95       	icall
    390a:	ff 91       	pop	r31
    390c:	ef 91       	pop	r30
    390e:	bf 91       	pop	r27
    3910:	af 91       	pop	r26
    3912:	9f 91       	pop	r25
    3914:	8f 91       	pop	r24
    3916:	7f 91       	pop	r23
    3918:	6f 91       	pop	r22
    391a:	5f 91       	pop	r21
    391c:	4f 91       	pop	r20
    391e:	3f 91       	pop	r19
    3920:	2f 91       	pop	r18
    3922:	0f 90       	pop	r0
    3924:	0b be       	out	0x3b, r0	; 59
    3926:	0f 90       	pop	r0
    3928:	0f be       	out	0x3f, r0	; 63
    392a:	0f 90       	pop	r0
    392c:	1f 90       	pop	r1
    392e:	18 95       	reti

00003930 <__vector_23>:
    3930:	1f 92       	push	r1
    3932:	0f 92       	push	r0
    3934:	0f b6       	in	r0, 0x3f	; 63
    3936:	0f 92       	push	r0
    3938:	11 24       	eor	r1, r1
    393a:	0b b6       	in	r0, 0x3b	; 59
    393c:	0f 92       	push	r0
    393e:	2f 93       	push	r18
    3940:	3f 93       	push	r19
    3942:	4f 93       	push	r20
    3944:	5f 93       	push	r21
    3946:	6f 93       	push	r22
    3948:	7f 93       	push	r23
    394a:	8f 93       	push	r24
    394c:	9f 93       	push	r25
    394e:	af 93       	push	r26
    3950:	bf 93       	push	r27
    3952:	ef 93       	push	r30
    3954:	ff 93       	push	r31
    3956:	e0 91 cd 27 	lds	r30, 0x27CD
    395a:	f0 91 ce 27 	lds	r31, 0x27CE
    395e:	30 97       	sbiw	r30, 0x00	; 0
    3960:	09 f0       	breq	.+2      	; 0x3964 <__vector_23+0x34>
    3962:	09 95       	icall
    3964:	ff 91       	pop	r31
    3966:	ef 91       	pop	r30
    3968:	bf 91       	pop	r27
    396a:	af 91       	pop	r26
    396c:	9f 91       	pop	r25
    396e:	8f 91       	pop	r24
    3970:	7f 91       	pop	r23
    3972:	6f 91       	pop	r22
    3974:	5f 91       	pop	r21
    3976:	4f 91       	pop	r20
    3978:	3f 91       	pop	r19
    397a:	2f 91       	pop	r18
    397c:	0f 90       	pop	r0
    397e:	0b be       	out	0x3b, r0	; 59
    3980:	0f 90       	pop	r0
    3982:	0f be       	out	0x3f, r0	; 63
    3984:	0f 90       	pop	r0
    3986:	1f 90       	pop	r1
    3988:	18 95       	reti

0000398a <__vector_77>:
    398a:	1f 92       	push	r1
    398c:	0f 92       	push	r0
    398e:	0f b6       	in	r0, 0x3f	; 63
    3990:	0f 92       	push	r0
    3992:	11 24       	eor	r1, r1
    3994:	0b b6       	in	r0, 0x3b	; 59
    3996:	0f 92       	push	r0
    3998:	2f 93       	push	r18
    399a:	3f 93       	push	r19
    399c:	4f 93       	push	r20
    399e:	5f 93       	push	r21
    39a0:	6f 93       	push	r22
    39a2:	7f 93       	push	r23
    39a4:	8f 93       	push	r24
    39a6:	9f 93       	push	r25
    39a8:	af 93       	push	r26
    39aa:	bf 93       	push	r27
    39ac:	ef 93       	push	r30
    39ae:	ff 93       	push	r31
    39b0:	e0 91 cb 27 	lds	r30, 0x27CB
    39b4:	f0 91 cc 27 	lds	r31, 0x27CC
    39b8:	30 97       	sbiw	r30, 0x00	; 0
    39ba:	09 f0       	breq	.+2      	; 0x39be <__vector_77+0x34>
    39bc:	09 95       	icall
    39be:	ff 91       	pop	r31
    39c0:	ef 91       	pop	r30
    39c2:	bf 91       	pop	r27
    39c4:	af 91       	pop	r26
    39c6:	9f 91       	pop	r25
    39c8:	8f 91       	pop	r24
    39ca:	7f 91       	pop	r23
    39cc:	6f 91       	pop	r22
    39ce:	5f 91       	pop	r21
    39d0:	4f 91       	pop	r20
    39d2:	3f 91       	pop	r19
    39d4:	2f 91       	pop	r18
    39d6:	0f 90       	pop	r0
    39d8:	0b be       	out	0x3b, r0	; 59
    39da:	0f 90       	pop	r0
    39dc:	0f be       	out	0x3f, r0	; 63
    39de:	0f 90       	pop	r0
    39e0:	1f 90       	pop	r1
    39e2:	18 95       	reti

000039e4 <__vector_78>:
    39e4:	1f 92       	push	r1
    39e6:	0f 92       	push	r0
    39e8:	0f b6       	in	r0, 0x3f	; 63
    39ea:	0f 92       	push	r0
    39ec:	11 24       	eor	r1, r1
    39ee:	0b b6       	in	r0, 0x3b	; 59
    39f0:	0f 92       	push	r0
    39f2:	2f 93       	push	r18
    39f4:	3f 93       	push	r19
    39f6:	4f 93       	push	r20
    39f8:	5f 93       	push	r21
    39fa:	6f 93       	push	r22
    39fc:	7f 93       	push	r23
    39fe:	8f 93       	push	r24
    3a00:	9f 93       	push	r25
    3a02:	af 93       	push	r26
    3a04:	bf 93       	push	r27
    3a06:	ef 93       	push	r30
    3a08:	ff 93       	push	r31
    3a0a:	e0 91 c9 27 	lds	r30, 0x27C9
    3a0e:	f0 91 ca 27 	lds	r31, 0x27CA
    3a12:	30 97       	sbiw	r30, 0x00	; 0
    3a14:	09 f0       	breq	.+2      	; 0x3a18 <__vector_78+0x34>
    3a16:	09 95       	icall
    3a18:	ff 91       	pop	r31
    3a1a:	ef 91       	pop	r30
    3a1c:	bf 91       	pop	r27
    3a1e:	af 91       	pop	r26
    3a20:	9f 91       	pop	r25
    3a22:	8f 91       	pop	r24
    3a24:	7f 91       	pop	r23
    3a26:	6f 91       	pop	r22
    3a28:	5f 91       	pop	r21
    3a2a:	4f 91       	pop	r20
    3a2c:	3f 91       	pop	r19
    3a2e:	2f 91       	pop	r18
    3a30:	0f 90       	pop	r0
    3a32:	0b be       	out	0x3b, r0	; 59
    3a34:	0f 90       	pop	r0
    3a36:	0f be       	out	0x3f, r0	; 63
    3a38:	0f 90       	pop	r0
    3a3a:	1f 90       	pop	r1
    3a3c:	18 95       	reti

00003a3e <__vector_79>:
    3a3e:	1f 92       	push	r1
    3a40:	0f 92       	push	r0
    3a42:	0f b6       	in	r0, 0x3f	; 63
    3a44:	0f 92       	push	r0
    3a46:	11 24       	eor	r1, r1
    3a48:	0b b6       	in	r0, 0x3b	; 59
    3a4a:	0f 92       	push	r0
    3a4c:	2f 93       	push	r18
    3a4e:	3f 93       	push	r19
    3a50:	4f 93       	push	r20
    3a52:	5f 93       	push	r21
    3a54:	6f 93       	push	r22
    3a56:	7f 93       	push	r23
    3a58:	8f 93       	push	r24
    3a5a:	9f 93       	push	r25
    3a5c:	af 93       	push	r26
    3a5e:	bf 93       	push	r27
    3a60:	ef 93       	push	r30
    3a62:	ff 93       	push	r31
    3a64:	e0 91 c7 27 	lds	r30, 0x27C7
    3a68:	f0 91 c8 27 	lds	r31, 0x27C8
    3a6c:	30 97       	sbiw	r30, 0x00	; 0
    3a6e:	09 f0       	breq	.+2      	; 0x3a72 <__vector_79+0x34>
    3a70:	09 95       	icall
    3a72:	ff 91       	pop	r31
    3a74:	ef 91       	pop	r30
    3a76:	bf 91       	pop	r27
    3a78:	af 91       	pop	r26
    3a7a:	9f 91       	pop	r25
    3a7c:	8f 91       	pop	r24
    3a7e:	7f 91       	pop	r23
    3a80:	6f 91       	pop	r22
    3a82:	5f 91       	pop	r21
    3a84:	4f 91       	pop	r20
    3a86:	3f 91       	pop	r19
    3a88:	2f 91       	pop	r18
    3a8a:	0f 90       	pop	r0
    3a8c:	0b be       	out	0x3b, r0	; 59
    3a8e:	0f 90       	pop	r0
    3a90:	0f be       	out	0x3f, r0	; 63
    3a92:	0f 90       	pop	r0
    3a94:	1f 90       	pop	r1
    3a96:	18 95       	reti

00003a98 <__vector_80>:
    3a98:	1f 92       	push	r1
    3a9a:	0f 92       	push	r0
    3a9c:	0f b6       	in	r0, 0x3f	; 63
    3a9e:	0f 92       	push	r0
    3aa0:	11 24       	eor	r1, r1
    3aa2:	0b b6       	in	r0, 0x3b	; 59
    3aa4:	0f 92       	push	r0
    3aa6:	2f 93       	push	r18
    3aa8:	3f 93       	push	r19
    3aaa:	4f 93       	push	r20
    3aac:	5f 93       	push	r21
    3aae:	6f 93       	push	r22
    3ab0:	7f 93       	push	r23
    3ab2:	8f 93       	push	r24
    3ab4:	9f 93       	push	r25
    3ab6:	af 93       	push	r26
    3ab8:	bf 93       	push	r27
    3aba:	ef 93       	push	r30
    3abc:	ff 93       	push	r31
    3abe:	e0 91 c5 27 	lds	r30, 0x27C5
    3ac2:	f0 91 c6 27 	lds	r31, 0x27C6
    3ac6:	30 97       	sbiw	r30, 0x00	; 0
    3ac8:	09 f0       	breq	.+2      	; 0x3acc <__vector_80+0x34>
    3aca:	09 95       	icall
    3acc:	ff 91       	pop	r31
    3ace:	ef 91       	pop	r30
    3ad0:	bf 91       	pop	r27
    3ad2:	af 91       	pop	r26
    3ad4:	9f 91       	pop	r25
    3ad6:	8f 91       	pop	r24
    3ad8:	7f 91       	pop	r23
    3ada:	6f 91       	pop	r22
    3adc:	5f 91       	pop	r21
    3ade:	4f 91       	pop	r20
    3ae0:	3f 91       	pop	r19
    3ae2:	2f 91       	pop	r18
    3ae4:	0f 90       	pop	r0
    3ae6:	0b be       	out	0x3b, r0	; 59
    3ae8:	0f 90       	pop	r0
    3aea:	0f be       	out	0x3f, r0	; 63
    3aec:	0f 90       	pop	r0
    3aee:	1f 90       	pop	r1
    3af0:	18 95       	reti

00003af2 <__vector_81>:
    3af2:	1f 92       	push	r1
    3af4:	0f 92       	push	r0
    3af6:	0f b6       	in	r0, 0x3f	; 63
    3af8:	0f 92       	push	r0
    3afa:	11 24       	eor	r1, r1
    3afc:	0b b6       	in	r0, 0x3b	; 59
    3afe:	0f 92       	push	r0
    3b00:	2f 93       	push	r18
    3b02:	3f 93       	push	r19
    3b04:	4f 93       	push	r20
    3b06:	5f 93       	push	r21
    3b08:	6f 93       	push	r22
    3b0a:	7f 93       	push	r23
    3b0c:	8f 93       	push	r24
    3b0e:	9f 93       	push	r25
    3b10:	af 93       	push	r26
    3b12:	bf 93       	push	r27
    3b14:	ef 93       	push	r30
    3b16:	ff 93       	push	r31
    3b18:	e0 91 c3 27 	lds	r30, 0x27C3
    3b1c:	f0 91 c4 27 	lds	r31, 0x27C4
    3b20:	30 97       	sbiw	r30, 0x00	; 0
    3b22:	09 f0       	breq	.+2      	; 0x3b26 <__vector_81+0x34>
    3b24:	09 95       	icall
    3b26:	ff 91       	pop	r31
    3b28:	ef 91       	pop	r30
    3b2a:	bf 91       	pop	r27
    3b2c:	af 91       	pop	r26
    3b2e:	9f 91       	pop	r25
    3b30:	8f 91       	pop	r24
    3b32:	7f 91       	pop	r23
    3b34:	6f 91       	pop	r22
    3b36:	5f 91       	pop	r21
    3b38:	4f 91       	pop	r20
    3b3a:	3f 91       	pop	r19
    3b3c:	2f 91       	pop	r18
    3b3e:	0f 90       	pop	r0
    3b40:	0b be       	out	0x3b, r0	; 59
    3b42:	0f 90       	pop	r0
    3b44:	0f be       	out	0x3f, r0	; 63
    3b46:	0f 90       	pop	r0
    3b48:	1f 90       	pop	r1
    3b4a:	18 95       	reti

00003b4c <__vector_82>:
    3b4c:	1f 92       	push	r1
    3b4e:	0f 92       	push	r0
    3b50:	0f b6       	in	r0, 0x3f	; 63
    3b52:	0f 92       	push	r0
    3b54:	11 24       	eor	r1, r1
    3b56:	0b b6       	in	r0, 0x3b	; 59
    3b58:	0f 92       	push	r0
    3b5a:	2f 93       	push	r18
    3b5c:	3f 93       	push	r19
    3b5e:	4f 93       	push	r20
    3b60:	5f 93       	push	r21
    3b62:	6f 93       	push	r22
    3b64:	7f 93       	push	r23
    3b66:	8f 93       	push	r24
    3b68:	9f 93       	push	r25
    3b6a:	af 93       	push	r26
    3b6c:	bf 93       	push	r27
    3b6e:	ef 93       	push	r30
    3b70:	ff 93       	push	r31
    3b72:	e0 91 c1 27 	lds	r30, 0x27C1
    3b76:	f0 91 c2 27 	lds	r31, 0x27C2
    3b7a:	30 97       	sbiw	r30, 0x00	; 0
    3b7c:	09 f0       	breq	.+2      	; 0x3b80 <__vector_82+0x34>
    3b7e:	09 95       	icall
    3b80:	ff 91       	pop	r31
    3b82:	ef 91       	pop	r30
    3b84:	bf 91       	pop	r27
    3b86:	af 91       	pop	r26
    3b88:	9f 91       	pop	r25
    3b8a:	8f 91       	pop	r24
    3b8c:	7f 91       	pop	r23
    3b8e:	6f 91       	pop	r22
    3b90:	5f 91       	pop	r21
    3b92:	4f 91       	pop	r20
    3b94:	3f 91       	pop	r19
    3b96:	2f 91       	pop	r18
    3b98:	0f 90       	pop	r0
    3b9a:	0b be       	out	0x3b, r0	; 59
    3b9c:	0f 90       	pop	r0
    3b9e:	0f be       	out	0x3f, r0	; 63
    3ba0:	0f 90       	pop	r0
    3ba2:	1f 90       	pop	r1
    3ba4:	18 95       	reti

00003ba6 <__vector_47>:
    3ba6:	1f 92       	push	r1
    3ba8:	0f 92       	push	r0
    3baa:	0f b6       	in	r0, 0x3f	; 63
    3bac:	0f 92       	push	r0
    3bae:	11 24       	eor	r1, r1
    3bb0:	0b b6       	in	r0, 0x3b	; 59
    3bb2:	0f 92       	push	r0
    3bb4:	2f 93       	push	r18
    3bb6:	3f 93       	push	r19
    3bb8:	4f 93       	push	r20
    3bba:	5f 93       	push	r21
    3bbc:	6f 93       	push	r22
    3bbe:	7f 93       	push	r23
    3bc0:	8f 93       	push	r24
    3bc2:	9f 93       	push	r25
    3bc4:	af 93       	push	r26
    3bc6:	bf 93       	push	r27
    3bc8:	ef 93       	push	r30
    3bca:	ff 93       	push	r31
    3bcc:	e0 91 bf 27 	lds	r30, 0x27BF
    3bd0:	f0 91 c0 27 	lds	r31, 0x27C0
    3bd4:	30 97       	sbiw	r30, 0x00	; 0
    3bd6:	09 f0       	breq	.+2      	; 0x3bda <__vector_47+0x34>
    3bd8:	09 95       	icall
    3bda:	ff 91       	pop	r31
    3bdc:	ef 91       	pop	r30
    3bde:	bf 91       	pop	r27
    3be0:	af 91       	pop	r26
    3be2:	9f 91       	pop	r25
    3be4:	8f 91       	pop	r24
    3be6:	7f 91       	pop	r23
    3be8:	6f 91       	pop	r22
    3bea:	5f 91       	pop	r21
    3bec:	4f 91       	pop	r20
    3bee:	3f 91       	pop	r19
    3bf0:	2f 91       	pop	r18
    3bf2:	0f 90       	pop	r0
    3bf4:	0b be       	out	0x3b, r0	; 59
    3bf6:	0f 90       	pop	r0
    3bf8:	0f be       	out	0x3f, r0	; 63
    3bfa:	0f 90       	pop	r0
    3bfc:	1f 90       	pop	r1
    3bfe:	18 95       	reti

00003c00 <__vector_48>:
    3c00:	1f 92       	push	r1
    3c02:	0f 92       	push	r0
    3c04:	0f b6       	in	r0, 0x3f	; 63
    3c06:	0f 92       	push	r0
    3c08:	11 24       	eor	r1, r1
    3c0a:	0b b6       	in	r0, 0x3b	; 59
    3c0c:	0f 92       	push	r0
    3c0e:	2f 93       	push	r18
    3c10:	3f 93       	push	r19
    3c12:	4f 93       	push	r20
    3c14:	5f 93       	push	r21
    3c16:	6f 93       	push	r22
    3c18:	7f 93       	push	r23
    3c1a:	8f 93       	push	r24
    3c1c:	9f 93       	push	r25
    3c1e:	af 93       	push	r26
    3c20:	bf 93       	push	r27
    3c22:	ef 93       	push	r30
    3c24:	ff 93       	push	r31
    3c26:	e0 91 bd 27 	lds	r30, 0x27BD
    3c2a:	f0 91 be 27 	lds	r31, 0x27BE
    3c2e:	30 97       	sbiw	r30, 0x00	; 0
    3c30:	09 f0       	breq	.+2      	; 0x3c34 <__vector_48+0x34>
    3c32:	09 95       	icall
    3c34:	ff 91       	pop	r31
    3c36:	ef 91       	pop	r30
    3c38:	bf 91       	pop	r27
    3c3a:	af 91       	pop	r26
    3c3c:	9f 91       	pop	r25
    3c3e:	8f 91       	pop	r24
    3c40:	7f 91       	pop	r23
    3c42:	6f 91       	pop	r22
    3c44:	5f 91       	pop	r21
    3c46:	4f 91       	pop	r20
    3c48:	3f 91       	pop	r19
    3c4a:	2f 91       	pop	r18
    3c4c:	0f 90       	pop	r0
    3c4e:	0b be       	out	0x3b, r0	; 59
    3c50:	0f 90       	pop	r0
    3c52:	0f be       	out	0x3f, r0	; 63
    3c54:	0f 90       	pop	r0
    3c56:	1f 90       	pop	r1
    3c58:	18 95       	reti

00003c5a <__vector_49>:
    3c5a:	1f 92       	push	r1
    3c5c:	0f 92       	push	r0
    3c5e:	0f b6       	in	r0, 0x3f	; 63
    3c60:	0f 92       	push	r0
    3c62:	11 24       	eor	r1, r1
    3c64:	0b b6       	in	r0, 0x3b	; 59
    3c66:	0f 92       	push	r0
    3c68:	2f 93       	push	r18
    3c6a:	3f 93       	push	r19
    3c6c:	4f 93       	push	r20
    3c6e:	5f 93       	push	r21
    3c70:	6f 93       	push	r22
    3c72:	7f 93       	push	r23
    3c74:	8f 93       	push	r24
    3c76:	9f 93       	push	r25
    3c78:	af 93       	push	r26
    3c7a:	bf 93       	push	r27
    3c7c:	ef 93       	push	r30
    3c7e:	ff 93       	push	r31
    3c80:	e0 91 bb 27 	lds	r30, 0x27BB
    3c84:	f0 91 bc 27 	lds	r31, 0x27BC
    3c88:	30 97       	sbiw	r30, 0x00	; 0
    3c8a:	09 f0       	breq	.+2      	; 0x3c8e <__vector_49+0x34>
    3c8c:	09 95       	icall
    3c8e:	ff 91       	pop	r31
    3c90:	ef 91       	pop	r30
    3c92:	bf 91       	pop	r27
    3c94:	af 91       	pop	r26
    3c96:	9f 91       	pop	r25
    3c98:	8f 91       	pop	r24
    3c9a:	7f 91       	pop	r23
    3c9c:	6f 91       	pop	r22
    3c9e:	5f 91       	pop	r21
    3ca0:	4f 91       	pop	r20
    3ca2:	3f 91       	pop	r19
    3ca4:	2f 91       	pop	r18
    3ca6:	0f 90       	pop	r0
    3ca8:	0b be       	out	0x3b, r0	; 59
    3caa:	0f 90       	pop	r0
    3cac:	0f be       	out	0x3f, r0	; 63
    3cae:	0f 90       	pop	r0
    3cb0:	1f 90       	pop	r1
    3cb2:	18 95       	reti

00003cb4 <__vector_50>:
    3cb4:	1f 92       	push	r1
    3cb6:	0f 92       	push	r0
    3cb8:	0f b6       	in	r0, 0x3f	; 63
    3cba:	0f 92       	push	r0
    3cbc:	11 24       	eor	r1, r1
    3cbe:	0b b6       	in	r0, 0x3b	; 59
    3cc0:	0f 92       	push	r0
    3cc2:	2f 93       	push	r18
    3cc4:	3f 93       	push	r19
    3cc6:	4f 93       	push	r20
    3cc8:	5f 93       	push	r21
    3cca:	6f 93       	push	r22
    3ccc:	7f 93       	push	r23
    3cce:	8f 93       	push	r24
    3cd0:	9f 93       	push	r25
    3cd2:	af 93       	push	r26
    3cd4:	bf 93       	push	r27
    3cd6:	ef 93       	push	r30
    3cd8:	ff 93       	push	r31
    3cda:	e0 91 b9 27 	lds	r30, 0x27B9
    3cde:	f0 91 ba 27 	lds	r31, 0x27BA
    3ce2:	30 97       	sbiw	r30, 0x00	; 0
    3ce4:	09 f0       	breq	.+2      	; 0x3ce8 <__vector_50+0x34>
    3ce6:	09 95       	icall
    3ce8:	ff 91       	pop	r31
    3cea:	ef 91       	pop	r30
    3cec:	bf 91       	pop	r27
    3cee:	af 91       	pop	r26
    3cf0:	9f 91       	pop	r25
    3cf2:	8f 91       	pop	r24
    3cf4:	7f 91       	pop	r23
    3cf6:	6f 91       	pop	r22
    3cf8:	5f 91       	pop	r21
    3cfa:	4f 91       	pop	r20
    3cfc:	3f 91       	pop	r19
    3cfe:	2f 91       	pop	r18
    3d00:	0f 90       	pop	r0
    3d02:	0b be       	out	0x3b, r0	; 59
    3d04:	0f 90       	pop	r0
    3d06:	0f be       	out	0x3f, r0	; 63
    3d08:	0f 90       	pop	r0
    3d0a:	1f 90       	pop	r1
    3d0c:	18 95       	reti

00003d0e <__vector_51>:
    3d0e:	1f 92       	push	r1
    3d10:	0f 92       	push	r0
    3d12:	0f b6       	in	r0, 0x3f	; 63
    3d14:	0f 92       	push	r0
    3d16:	11 24       	eor	r1, r1
    3d18:	0b b6       	in	r0, 0x3b	; 59
    3d1a:	0f 92       	push	r0
    3d1c:	2f 93       	push	r18
    3d1e:	3f 93       	push	r19
    3d20:	4f 93       	push	r20
    3d22:	5f 93       	push	r21
    3d24:	6f 93       	push	r22
    3d26:	7f 93       	push	r23
    3d28:	8f 93       	push	r24
    3d2a:	9f 93       	push	r25
    3d2c:	af 93       	push	r26
    3d2e:	bf 93       	push	r27
    3d30:	ef 93       	push	r30
    3d32:	ff 93       	push	r31
    3d34:	e0 91 b7 27 	lds	r30, 0x27B7
    3d38:	f0 91 b8 27 	lds	r31, 0x27B8
    3d3c:	30 97       	sbiw	r30, 0x00	; 0
    3d3e:	09 f0       	breq	.+2      	; 0x3d42 <__vector_51+0x34>
    3d40:	09 95       	icall
    3d42:	ff 91       	pop	r31
    3d44:	ef 91       	pop	r30
    3d46:	bf 91       	pop	r27
    3d48:	af 91       	pop	r26
    3d4a:	9f 91       	pop	r25
    3d4c:	8f 91       	pop	r24
    3d4e:	7f 91       	pop	r23
    3d50:	6f 91       	pop	r22
    3d52:	5f 91       	pop	r21
    3d54:	4f 91       	pop	r20
    3d56:	3f 91       	pop	r19
    3d58:	2f 91       	pop	r18
    3d5a:	0f 90       	pop	r0
    3d5c:	0b be       	out	0x3b, r0	; 59
    3d5e:	0f 90       	pop	r0
    3d60:	0f be       	out	0x3f, r0	; 63
    3d62:	0f 90       	pop	r0
    3d64:	1f 90       	pop	r1
    3d66:	18 95       	reti

00003d68 <__vector_52>:
    3d68:	1f 92       	push	r1
    3d6a:	0f 92       	push	r0
    3d6c:	0f b6       	in	r0, 0x3f	; 63
    3d6e:	0f 92       	push	r0
    3d70:	11 24       	eor	r1, r1
    3d72:	0b b6       	in	r0, 0x3b	; 59
    3d74:	0f 92       	push	r0
    3d76:	2f 93       	push	r18
    3d78:	3f 93       	push	r19
    3d7a:	4f 93       	push	r20
    3d7c:	5f 93       	push	r21
    3d7e:	6f 93       	push	r22
    3d80:	7f 93       	push	r23
    3d82:	8f 93       	push	r24
    3d84:	9f 93       	push	r25
    3d86:	af 93       	push	r26
    3d88:	bf 93       	push	r27
    3d8a:	ef 93       	push	r30
    3d8c:	ff 93       	push	r31
    3d8e:	e0 91 b5 27 	lds	r30, 0x27B5
    3d92:	f0 91 b6 27 	lds	r31, 0x27B6
    3d96:	30 97       	sbiw	r30, 0x00	; 0
    3d98:	09 f0       	breq	.+2      	; 0x3d9c <__vector_52+0x34>
    3d9a:	09 95       	icall
    3d9c:	ff 91       	pop	r31
    3d9e:	ef 91       	pop	r30
    3da0:	bf 91       	pop	r27
    3da2:	af 91       	pop	r26
    3da4:	9f 91       	pop	r25
    3da6:	8f 91       	pop	r24
    3da8:	7f 91       	pop	r23
    3daa:	6f 91       	pop	r22
    3dac:	5f 91       	pop	r21
    3dae:	4f 91       	pop	r20
    3db0:	3f 91       	pop	r19
    3db2:	2f 91       	pop	r18
    3db4:	0f 90       	pop	r0
    3db6:	0b be       	out	0x3b, r0	; 59
    3db8:	0f 90       	pop	r0
    3dba:	0f be       	out	0x3f, r0	; 63
    3dbc:	0f 90       	pop	r0
    3dbe:	1f 90       	pop	r1
    3dc0:	18 95       	reti

00003dc2 <__vector_108>:
    3dc2:	1f 92       	push	r1
    3dc4:	0f 92       	push	r0
    3dc6:	0f b6       	in	r0, 0x3f	; 63
    3dc8:	0f 92       	push	r0
    3dca:	11 24       	eor	r1, r1
    3dcc:	0b b6       	in	r0, 0x3b	; 59
    3dce:	0f 92       	push	r0
    3dd0:	2f 93       	push	r18
    3dd2:	3f 93       	push	r19
    3dd4:	4f 93       	push	r20
    3dd6:	5f 93       	push	r21
    3dd8:	6f 93       	push	r22
    3dda:	7f 93       	push	r23
    3ddc:	8f 93       	push	r24
    3dde:	9f 93       	push	r25
    3de0:	af 93       	push	r26
    3de2:	bf 93       	push	r27
    3de4:	ef 93       	push	r30
    3de6:	ff 93       	push	r31
    3de8:	e0 91 b3 27 	lds	r30, 0x27B3
    3dec:	f0 91 b4 27 	lds	r31, 0x27B4
    3df0:	30 97       	sbiw	r30, 0x00	; 0
    3df2:	09 f0       	breq	.+2      	; 0x3df6 <__vector_108+0x34>
    3df4:	09 95       	icall
    3df6:	ff 91       	pop	r31
    3df8:	ef 91       	pop	r30
    3dfa:	bf 91       	pop	r27
    3dfc:	af 91       	pop	r26
    3dfe:	9f 91       	pop	r25
    3e00:	8f 91       	pop	r24
    3e02:	7f 91       	pop	r23
    3e04:	6f 91       	pop	r22
    3e06:	5f 91       	pop	r21
    3e08:	4f 91       	pop	r20
    3e0a:	3f 91       	pop	r19
    3e0c:	2f 91       	pop	r18
    3e0e:	0f 90       	pop	r0
    3e10:	0b be       	out	0x3b, r0	; 59
    3e12:	0f 90       	pop	r0
    3e14:	0f be       	out	0x3f, r0	; 63
    3e16:	0f 90       	pop	r0
    3e18:	1f 90       	pop	r1
    3e1a:	18 95       	reti

00003e1c <__vector_109>:
    3e1c:	1f 92       	push	r1
    3e1e:	0f 92       	push	r0
    3e20:	0f b6       	in	r0, 0x3f	; 63
    3e22:	0f 92       	push	r0
    3e24:	11 24       	eor	r1, r1
    3e26:	0b b6       	in	r0, 0x3b	; 59
    3e28:	0f 92       	push	r0
    3e2a:	2f 93       	push	r18
    3e2c:	3f 93       	push	r19
    3e2e:	4f 93       	push	r20
    3e30:	5f 93       	push	r21
    3e32:	6f 93       	push	r22
    3e34:	7f 93       	push	r23
    3e36:	8f 93       	push	r24
    3e38:	9f 93       	push	r25
    3e3a:	af 93       	push	r26
    3e3c:	bf 93       	push	r27
    3e3e:	ef 93       	push	r30
    3e40:	ff 93       	push	r31
    3e42:	e0 91 b1 27 	lds	r30, 0x27B1
    3e46:	f0 91 b2 27 	lds	r31, 0x27B2
    3e4a:	30 97       	sbiw	r30, 0x00	; 0
    3e4c:	09 f0       	breq	.+2      	; 0x3e50 <__vector_109+0x34>
    3e4e:	09 95       	icall
    3e50:	ff 91       	pop	r31
    3e52:	ef 91       	pop	r30
    3e54:	bf 91       	pop	r27
    3e56:	af 91       	pop	r26
    3e58:	9f 91       	pop	r25
    3e5a:	8f 91       	pop	r24
    3e5c:	7f 91       	pop	r23
    3e5e:	6f 91       	pop	r22
    3e60:	5f 91       	pop	r21
    3e62:	4f 91       	pop	r20
    3e64:	3f 91       	pop	r19
    3e66:	2f 91       	pop	r18
    3e68:	0f 90       	pop	r0
    3e6a:	0b be       	out	0x3b, r0	; 59
    3e6c:	0f 90       	pop	r0
    3e6e:	0f be       	out	0x3f, r0	; 63
    3e70:	0f 90       	pop	r0
    3e72:	1f 90       	pop	r1
    3e74:	18 95       	reti

00003e76 <__vector_110>:
    3e76:	1f 92       	push	r1
    3e78:	0f 92       	push	r0
    3e7a:	0f b6       	in	r0, 0x3f	; 63
    3e7c:	0f 92       	push	r0
    3e7e:	11 24       	eor	r1, r1
    3e80:	0b b6       	in	r0, 0x3b	; 59
    3e82:	0f 92       	push	r0
    3e84:	2f 93       	push	r18
    3e86:	3f 93       	push	r19
    3e88:	4f 93       	push	r20
    3e8a:	5f 93       	push	r21
    3e8c:	6f 93       	push	r22
    3e8e:	7f 93       	push	r23
    3e90:	8f 93       	push	r24
    3e92:	9f 93       	push	r25
    3e94:	af 93       	push	r26
    3e96:	bf 93       	push	r27
    3e98:	ef 93       	push	r30
    3e9a:	ff 93       	push	r31
    3e9c:	e0 91 af 27 	lds	r30, 0x27AF
    3ea0:	f0 91 b0 27 	lds	r31, 0x27B0
    3ea4:	30 97       	sbiw	r30, 0x00	; 0
    3ea6:	09 f0       	breq	.+2      	; 0x3eaa <__vector_110+0x34>
    3ea8:	09 95       	icall
    3eaa:	ff 91       	pop	r31
    3eac:	ef 91       	pop	r30
    3eae:	bf 91       	pop	r27
    3eb0:	af 91       	pop	r26
    3eb2:	9f 91       	pop	r25
    3eb4:	8f 91       	pop	r24
    3eb6:	7f 91       	pop	r23
    3eb8:	6f 91       	pop	r22
    3eba:	5f 91       	pop	r21
    3ebc:	4f 91       	pop	r20
    3ebe:	3f 91       	pop	r19
    3ec0:	2f 91       	pop	r18
    3ec2:	0f 90       	pop	r0
    3ec4:	0b be       	out	0x3b, r0	; 59
    3ec6:	0f 90       	pop	r0
    3ec8:	0f be       	out	0x3f, r0	; 63
    3eca:	0f 90       	pop	r0
    3ecc:	1f 90       	pop	r1
    3ece:	18 95       	reti

00003ed0 <__vector_111>:
    3ed0:	1f 92       	push	r1
    3ed2:	0f 92       	push	r0
    3ed4:	0f b6       	in	r0, 0x3f	; 63
    3ed6:	0f 92       	push	r0
    3ed8:	11 24       	eor	r1, r1
    3eda:	0b b6       	in	r0, 0x3b	; 59
    3edc:	0f 92       	push	r0
    3ede:	2f 93       	push	r18
    3ee0:	3f 93       	push	r19
    3ee2:	4f 93       	push	r20
    3ee4:	5f 93       	push	r21
    3ee6:	6f 93       	push	r22
    3ee8:	7f 93       	push	r23
    3eea:	8f 93       	push	r24
    3eec:	9f 93       	push	r25
    3eee:	af 93       	push	r26
    3ef0:	bf 93       	push	r27
    3ef2:	ef 93       	push	r30
    3ef4:	ff 93       	push	r31
    3ef6:	e0 91 ad 27 	lds	r30, 0x27AD
    3efa:	f0 91 ae 27 	lds	r31, 0x27AE
    3efe:	30 97       	sbiw	r30, 0x00	; 0
    3f00:	09 f0       	breq	.+2      	; 0x3f04 <__vector_111+0x34>
    3f02:	09 95       	icall
    3f04:	ff 91       	pop	r31
    3f06:	ef 91       	pop	r30
    3f08:	bf 91       	pop	r27
    3f0a:	af 91       	pop	r26
    3f0c:	9f 91       	pop	r25
    3f0e:	8f 91       	pop	r24
    3f10:	7f 91       	pop	r23
    3f12:	6f 91       	pop	r22
    3f14:	5f 91       	pop	r21
    3f16:	4f 91       	pop	r20
    3f18:	3f 91       	pop	r19
    3f1a:	2f 91       	pop	r18
    3f1c:	0f 90       	pop	r0
    3f1e:	0b be       	out	0x3b, r0	; 59
    3f20:	0f 90       	pop	r0
    3f22:	0f be       	out	0x3f, r0	; 63
    3f24:	0f 90       	pop	r0
    3f26:	1f 90       	pop	r1
    3f28:	18 95       	reti

00003f2a <__vector_112>:
    3f2a:	1f 92       	push	r1
    3f2c:	0f 92       	push	r0
    3f2e:	0f b6       	in	r0, 0x3f	; 63
    3f30:	0f 92       	push	r0
    3f32:	11 24       	eor	r1, r1
    3f34:	0b b6       	in	r0, 0x3b	; 59
    3f36:	0f 92       	push	r0
    3f38:	2f 93       	push	r18
    3f3a:	3f 93       	push	r19
    3f3c:	4f 93       	push	r20
    3f3e:	5f 93       	push	r21
    3f40:	6f 93       	push	r22
    3f42:	7f 93       	push	r23
    3f44:	8f 93       	push	r24
    3f46:	9f 93       	push	r25
    3f48:	af 93       	push	r26
    3f4a:	bf 93       	push	r27
    3f4c:	ef 93       	push	r30
    3f4e:	ff 93       	push	r31
    3f50:	e0 91 ab 27 	lds	r30, 0x27AB
    3f54:	f0 91 ac 27 	lds	r31, 0x27AC
    3f58:	30 97       	sbiw	r30, 0x00	; 0
    3f5a:	09 f0       	breq	.+2      	; 0x3f5e <__vector_112+0x34>
    3f5c:	09 95       	icall
    3f5e:	ff 91       	pop	r31
    3f60:	ef 91       	pop	r30
    3f62:	bf 91       	pop	r27
    3f64:	af 91       	pop	r26
    3f66:	9f 91       	pop	r25
    3f68:	8f 91       	pop	r24
    3f6a:	7f 91       	pop	r23
    3f6c:	6f 91       	pop	r22
    3f6e:	5f 91       	pop	r21
    3f70:	4f 91       	pop	r20
    3f72:	3f 91       	pop	r19
    3f74:	2f 91       	pop	r18
    3f76:	0f 90       	pop	r0
    3f78:	0b be       	out	0x3b, r0	; 59
    3f7a:	0f 90       	pop	r0
    3f7c:	0f be       	out	0x3f, r0	; 63
    3f7e:	0f 90       	pop	r0
    3f80:	1f 90       	pop	r1
    3f82:	18 95       	reti

00003f84 <__vector_113>:
    3f84:	1f 92       	push	r1
    3f86:	0f 92       	push	r0
    3f88:	0f b6       	in	r0, 0x3f	; 63
    3f8a:	0f 92       	push	r0
    3f8c:	11 24       	eor	r1, r1
    3f8e:	0b b6       	in	r0, 0x3b	; 59
    3f90:	0f 92       	push	r0
    3f92:	2f 93       	push	r18
    3f94:	3f 93       	push	r19
    3f96:	4f 93       	push	r20
    3f98:	5f 93       	push	r21
    3f9a:	6f 93       	push	r22
    3f9c:	7f 93       	push	r23
    3f9e:	8f 93       	push	r24
    3fa0:	9f 93       	push	r25
    3fa2:	af 93       	push	r26
    3fa4:	bf 93       	push	r27
    3fa6:	ef 93       	push	r30
    3fa8:	ff 93       	push	r31
    3faa:	e0 91 a9 27 	lds	r30, 0x27A9
    3fae:	f0 91 aa 27 	lds	r31, 0x27AA
    3fb2:	30 97       	sbiw	r30, 0x00	; 0
    3fb4:	09 f0       	breq	.+2      	; 0x3fb8 <__vector_113+0x34>
    3fb6:	09 95       	icall
    3fb8:	ff 91       	pop	r31
    3fba:	ef 91       	pop	r30
    3fbc:	bf 91       	pop	r27
    3fbe:	af 91       	pop	r26
    3fc0:	9f 91       	pop	r25
    3fc2:	8f 91       	pop	r24
    3fc4:	7f 91       	pop	r23
    3fc6:	6f 91       	pop	r22
    3fc8:	5f 91       	pop	r21
    3fca:	4f 91       	pop	r20
    3fcc:	3f 91       	pop	r19
    3fce:	2f 91       	pop	r18
    3fd0:	0f 90       	pop	r0
    3fd2:	0b be       	out	0x3b, r0	; 59
    3fd4:	0f 90       	pop	r0
    3fd6:	0f be       	out	0x3f, r0	; 63
    3fd8:	0f 90       	pop	r0
    3fda:	1f 90       	pop	r1
    3fdc:	18 95       	reti

00003fde <tc_enable>:
    3fde:	cf 93       	push	r28
    3fe0:	cf b7       	in	r28, 0x3f	; 63
    3fe2:	f8 94       	cli
    3fe4:	81 15       	cp	r24, r1
    3fe6:	28 e0       	ldi	r18, 0x08	; 8
    3fe8:	92 07       	cpc	r25, r18
    3fea:	19 f1       	breq	.+70     	; 0x4032 <tc_enable+0x54>
    3fec:	80 34       	cpi	r24, 0x40	; 64
    3fee:	28 e0       	ldi	r18, 0x08	; 8
    3ff0:	92 07       	cpc	r25, r18
    3ff2:	31 f1       	breq	.+76     	; 0x4040 <tc_enable+0x62>
    3ff4:	81 15       	cp	r24, r1
    3ff6:	29 e0       	ldi	r18, 0x09	; 9
    3ff8:	92 07       	cpc	r25, r18
    3ffa:	21 f1       	breq	.+72     	; 0x4044 <tc_enable+0x66>
    3ffc:	81 15       	cp	r24, r1
    3ffe:	2a e0       	ldi	r18, 0x0A	; 10
    4000:	92 07       	cpc	r25, r18
    4002:	39 f1       	breq	.+78     	; 0x4052 <tc_enable+0x74>
    4004:	81 15       	cp	r24, r1
    4006:	9b 40       	sbci	r25, 0x0B	; 11
    4008:	19 f0       	breq	.+6      	; 0x4010 <tc_enable+0x32>
    400a:	cf bf       	out	0x3f, r28	; 63
    400c:	cf 91       	pop	r28
    400e:	08 95       	ret
    4010:	61 e0       	ldi	r22, 0x01	; 1
    4012:	86 e0       	ldi	r24, 0x06	; 6
    4014:	2e d9       	rcall	.-3492   	; 0x3272 <sysclk_enable_module>
    4016:	64 e0       	ldi	r22, 0x04	; 4
    4018:	86 e0       	ldi	r24, 0x06	; 6
    401a:	2b d9       	rcall	.-3498   	; 0x3272 <sysclk_enable_module>
    401c:	9f b7       	in	r25, 0x3f	; 63
    401e:	f8 94       	cli
    4020:	80 91 0e 28 	lds	r24, 0x280E
    4024:	8f 5f       	subi	r24, 0xFF	; 255
    4026:	80 93 0e 28 	sts	0x280E, r24
    402a:	9f bf       	out	0x3f, r25	; 63
    402c:	cf bf       	out	0x3f, r28	; 63
    402e:	cf 91       	pop	r28
    4030:	08 95       	ret
    4032:	61 e0       	ldi	r22, 0x01	; 1
    4034:	83 e0       	ldi	r24, 0x03	; 3
    4036:	1d d9       	rcall	.-3526   	; 0x3272 <sysclk_enable_module>
    4038:	64 e0       	ldi	r22, 0x04	; 4
    403a:	83 e0       	ldi	r24, 0x03	; 3
    403c:	1a d9       	rcall	.-3532   	; 0x3272 <sysclk_enable_module>
    403e:	ee cf       	rjmp	.-36     	; 0x401c <tc_enable+0x3e>
    4040:	62 e0       	ldi	r22, 0x02	; 2
    4042:	f8 cf       	rjmp	.-16     	; 0x4034 <tc_enable+0x56>
    4044:	61 e0       	ldi	r22, 0x01	; 1
    4046:	84 e0       	ldi	r24, 0x04	; 4
    4048:	14 d9       	rcall	.-3544   	; 0x3272 <sysclk_enable_module>
    404a:	64 e0       	ldi	r22, 0x04	; 4
    404c:	84 e0       	ldi	r24, 0x04	; 4
    404e:	11 d9       	rcall	.-3550   	; 0x3272 <sysclk_enable_module>
    4050:	e5 cf       	rjmp	.-54     	; 0x401c <tc_enable+0x3e>
    4052:	61 e0       	ldi	r22, 0x01	; 1
    4054:	85 e0       	ldi	r24, 0x05	; 5
    4056:	0d d9       	rcall	.-3558   	; 0x3272 <sysclk_enable_module>
    4058:	64 e0       	ldi	r22, 0x04	; 4
    405a:	85 e0       	ldi	r24, 0x05	; 5
    405c:	0a d9       	rcall	.-3564   	; 0x3272 <sysclk_enable_module>
    405e:	de cf       	rjmp	.-68     	; 0x401c <tc_enable+0x3e>

00004060 <tc_disable>:
    4060:	cf 93       	push	r28
    4062:	cf b7       	in	r28, 0x3f	; 63
    4064:	f8 94       	cli
    4066:	3f b7       	in	r19, 0x3f	; 63
    4068:	f8 94       	cli
    406a:	20 91 0e 28 	lds	r18, 0x280E
    406e:	21 50       	subi	r18, 0x01	; 1
    4070:	20 93 0e 28 	sts	0x280E, r18
    4074:	3f bf       	out	0x3f, r19	; 63
    4076:	81 15       	cp	r24, r1
    4078:	28 e0       	ldi	r18, 0x08	; 8
    407a:	92 07       	cpc	r25, r18
    407c:	d9 f0       	breq	.+54     	; 0x40b4 <tc_disable+0x54>
    407e:	80 34       	cpi	r24, 0x40	; 64
    4080:	28 e0       	ldi	r18, 0x08	; 8
    4082:	92 07       	cpc	r25, r18
    4084:	01 f1       	breq	.+64     	; 0x40c6 <tc_disable+0x66>
    4086:	81 15       	cp	r24, r1
    4088:	29 e0       	ldi	r18, 0x09	; 9
    408a:	92 07       	cpc	r25, r18
    408c:	f1 f0       	breq	.+60     	; 0x40ca <tc_disable+0x6a>
    408e:	81 15       	cp	r24, r1
    4090:	2a e0       	ldi	r18, 0x0A	; 10
    4092:	92 07       	cpc	r25, r18
    4094:	19 f1       	breq	.+70     	; 0x40dc <tc_disable+0x7c>
    4096:	81 15       	cp	r24, r1
    4098:	9b 40       	sbci	r25, 0x0B	; 11
    409a:	19 f0       	breq	.+6      	; 0x40a2 <tc_disable+0x42>
    409c:	cf bf       	out	0x3f, r28	; 63
    409e:	cf 91       	pop	r28
    40a0:	08 95       	ret
    40a2:	61 e0       	ldi	r22, 0x01	; 1
    40a4:	86 e0       	ldi	r24, 0x06	; 6
    40a6:	f1 d8       	rcall	.-3614   	; 0x328a <sysclk_disable_module>
    40a8:	64 e0       	ldi	r22, 0x04	; 4
    40aa:	86 e0       	ldi	r24, 0x06	; 6
    40ac:	ee d8       	rcall	.-3620   	; 0x328a <sysclk_disable_module>
    40ae:	cf bf       	out	0x3f, r28	; 63
    40b0:	cf 91       	pop	r28
    40b2:	08 95       	ret
    40b4:	61 e0       	ldi	r22, 0x01	; 1
    40b6:	83 e0       	ldi	r24, 0x03	; 3
    40b8:	e8 d8       	rcall	.-3632   	; 0x328a <sysclk_disable_module>
    40ba:	64 e0       	ldi	r22, 0x04	; 4
    40bc:	83 e0       	ldi	r24, 0x03	; 3
    40be:	e5 d8       	rcall	.-3638   	; 0x328a <sysclk_disable_module>
    40c0:	cf bf       	out	0x3f, r28	; 63
    40c2:	cf 91       	pop	r28
    40c4:	08 95       	ret
    40c6:	62 e0       	ldi	r22, 0x02	; 2
    40c8:	f6 cf       	rjmp	.-20     	; 0x40b6 <tc_disable+0x56>
    40ca:	61 e0       	ldi	r22, 0x01	; 1
    40cc:	84 e0       	ldi	r24, 0x04	; 4
    40ce:	dd d8       	rcall	.-3654   	; 0x328a <sysclk_disable_module>
    40d0:	64 e0       	ldi	r22, 0x04	; 4
    40d2:	84 e0       	ldi	r24, 0x04	; 4
    40d4:	da d8       	rcall	.-3660   	; 0x328a <sysclk_disable_module>
    40d6:	cf bf       	out	0x3f, r28	; 63
    40d8:	cf 91       	pop	r28
    40da:	08 95       	ret
    40dc:	61 e0       	ldi	r22, 0x01	; 1
    40de:	85 e0       	ldi	r24, 0x05	; 5
    40e0:	d4 d8       	rcall	.-3672   	; 0x328a <sysclk_disable_module>
    40e2:	64 e0       	ldi	r22, 0x04	; 4
    40e4:	85 e0       	ldi	r24, 0x05	; 5
    40e6:	d1 d8       	rcall	.-3678   	; 0x328a <sysclk_disable_module>
    40e8:	d9 cf       	rjmp	.-78     	; 0x409c <tc_disable+0x3c>

000040ea <tc_set_overflow_interrupt_callback>:
    40ea:	81 15       	cp	r24, r1
    40ec:	28 e0       	ldi	r18, 0x08	; 8
    40ee:	92 07       	cpc	r25, r18
    40f0:	d1 f0       	breq	.+52     	; 0x4126 <tc_set_overflow_interrupt_callback+0x3c>
    40f2:	80 34       	cpi	r24, 0x40	; 64
    40f4:	28 e0       	ldi	r18, 0x08	; 8
    40f6:	92 07       	cpc	r25, r18
    40f8:	d9 f0       	breq	.+54     	; 0x4130 <tc_set_overflow_interrupt_callback+0x46>
    40fa:	81 15       	cp	r24, r1
    40fc:	29 e0       	ldi	r18, 0x09	; 9
    40fe:	92 07       	cpc	r25, r18
    4100:	e1 f0       	breq	.+56     	; 0x413a <tc_set_overflow_interrupt_callback+0x50>
    4102:	81 15       	cp	r24, r1
    4104:	2a e0       	ldi	r18, 0x0A	; 10
    4106:	92 07       	cpc	r25, r18
    4108:	49 f0       	breq	.+18     	; 0x411c <tc_set_overflow_interrupt_callback+0x32>
    410a:	81 15       	cp	r24, r1
    410c:	9b 40       	sbci	r25, 0x0B	; 11
    410e:	09 f0       	breq	.+2      	; 0x4112 <tc_set_overflow_interrupt_callback+0x28>
    4110:	08 95       	ret
    4112:	60 93 b3 27 	sts	0x27B3, r22
    4116:	70 93 b4 27 	sts	0x27B4, r23
    411a:	08 95       	ret
    411c:	60 93 bf 27 	sts	0x27BF, r22
    4120:	70 93 c0 27 	sts	0x27C0, r23
    4124:	08 95       	ret
    4126:	60 93 df 27 	sts	0x27DF, r22
    412a:	70 93 e0 27 	sts	0x27E0, r23
    412e:	08 95       	ret
    4130:	60 93 d3 27 	sts	0x27D3, r22
    4134:	70 93 d4 27 	sts	0x27D4, r23
    4138:	08 95       	ret
    413a:	60 93 cb 27 	sts	0x27CB, r22
    413e:	70 93 cc 27 	sts	0x27CC, r23
    4142:	08 95       	ret

00004144 <usart_init_rs232>:
    4144:	8f 92       	push	r8
    4146:	9f 92       	push	r9
    4148:	af 92       	push	r10
    414a:	bf 92       	push	r11
    414c:	cf 92       	push	r12
    414e:	df 92       	push	r13
    4150:	ef 92       	push	r14
    4152:	ff 92       	push	r15
    4154:	0f 93       	push	r16
    4156:	1f 93       	push	r17
    4158:	cf 93       	push	r28
    415a:	df 93       	push	r29
    415c:	ec 01       	movw	r28, r24
    415e:	8b 01       	movw	r16, r22
    4160:	80 3a       	cpi	r24, 0xA0	; 160
    4162:	28 e0       	ldi	r18, 0x08	; 8
    4164:	92 07       	cpc	r25, r18
    4166:	09 f4       	brne	.+2      	; 0x416a <usart_init_rs232+0x26>
    4168:	f9 c0       	rjmp	.+498    	; 0x435c <usart_init_rs232+0x218>
    416a:	80 3a       	cpi	r24, 0xA0	; 160
    416c:	39 e0       	ldi	r19, 0x09	; 9
    416e:	93 07       	cpc	r25, r19
    4170:	09 f4       	brne	.+2      	; 0x4174 <usart_init_rs232+0x30>
    4172:	f9 c0       	rjmp	.+498    	; 0x4366 <usart_init_rs232+0x222>
    4174:	80 3a       	cpi	r24, 0xA0	; 160
    4176:	4a e0       	ldi	r20, 0x0A	; 10
    4178:	94 07       	cpc	r25, r20
    417a:	09 f4       	brne	.+2      	; 0x417e <usart_init_rs232+0x3a>
    417c:	ea c0       	rjmp	.+468    	; 0x4352 <usart_init_rs232+0x20e>
    417e:	8d 81       	ldd	r24, Y+5	; 0x05
    4180:	8f 73       	andi	r24, 0x3F	; 63
    4182:	8d 83       	std	Y+5, r24	; 0x05
    4184:	d8 01       	movw	r26, r16
    4186:	14 96       	adiw	r26, 0x04	; 4
    4188:	8c 91       	ld	r24, X
    418a:	14 97       	sbiw	r26, 0x04	; 4
    418c:	15 96       	adiw	r26, 0x05	; 5
    418e:	9c 91       	ld	r25, X
    4190:	15 97       	sbiw	r26, 0x05	; 5
    4192:	89 2b       	or	r24, r25
    4194:	16 96       	adiw	r26, 0x06	; 6
    4196:	9c 91       	ld	r25, X
    4198:	91 11       	cpse	r25, r1
    419a:	d4 c0       	rjmp	.+424    	; 0x4344 <usart_init_rs232+0x200>
    419c:	90 e0       	ldi	r25, 0x00	; 0
    419e:	89 2b       	or	r24, r25
    41a0:	8d 83       	std	Y+5, r24	; 0x05
    41a2:	f8 01       	movw	r30, r16
    41a4:	c0 80       	ld	r12, Z
    41a6:	d1 80       	ldd	r13, Z+1	; 0x01
    41a8:	e2 80       	ldd	r14, Z+2	; 0x02
    41aa:	f3 80       	ldd	r15, Z+3	; 0x03
    41ac:	8c 81       	ldd	r24, Y+4	; 0x04
    41ae:	82 ff       	sbrs	r24, 2
    41b0:	c0 c0       	rjmp	.+384    	; 0x4332 <usart_init_rs232+0x1ee>
    41b2:	40 e0       	ldi	r20, 0x00	; 0
    41b4:	59 e0       	ldi	r21, 0x09	; 9
    41b6:	6d e3       	ldi	r22, 0x3D	; 61
    41b8:	70 e0       	ldi	r23, 0x00	; 0
    41ba:	07 e0       	ldi	r16, 0x07	; 7
    41bc:	10 e0       	ldi	r17, 0x00	; 0
    41be:	20 e0       	ldi	r18, 0x00	; 0
    41c0:	30 e0       	ldi	r19, 0x00	; 0
    41c2:	4c 15       	cp	r20, r12
    41c4:	5d 05       	cpc	r21, r13
    41c6:	6e 05       	cpc	r22, r14
    41c8:	7f 05       	cpc	r23, r15
    41ca:	08 f4       	brcc	.+2      	; 0x41ce <usart_init_rs232+0x8a>
    41cc:	9e c0       	rjmp	.+316    	; 0x430a <usart_init_rs232+0x1c6>
    41ce:	c0 16       	cp	r12, r16
    41d0:	d1 06       	cpc	r13, r17
    41d2:	e2 06       	cpc	r14, r18
    41d4:	f3 06       	cpc	r15, r19
    41d6:	08 f4       	brcc	.+2      	; 0x41da <usart_init_rs232+0x96>
    41d8:	98 c0       	rjmp	.+304    	; 0x430a <usart_init_rs232+0x1c6>
    41da:	8c 81       	ldd	r24, Y+4	; 0x04
    41dc:	82 ff       	sbrs	r24, 2
    41de:	b4 c0       	rjmp	.+360    	; 0x4348 <usart_init_rs232+0x204>
    41e0:	81 2c       	mov	r8, r1
    41e2:	b8 e4       	ldi	r27, 0x48	; 72
    41e4:	9b 2e       	mov	r9, r27
    41e6:	b8 ee       	ldi	r27, 0xE8	; 232
    41e8:	ab 2e       	mov	r10, r27
    41ea:	bb 24       	eor	r11, r11
    41ec:	b3 94       	inc	r11
    41ee:	c5 01       	movw	r24, r10
    41f0:	b4 01       	movw	r22, r8
    41f2:	a7 01       	movw	r20, r14
    41f4:	96 01       	movw	r18, r12
    41f6:	0e 94 f8 2b 	call	0x57f0	; 0x57f0 <__udivmodsi4>
    41fa:	2f 3f       	cpi	r18, 0xFF	; 255
    41fc:	31 05       	cpc	r19, r1
    41fe:	41 05       	cpc	r20, r1
    4200:	51 05       	cpc	r21, r1
    4202:	08 f4       	brcc	.+2      	; 0x4206 <usart_init_rs232+0xc2>
    4204:	b5 c0       	rjmp	.+362    	; 0x4370 <usart_init_rs232+0x22c>
    4206:	2f 3f       	cpi	r18, 0xFF	; 255
    4208:	f1 e0       	ldi	r31, 0x01	; 1
    420a:	3f 07       	cpc	r19, r31
    420c:	41 05       	cpc	r20, r1
    420e:	51 05       	cpc	r21, r1
    4210:	08 f4       	brcc	.+2      	; 0x4214 <usart_init_rs232+0xd0>
    4212:	e1 c0       	rjmp	.+450    	; 0x43d6 <usart_init_rs232+0x292>
    4214:	2f 3f       	cpi	r18, 0xFF	; 255
    4216:	83 e0       	ldi	r24, 0x03	; 3
    4218:	38 07       	cpc	r19, r24
    421a:	41 05       	cpc	r20, r1
    421c:	51 05       	cpc	r21, r1
    421e:	08 f4       	brcc	.+2      	; 0x4222 <usart_init_rs232+0xde>
    4220:	18 c1       	rjmp	.+560    	; 0x4452 <usart_init_rs232+0x30e>
    4222:	2f 3f       	cpi	r18, 0xFF	; 255
    4224:	97 e0       	ldi	r25, 0x07	; 7
    4226:	39 07       	cpc	r19, r25
    4228:	41 05       	cpc	r20, r1
    422a:	51 05       	cpc	r21, r1
    422c:	08 f4       	brcc	.+2      	; 0x4230 <usart_init_rs232+0xec>
    422e:	13 c1       	rjmp	.+550    	; 0x4456 <usart_init_rs232+0x312>
    4230:	2f 3f       	cpi	r18, 0xFF	; 255
    4232:	af e0       	ldi	r26, 0x0F	; 15
    4234:	3a 07       	cpc	r19, r26
    4236:	41 05       	cpc	r20, r1
    4238:	51 05       	cpc	r21, r1
    423a:	08 f4       	brcc	.+2      	; 0x423e <usart_init_rs232+0xfa>
    423c:	0e c1       	rjmp	.+540    	; 0x445a <usart_init_rs232+0x316>
    423e:	2e 3f       	cpi	r18, 0xFE	; 254
    4240:	bf e1       	ldi	r27, 0x1F	; 31
    4242:	3b 07       	cpc	r19, r27
    4244:	41 05       	cpc	r20, r1
    4246:	51 05       	cpc	r21, r1
    4248:	08 f4       	brcc	.+2      	; 0x424c <usart_init_rs232+0x108>
    424a:	09 c1       	rjmp	.+530    	; 0x445e <usart_init_rs232+0x31a>
    424c:	2c 3f       	cpi	r18, 0xFC	; 252
    424e:	ef e3       	ldi	r30, 0x3F	; 63
    4250:	3e 07       	cpc	r19, r30
    4252:	41 05       	cpc	r20, r1
    4254:	51 05       	cpc	r21, r1
    4256:	08 f4       	brcc	.+2      	; 0x425a <usart_init_rs232+0x116>
    4258:	04 c1       	rjmp	.+520    	; 0x4462 <usart_init_rs232+0x31e>
    425a:	28 3f       	cpi	r18, 0xF8	; 248
    425c:	ff e7       	ldi	r31, 0x7F	; 127
    425e:	3f 07       	cpc	r19, r31
    4260:	41 05       	cpc	r20, r1
    4262:	51 05       	cpc	r21, r1
    4264:	08 f4       	brcc	.+2      	; 0x4268 <usart_init_rs232+0x124>
    4266:	ff c0       	rjmp	.+510    	; 0x4466 <usart_init_rs232+0x322>
    4268:	20 3f       	cpi	r18, 0xF0	; 240
    426a:	8f ef       	ldi	r24, 0xFF	; 255
    426c:	38 07       	cpc	r19, r24
    426e:	41 05       	cpc	r20, r1
    4270:	51 05       	cpc	r21, r1
    4272:	08 f4       	brcc	.+2      	; 0x4276 <usart_init_rs232+0x132>
    4274:	02 c1       	rjmp	.+516    	; 0x447a <usart_init_rs232+0x336>
    4276:	20 3e       	cpi	r18, 0xE0	; 224
    4278:	9f ef       	ldi	r25, 0xFF	; 255
    427a:	39 07       	cpc	r19, r25
    427c:	91 e0       	ldi	r25, 0x01	; 1
    427e:	49 07       	cpc	r20, r25
    4280:	51 05       	cpc	r21, r1
    4282:	08 f4       	brcc	.+2      	; 0x4286 <usart_init_rs232+0x142>
    4284:	fc c0       	rjmp	.+504    	; 0x447e <usart_init_rs232+0x33a>
    4286:	20 3c       	cpi	r18, 0xC0	; 192
    4288:	af ef       	ldi	r26, 0xFF	; 255
    428a:	3a 07       	cpc	r19, r26
    428c:	a3 e0       	ldi	r26, 0x03	; 3
    428e:	4a 07       	cpc	r20, r26
    4290:	51 05       	cpc	r21, r1
    4292:	08 f4       	brcc	.+2      	; 0x4296 <usart_init_rs232+0x152>
    4294:	f6 c0       	rjmp	.+492    	; 0x4482 <usart_init_rs232+0x33e>
    4296:	20 38       	cpi	r18, 0x80	; 128
    4298:	bf ef       	ldi	r27, 0xFF	; 255
    429a:	3b 07       	cpc	r19, r27
    429c:	b7 e0       	ldi	r27, 0x07	; 7
    429e:	4b 07       	cpc	r20, r27
    42a0:	51 05       	cpc	r21, r1
    42a2:	08 f4       	brcc	.+2      	; 0x42a6 <usart_init_rs232+0x162>
    42a4:	f0 c0       	rjmp	.+480    	; 0x4486 <usart_init_rs232+0x342>
    42a6:	21 15       	cp	r18, r1
    42a8:	ef ef       	ldi	r30, 0xFF	; 255
    42aa:	3e 07       	cpc	r19, r30
    42ac:	ef e0       	ldi	r30, 0x0F	; 15
    42ae:	4e 07       	cpc	r20, r30
    42b0:	51 05       	cpc	r21, r1
    42b2:	08 f4       	brcc	.+2      	; 0x42b6 <usart_init_rs232+0x172>
    42b4:	ea c0       	rjmp	.+468    	; 0x448a <usart_init_rs232+0x346>
    42b6:	21 15       	cp	r18, r1
    42b8:	3e 4f       	sbci	r19, 0xFE	; 254
    42ba:	4f 41       	sbci	r20, 0x1F	; 31
    42bc:	51 05       	cpc	r21, r1
    42be:	08 f4       	brcc	.+2      	; 0x42c2 <usart_init_rs232+0x17e>
    42c0:	e6 c0       	rjmp	.+460    	; 0x448e <usart_init_rs232+0x34a>
    42c2:	10 e7       	ldi	r17, 0x70	; 112
    42c4:	2a e0       	ldi	r18, 0x0A	; 10
    42c6:	30 e0       	ldi	r19, 0x00	; 0
    42c8:	d7 01       	movw	r26, r14
    42ca:	c6 01       	movw	r24, r12
    42cc:	04 c0       	rjmp	.+8      	; 0x42d6 <usart_init_rs232+0x192>
    42ce:	88 0f       	add	r24, r24
    42d0:	99 1f       	adc	r25, r25
    42d2:	aa 1f       	adc	r26, r26
    42d4:	bb 1f       	adc	r27, r27
    42d6:	2a 95       	dec	r18
    42d8:	d2 f7       	brpl	.-12     	; 0x42ce <usart_init_rs232+0x18a>
    42da:	9c 01       	movw	r18, r24
    42dc:	ad 01       	movw	r20, r26
    42de:	bc 01       	movw	r22, r24
    42e0:	cd 01       	movw	r24, r26
    42e2:	96 95       	lsr	r25
    42e4:	87 95       	ror	r24
    42e6:	77 95       	ror	r23
    42e8:	67 95       	ror	r22
    42ea:	78 5b       	subi	r23, 0xB8	; 184
    42ec:	87 41       	sbci	r24, 0x17	; 23
    42ee:	9e 4f       	sbci	r25, 0xFE	; 254
    42f0:	0e 94 f8 2b 	call	0x57f0	; 0x57f0 <__udivmodsi4>
    42f4:	21 50       	subi	r18, 0x01	; 1
    42f6:	31 09       	sbc	r19, r1
    42f8:	41 09       	sbc	r20, r1
    42fa:	51 09       	sbc	r21, r1
    42fc:	83 2f       	mov	r24, r19
    42fe:	8f 70       	andi	r24, 0x0F	; 15
    4300:	81 2b       	or	r24, r17
    4302:	8f 83       	std	Y+7, r24	; 0x07
    4304:	2e 83       	std	Y+6, r18	; 0x06
    4306:	81 e0       	ldi	r24, 0x01	; 1
    4308:	01 c0       	rjmp	.+2      	; 0x430c <usart_init_rs232+0x1c8>
    430a:	80 e0       	ldi	r24, 0x00	; 0
    430c:	9c 81       	ldd	r25, Y+4	; 0x04
    430e:	98 60       	ori	r25, 0x08	; 8
    4310:	9c 83       	std	Y+4, r25	; 0x04
    4312:	9c 81       	ldd	r25, Y+4	; 0x04
    4314:	90 61       	ori	r25, 0x10	; 16
    4316:	9c 83       	std	Y+4, r25	; 0x04
    4318:	df 91       	pop	r29
    431a:	cf 91       	pop	r28
    431c:	1f 91       	pop	r17
    431e:	0f 91       	pop	r16
    4320:	ff 90       	pop	r15
    4322:	ef 90       	pop	r14
    4324:	df 90       	pop	r13
    4326:	cf 90       	pop	r12
    4328:	bf 90       	pop	r11
    432a:	af 90       	pop	r10
    432c:	9f 90       	pop	r9
    432e:	8f 90       	pop	r8
    4330:	08 95       	ret
    4332:	40 e8       	ldi	r20, 0x80	; 128
    4334:	54 e8       	ldi	r21, 0x84	; 132
    4336:	6e e1       	ldi	r22, 0x1E	; 30
    4338:	70 e0       	ldi	r23, 0x00	; 0
    433a:	03 e0       	ldi	r16, 0x03	; 3
    433c:	10 e0       	ldi	r17, 0x00	; 0
    433e:	20 e0       	ldi	r18, 0x00	; 0
    4340:	30 e0       	ldi	r19, 0x00	; 0
    4342:	3f cf       	rjmp	.-386    	; 0x41c2 <usart_init_rs232+0x7e>
    4344:	98 e0       	ldi	r25, 0x08	; 8
    4346:	2b cf       	rjmp	.-426    	; 0x419e <usart_init_rs232+0x5a>
    4348:	cc 0c       	add	r12, r12
    434a:	dd 1c       	adc	r13, r13
    434c:	ee 1c       	adc	r14, r14
    434e:	ff 1c       	adc	r15, r15
    4350:	47 cf       	rjmp	.-370    	; 0x41e0 <usart_init_rs232+0x9c>
    4352:	60 e1       	ldi	r22, 0x10	; 16
    4354:	85 e0       	ldi	r24, 0x05	; 5
    4356:	0e 94 39 19 	call	0x3272	; 0x3272 <sysclk_enable_module>
    435a:	11 cf       	rjmp	.-478    	; 0x417e <usart_init_rs232+0x3a>
    435c:	60 e1       	ldi	r22, 0x10	; 16
    435e:	83 e0       	ldi	r24, 0x03	; 3
    4360:	0e 94 39 19 	call	0x3272	; 0x3272 <sysclk_enable_module>
    4364:	0c cf       	rjmp	.-488    	; 0x417e <usart_init_rs232+0x3a>
    4366:	60 e1       	ldi	r22, 0x10	; 16
    4368:	84 e0       	ldi	r24, 0x04	; 4
    436a:	0e 94 39 19 	call	0x3272	; 0x3272 <sysclk_enable_module>
    436e:	07 cf       	rjmp	.-498    	; 0x417e <usart_init_rs232+0x3a>
    4370:	d7 01       	movw	r26, r14
    4372:	c6 01       	movw	r24, r12
    4374:	88 0f       	add	r24, r24
    4376:	99 1f       	adc	r25, r25
    4378:	aa 1f       	adc	r26, r26
    437a:	bb 1f       	adc	r27, r27
    437c:	88 0f       	add	r24, r24
    437e:	99 1f       	adc	r25, r25
    4380:	aa 1f       	adc	r26, r26
    4382:	bb 1f       	adc	r27, r27
    4384:	88 0f       	add	r24, r24
    4386:	99 1f       	adc	r25, r25
    4388:	aa 1f       	adc	r26, r26
    438a:	bb 1f       	adc	r27, r27
    438c:	88 1a       	sub	r8, r24
    438e:	99 0a       	sbc	r9, r25
    4390:	aa 0a       	sbc	r10, r26
    4392:	bb 0a       	sbc	r11, r27
    4394:	10 e9       	ldi	r17, 0x90	; 144
    4396:	29 ef       	ldi	r18, 0xF9	; 249
    4398:	3f ef       	ldi	r19, 0xFF	; 255
    439a:	6d ef       	ldi	r22, 0xFD	; 253
    439c:	7f ef       	ldi	r23, 0xFF	; 255
    439e:	62 1b       	sub	r22, r18
    43a0:	73 0b       	sbc	r23, r19
    43a2:	a5 01       	movw	r20, r10
    43a4:	94 01       	movw	r18, r8
    43a6:	04 c0       	rjmp	.+8      	; 0x43b0 <usart_init_rs232+0x26c>
    43a8:	22 0f       	add	r18, r18
    43aa:	33 1f       	adc	r19, r19
    43ac:	44 1f       	adc	r20, r20
    43ae:	55 1f       	adc	r21, r21
    43b0:	6a 95       	dec	r22
    43b2:	d2 f7       	brpl	.-12     	; 0x43a8 <usart_init_rs232+0x264>
    43b4:	ca 01       	movw	r24, r20
    43b6:	b9 01       	movw	r22, r18
    43b8:	46 01       	movw	r8, r12
    43ba:	57 01       	movw	r10, r14
    43bc:	b6 94       	lsr	r11
    43be:	a7 94       	ror	r10
    43c0:	97 94       	ror	r9
    43c2:	87 94       	ror	r8
    43c4:	68 0d       	add	r22, r8
    43c6:	79 1d       	adc	r23, r9
    43c8:	8a 1d       	adc	r24, r10
    43ca:	9b 1d       	adc	r25, r11
    43cc:	a7 01       	movw	r20, r14
    43ce:	96 01       	movw	r18, r12
    43d0:	0e 94 f8 2b 	call	0x57f0	; 0x57f0 <__udivmodsi4>
    43d4:	93 cf       	rjmp	.-218    	; 0x42fc <usart_init_rs232+0x1b8>
    43d6:	4a ef       	ldi	r20, 0xFA	; 250
    43d8:	24 2f       	mov	r18, r20
    43da:	33 27       	eor	r19, r19
    43dc:	27 fd       	sbrc	r18, 7
    43de:	30 95       	com	r19
    43e0:	14 2f       	mov	r17, r20
    43e2:	12 95       	swap	r17
    43e4:	10 7f       	andi	r17, 0xF0	; 240
    43e6:	d7 01       	movw	r26, r14
    43e8:	c6 01       	movw	r24, r12
    43ea:	88 0f       	add	r24, r24
    43ec:	99 1f       	adc	r25, r25
    43ee:	aa 1f       	adc	r26, r26
    43f0:	bb 1f       	adc	r27, r27
    43f2:	88 0f       	add	r24, r24
    43f4:	99 1f       	adc	r25, r25
    43f6:	aa 1f       	adc	r26, r26
    43f8:	bb 1f       	adc	r27, r27
    43fa:	88 0f       	add	r24, r24
    43fc:	99 1f       	adc	r25, r25
    43fe:	aa 1f       	adc	r26, r26
    4400:	bb 1f       	adc	r27, r27
    4402:	81 2c       	mov	r8, r1
    4404:	78 e4       	ldi	r23, 0x48	; 72
    4406:	97 2e       	mov	r9, r23
    4408:	78 ee       	ldi	r23, 0xE8	; 232
    440a:	a7 2e       	mov	r10, r23
    440c:	bb 24       	eor	r11, r11
    440e:	b3 94       	inc	r11
    4410:	88 1a       	sub	r8, r24
    4412:	99 0a       	sbc	r9, r25
    4414:	aa 0a       	sbc	r10, r26
    4416:	bb 0a       	sbc	r11, r27
    4418:	4e 3f       	cpi	r20, 0xFE	; 254
    441a:	0c f4       	brge	.+2      	; 0x441e <usart_init_rs232+0x2da>
    441c:	be cf       	rjmp	.-132    	; 0x439a <usart_init_rs232+0x256>
    441e:	2d 5f       	subi	r18, 0xFD	; 253
    4420:	3f 4f       	sbci	r19, 0xFF	; 255
    4422:	d7 01       	movw	r26, r14
    4424:	c6 01       	movw	r24, r12
    4426:	04 c0       	rjmp	.+8      	; 0x4430 <usart_init_rs232+0x2ec>
    4428:	88 0f       	add	r24, r24
    442a:	99 1f       	adc	r25, r25
    442c:	aa 1f       	adc	r26, r26
    442e:	bb 1f       	adc	r27, r27
    4430:	2a 95       	dec	r18
    4432:	d2 f7       	brpl	.-12     	; 0x4428 <usart_init_rs232+0x2e4>
    4434:	9c 01       	movw	r18, r24
    4436:	ad 01       	movw	r20, r26
    4438:	bc 01       	movw	r22, r24
    443a:	cd 01       	movw	r24, r26
    443c:	96 95       	lsr	r25
    443e:	87 95       	ror	r24
    4440:	77 95       	ror	r23
    4442:	67 95       	ror	r22
    4444:	68 0d       	add	r22, r8
    4446:	79 1d       	adc	r23, r9
    4448:	8a 1d       	adc	r24, r10
    444a:	9b 1d       	adc	r25, r11
    444c:	0e 94 f8 2b 	call	0x57f0	; 0x57f0 <__udivmodsi4>
    4450:	55 cf       	rjmp	.-342    	; 0x42fc <usart_init_rs232+0x1b8>
    4452:	4b ef       	ldi	r20, 0xFB	; 251
    4454:	c1 cf       	rjmp	.-126    	; 0x43d8 <usart_init_rs232+0x294>
    4456:	4c ef       	ldi	r20, 0xFC	; 252
    4458:	bf cf       	rjmp	.-130    	; 0x43d8 <usart_init_rs232+0x294>
    445a:	4d ef       	ldi	r20, 0xFD	; 253
    445c:	bd cf       	rjmp	.-134    	; 0x43d8 <usart_init_rs232+0x294>
    445e:	4e ef       	ldi	r20, 0xFE	; 254
    4460:	bb cf       	rjmp	.-138    	; 0x43d8 <usart_init_rs232+0x294>
    4462:	4f ef       	ldi	r20, 0xFF	; 255
    4464:	b9 cf       	rjmp	.-142    	; 0x43d8 <usart_init_rs232+0x294>
    4466:	10 e0       	ldi	r17, 0x00	; 0
    4468:	21 2f       	mov	r18, r17
    446a:	33 27       	eor	r19, r19
    446c:	27 fd       	sbrc	r18, 7
    446e:	30 95       	com	r19
    4470:	2d 5f       	subi	r18, 0xFD	; 253
    4472:	3f 4f       	sbci	r19, 0xFF	; 255
    4474:	12 95       	swap	r17
    4476:	10 7f       	andi	r17, 0xF0	; 240
    4478:	27 cf       	rjmp	.-434    	; 0x42c8 <usart_init_rs232+0x184>
    447a:	11 e0       	ldi	r17, 0x01	; 1
    447c:	f5 cf       	rjmp	.-22     	; 0x4468 <usart_init_rs232+0x324>
    447e:	12 e0       	ldi	r17, 0x02	; 2
    4480:	f3 cf       	rjmp	.-26     	; 0x4468 <usart_init_rs232+0x324>
    4482:	13 e0       	ldi	r17, 0x03	; 3
    4484:	f1 cf       	rjmp	.-30     	; 0x4468 <usart_init_rs232+0x324>
    4486:	14 e0       	ldi	r17, 0x04	; 4
    4488:	ef cf       	rjmp	.-34     	; 0x4468 <usart_init_rs232+0x324>
    448a:	15 e0       	ldi	r17, 0x05	; 5
    448c:	ed cf       	rjmp	.-38     	; 0x4468 <usart_init_rs232+0x324>
    448e:	16 e0       	ldi	r17, 0x06	; 6
    4490:	eb cf       	rjmp	.-42     	; 0x4468 <usart_init_rs232+0x324>

00004492 <usart_putchar>:
    4492:	fc 01       	movw	r30, r24
    4494:	81 81       	ldd	r24, Z+1	; 0x01
    4496:	85 ff       	sbrs	r24, 5
    4498:	fd cf       	rjmp	.-6      	; 0x4494 <usart_putchar+0x2>
    449a:	60 83       	st	Z, r22
    449c:	80 e0       	ldi	r24, 0x00	; 0
    449e:	90 e0       	ldi	r25, 0x00	; 0
    44a0:	08 95       	ret

000044a2 <wdt_set_timeout_period>:
    44a2:	60 91 80 00 	lds	r22, 0x0080
    44a6:	62 70       	andi	r22, 0x02	; 2
    44a8:	61 60       	ori	r22, 0x01	; 1
    44aa:	24 e0       	ldi	r18, 0x04	; 4
    44ac:	82 9f       	mul	r24, r18
    44ae:	c0 01       	movw	r24, r0
    44b0:	11 24       	eor	r1, r1
    44b2:	8c 73       	andi	r24, 0x3C	; 60
    44b4:	68 2b       	or	r22, r24
    44b6:	80 e8       	ldi	r24, 0x80	; 128
    44b8:	90 e0       	ldi	r25, 0x00	; 0
    44ba:	0e 94 30 1a 	call	0x3460	; 0x3460 <ccp_write_io>
    44be:	80 91 82 00 	lds	r24, 0x0082
    44c2:	80 fd       	sbrc	r24, 0
    44c4:	fc cf       	rjmp	.-8      	; 0x44be <wdt_set_timeout_period+0x1c>
    44c6:	08 95       	ret

000044c8 <wdt_disable>:
    44c8:	60 91 80 00 	lds	r22, 0x0080
    44cc:	6c 7f       	andi	r22, 0xFC	; 252
    44ce:	61 60       	ori	r22, 0x01	; 1
    44d0:	80 e8       	ldi	r24, 0x80	; 128
    44d2:	90 e0       	ldi	r25, 0x00	; 0
    44d4:	0c 94 30 1a 	jmp	0x3460	; 0x3460 <ccp_write_io>

000044d8 <wdt_enable>:
    44d8:	60 91 80 00 	lds	r22, 0x0080
    44dc:	6c 73       	andi	r22, 0x3C	; 60
    44de:	63 60       	ori	r22, 0x03	; 3
    44e0:	80 e8       	ldi	r24, 0x80	; 128
    44e2:	90 e0       	ldi	r25, 0x00	; 0
    44e4:	0e 94 30 1a 	call	0x3460	; 0x3460 <ccp_write_io>
    44e8:	80 91 82 00 	lds	r24, 0x0082
    44ec:	80 fd       	sbrc	r24, 0
    44ee:	fc cf       	rjmp	.-8      	; 0x44e8 <wdt_enable+0x10>
    44f0:	08 95       	ret

000044f2 <pwm_init>:
    44f2:	8f 92       	push	r8
    44f4:	9f 92       	push	r9
    44f6:	af 92       	push	r10
    44f8:	bf 92       	push	r11
    44fa:	cf 92       	push	r12
    44fc:	df 92       	push	r13
    44fe:	ef 92       	push	r14
    4500:	ff 92       	push	r15
    4502:	cf 93       	push	r28
    4504:	df 93       	push	r29
    4506:	ec 01       	movw	r28, r24
    4508:	49 01       	movw	r8, r18
    450a:	62 30       	cpi	r22, 0x02	; 2
    450c:	09 f4       	brne	.+2      	; 0x4510 <pwm_init+0x1e>
    450e:	d8 c0       	rjmp	.+432    	; 0x46c0 <pwm_init+0x1ce>
    4510:	08 f0       	brcs	.+2      	; 0x4514 <pwm_init+0x22>
    4512:	63 c0       	rjmp	.+198    	; 0x45da <pwm_init+0xe8>
    4514:	66 23       	and	r22, r22
    4516:	09 f4       	brne	.+2      	; 0x451a <pwm_init+0x28>
    4518:	c0 c0       	rjmp	.+384    	; 0x469a <pwm_init+0x1a8>
    451a:	61 30       	cpi	r22, 0x01	; 1
    451c:	91 f4       	brne	.+36     	; 0x4542 <pwm_init+0x50>
    451e:	80 e4       	ldi	r24, 0x40	; 64
    4520:	98 e0       	ldi	r25, 0x08	; 8
    4522:	88 83       	st	Y, r24
    4524:	99 83       	std	Y+1, r25	; 0x01
    4526:	20 91 40 06 	lds	r18, 0x0640
    452a:	81 e0       	ldi	r24, 0x01	; 1
    452c:	90 e0       	ldi	r25, 0x00	; 0
    452e:	33 e0       	ldi	r19, 0x03	; 3
    4530:	34 0f       	add	r19, r20
    4532:	03 2e       	mov	r0, r19
    4534:	01 c0       	rjmp	.+2      	; 0x4538 <pwm_init+0x46>
    4536:	88 0f       	add	r24, r24
    4538:	0a 94       	dec	r0
    453a:	ea f7       	brpl	.-6      	; 0x4536 <pwm_init+0x44>
    453c:	28 2b       	or	r18, r24
    453e:	20 93 40 06 	sts	0x0640, r18
    4542:	4a 83       	std	Y+2, r20	; 0x02
    4544:	42 30       	cpi	r20, 0x02	; 2
    4546:	09 f4       	brne	.+2      	; 0x454a <pwm_init+0x58>
    4548:	64 c0       	rjmp	.+200    	; 0x4612 <pwm_init+0x120>
    454a:	43 30       	cpi	r20, 0x03	; 3
    454c:	08 f4       	brcc	.+2      	; 0x4550 <pwm_init+0x5e>
    454e:	7c c0       	rjmp	.+248    	; 0x4648 <pwm_init+0x156>
    4550:	43 30       	cpi	r20, 0x03	; 3
    4552:	09 f4       	brne	.+2      	; 0x4556 <pwm_init+0x64>
    4554:	7f c0       	rjmp	.+254    	; 0x4654 <pwm_init+0x162>
    4556:	44 30       	cpi	r20, 0x04	; 4
    4558:	11 f4       	brne	.+4      	; 0x455e <pwm_init+0x6c>
    455a:	80 e8       	ldi	r24, 0x80	; 128
    455c:	8b 83       	std	Y+3, r24	; 0x03
    455e:	88 81       	ld	r24, Y
    4560:	99 81       	ldd	r25, Y+1	; 0x01
    4562:	3d dd       	rcall	.-1414   	; 0x3fde <tc_enable>
    4564:	e8 81       	ld	r30, Y
    4566:	f9 81       	ldd	r31, Y+1	; 0x01
    4568:	81 81       	ldd	r24, Z+1	; 0x01
    456a:	88 7f       	andi	r24, 0xF8	; 248
    456c:	83 60       	ori	r24, 0x03	; 3
    456e:	81 83       	std	Z+1, r24	; 0x01
    4570:	1d 82       	std	Y+5, r1	; 0x05
    4572:	1e 82       	std	Y+6, r1	; 0x06
    4574:	1c 82       	std	Y+4, r1	; 0x04
    4576:	e8 81       	ld	r30, Y
    4578:	f9 81       	ldd	r31, Y+1	; 0x01
    457a:	80 81       	ld	r24, Z
    457c:	80 7f       	andi	r24, 0xF0	; 240
    457e:	80 83       	st	Z, r24
    4580:	a1 2c       	mov	r10, r1
    4582:	b1 2c       	mov	r11, r1
    4584:	60 e0       	ldi	r22, 0x00	; 0
    4586:	78 e4       	ldi	r23, 0x48	; 72
    4588:	88 ee       	ldi	r24, 0xE8	; 232
    458a:	91 e0       	ldi	r25, 0x01	; 1
    458c:	a5 01       	movw	r20, r10
    458e:	94 01       	movw	r18, r8
    4590:	0e 94 f8 2b 	call	0x57f0	; 0x57f0 <__udivmodsi4>
    4594:	69 01       	movw	r12, r18
    4596:	7a 01       	movw	r14, r20
    4598:	ca 01       	movw	r24, r20
    459a:	b9 01       	movw	r22, r18
    459c:	2f ef       	ldi	r18, 0xFF	; 255
    459e:	3f ef       	ldi	r19, 0xFF	; 255
    45a0:	40 e0       	ldi	r20, 0x00	; 0
    45a2:	50 e0       	ldi	r21, 0x00	; 0
    45a4:	0e 94 f8 2b 	call	0x57f0	; 0x57f0 <__udivmodsi4>
    45a8:	21 15       	cp	r18, r1
    45aa:	31 05       	cpc	r19, r1
    45ac:	a9 f5       	brne	.+106    	; 0x4618 <pwm_init+0x126>
    45ae:	81 e0       	ldi	r24, 0x01	; 1
    45b0:	8c 83       	std	Y+4, r24	; 0x04
    45b2:	cd 82       	std	Y+5, r12	; 0x05
    45b4:	de 82       	std	Y+6, r13	; 0x06
    45b6:	84 e6       	ldi	r24, 0x64	; 100
    45b8:	c8 16       	cp	r12, r24
    45ba:	d1 04       	cpc	r13, r1
    45bc:	18 f4       	brcc	.+6      	; 0x45c4 <pwm_init+0xd2>
    45be:	1c 82       	std	Y+4, r1	; 0x04
    45c0:	1d 82       	std	Y+5, r1	; 0x05
    45c2:	1e 82       	std	Y+6, r1	; 0x06
    45c4:	df 91       	pop	r29
    45c6:	cf 91       	pop	r28
    45c8:	ff 90       	pop	r15
    45ca:	ef 90       	pop	r14
    45cc:	df 90       	pop	r13
    45ce:	cf 90       	pop	r12
    45d0:	bf 90       	pop	r11
    45d2:	af 90       	pop	r10
    45d4:	9f 90       	pop	r9
    45d6:	8f 90       	pop	r8
    45d8:	08 95       	ret
    45da:	64 30       	cpi	r22, 0x04	; 4
    45dc:	09 f4       	brne	.+2      	; 0x45e0 <pwm_init+0xee>
    45de:	4a c0       	rjmp	.+148    	; 0x4674 <pwm_init+0x182>
    45e0:	66 30       	cpi	r22, 0x06	; 6
    45e2:	09 f0       	breq	.+2      	; 0x45e6 <pwm_init+0xf4>
    45e4:	ae cf       	rjmp	.-164    	; 0x4542 <pwm_init+0x50>
    45e6:	80 e0       	ldi	r24, 0x00	; 0
    45e8:	9b e0       	ldi	r25, 0x0B	; 11
    45ea:	88 83       	st	Y, r24
    45ec:	99 83       	std	Y+1, r25	; 0x01
    45ee:	20 91 a0 06 	lds	r18, 0x06A0
    45f2:	81 e0       	ldi	r24, 0x01	; 1
    45f4:	90 e0       	ldi	r25, 0x00	; 0
    45f6:	3f ef       	ldi	r19, 0xFF	; 255
    45f8:	34 0f       	add	r19, r20
    45fa:	03 2e       	mov	r0, r19
    45fc:	01 c0       	rjmp	.+2      	; 0x4600 <pwm_init+0x10e>
    45fe:	88 0f       	add	r24, r24
    4600:	0a 94       	dec	r0
    4602:	ea f7       	brpl	.-6      	; 0x45fe <pwm_init+0x10c>
    4604:	28 2b       	or	r18, r24
    4606:	20 93 a0 06 	sts	0x06A0, r18
    460a:	4a 83       	std	Y+2, r20	; 0x02
    460c:	42 30       	cpi	r20, 0x02	; 2
    460e:	09 f0       	breq	.+2      	; 0x4612 <pwm_init+0x120>
    4610:	9c cf       	rjmp	.-200    	; 0x454a <pwm_init+0x58>
    4612:	80 e2       	ldi	r24, 0x20	; 32
    4614:	8b 83       	std	Y+3, r24	; 0x03
    4616:	a3 cf       	rjmp	.-186    	; 0x455e <pwm_init+0x6c>
    4618:	21 30       	cpi	r18, 0x01	; 1
    461a:	31 05       	cpc	r19, r1
    461c:	09 f4       	brne	.+2      	; 0x4620 <pwm_init+0x12e>
    461e:	63 c0       	rjmp	.+198    	; 0x46e6 <pwm_init+0x1f4>
    4620:	24 30       	cpi	r18, 0x04	; 4
    4622:	31 05       	cpc	r19, r1
    4624:	d0 f0       	brcs	.+52     	; 0x465a <pwm_init+0x168>
    4626:	28 30       	cpi	r18, 0x08	; 8
    4628:	31 05       	cpc	r19, r1
    462a:	08 f0       	brcs	.+2      	; 0x462e <pwm_init+0x13c>
    462c:	69 c0       	rjmp	.+210    	; 0x4700 <pwm_init+0x20e>
    462e:	84 e0       	ldi	r24, 0x04	; 4
    4630:	8c 83       	std	Y+4, r24	; 0x04
    4632:	60 e0       	ldi	r22, 0x00	; 0
    4634:	79 e0       	ldi	r23, 0x09	; 9
    4636:	8d e3       	ldi	r24, 0x3D	; 61
    4638:	90 e0       	ldi	r25, 0x00	; 0
    463a:	a5 01       	movw	r20, r10
    463c:	94 01       	movw	r18, r8
    463e:	0e 94 f8 2b 	call	0x57f0	; 0x57f0 <__udivmodsi4>
    4642:	69 01       	movw	r12, r18
    4644:	7a 01       	movw	r14, r20
    4646:	b5 cf       	rjmp	.-150    	; 0x45b2 <pwm_init+0xc0>
    4648:	41 30       	cpi	r20, 0x01	; 1
    464a:	09 f0       	breq	.+2      	; 0x464e <pwm_init+0x15c>
    464c:	88 cf       	rjmp	.-240    	; 0x455e <pwm_init+0x6c>
    464e:	80 e1       	ldi	r24, 0x10	; 16
    4650:	8b 83       	std	Y+3, r24	; 0x03
    4652:	85 cf       	rjmp	.-246    	; 0x455e <pwm_init+0x6c>
    4654:	80 e4       	ldi	r24, 0x40	; 64
    4656:	8b 83       	std	Y+3, r24	; 0x03
    4658:	82 cf       	rjmp	.-252    	; 0x455e <pwm_init+0x6c>
    465a:	83 e0       	ldi	r24, 0x03	; 3
    465c:	8c 83       	std	Y+4, r24	; 0x04
    465e:	60 e0       	ldi	r22, 0x00	; 0
    4660:	72 e1       	ldi	r23, 0x12	; 18
    4662:	8a e7       	ldi	r24, 0x7A	; 122
    4664:	90 e0       	ldi	r25, 0x00	; 0
    4666:	a5 01       	movw	r20, r10
    4668:	94 01       	movw	r18, r8
    466a:	0e 94 f8 2b 	call	0x57f0	; 0x57f0 <__udivmodsi4>
    466e:	69 01       	movw	r12, r18
    4670:	7a 01       	movw	r14, r20
    4672:	9f cf       	rjmp	.-194    	; 0x45b2 <pwm_init+0xc0>
    4674:	80 e0       	ldi	r24, 0x00	; 0
    4676:	9a e0       	ldi	r25, 0x0A	; 10
    4678:	88 83       	st	Y, r24
    467a:	99 83       	std	Y+1, r25	; 0x01
    467c:	20 91 80 06 	lds	r18, 0x0680
    4680:	81 e0       	ldi	r24, 0x01	; 1
    4682:	90 e0       	ldi	r25, 0x00	; 0
    4684:	3f ef       	ldi	r19, 0xFF	; 255
    4686:	34 0f       	add	r19, r20
    4688:	03 2e       	mov	r0, r19
    468a:	01 c0       	rjmp	.+2      	; 0x468e <pwm_init+0x19c>
    468c:	88 0f       	add	r24, r24
    468e:	0a 94       	dec	r0
    4690:	ea f7       	brpl	.-6      	; 0x468c <pwm_init+0x19a>
    4692:	28 2b       	or	r18, r24
    4694:	20 93 80 06 	sts	0x0680, r18
    4698:	54 cf       	rjmp	.-344    	; 0x4542 <pwm_init+0x50>
    469a:	80 e0       	ldi	r24, 0x00	; 0
    469c:	98 e0       	ldi	r25, 0x08	; 8
    469e:	88 83       	st	Y, r24
    46a0:	99 83       	std	Y+1, r25	; 0x01
    46a2:	20 91 40 06 	lds	r18, 0x0640
    46a6:	81 e0       	ldi	r24, 0x01	; 1
    46a8:	90 e0       	ldi	r25, 0x00	; 0
    46aa:	3f ef       	ldi	r19, 0xFF	; 255
    46ac:	34 0f       	add	r19, r20
    46ae:	03 2e       	mov	r0, r19
    46b0:	01 c0       	rjmp	.+2      	; 0x46b4 <pwm_init+0x1c2>
    46b2:	88 0f       	add	r24, r24
    46b4:	0a 94       	dec	r0
    46b6:	ea f7       	brpl	.-6      	; 0x46b2 <pwm_init+0x1c0>
    46b8:	28 2b       	or	r18, r24
    46ba:	20 93 40 06 	sts	0x0640, r18
    46be:	41 cf       	rjmp	.-382    	; 0x4542 <pwm_init+0x50>
    46c0:	80 e0       	ldi	r24, 0x00	; 0
    46c2:	99 e0       	ldi	r25, 0x09	; 9
    46c4:	88 83       	st	Y, r24
    46c6:	99 83       	std	Y+1, r25	; 0x01
    46c8:	20 91 60 06 	lds	r18, 0x0660
    46cc:	81 e0       	ldi	r24, 0x01	; 1
    46ce:	90 e0       	ldi	r25, 0x00	; 0
    46d0:	3f ef       	ldi	r19, 0xFF	; 255
    46d2:	34 0f       	add	r19, r20
    46d4:	03 2e       	mov	r0, r19
    46d6:	01 c0       	rjmp	.+2      	; 0x46da <pwm_init+0x1e8>
    46d8:	88 0f       	add	r24, r24
    46da:	0a 94       	dec	r0
    46dc:	ea f7       	brpl	.-6      	; 0x46d8 <pwm_init+0x1e6>
    46de:	28 2b       	or	r18, r24
    46e0:	20 93 60 06 	sts	0x0660, r18
    46e4:	2e cf       	rjmp	.-420    	; 0x4542 <pwm_init+0x50>
    46e6:	82 e0       	ldi	r24, 0x02	; 2
    46e8:	8c 83       	std	Y+4, r24	; 0x04
    46ea:	60 e0       	ldi	r22, 0x00	; 0
    46ec:	74 e2       	ldi	r23, 0x24	; 36
    46ee:	84 ef       	ldi	r24, 0xF4	; 244
    46f0:	90 e0       	ldi	r25, 0x00	; 0
    46f2:	a5 01       	movw	r20, r10
    46f4:	94 01       	movw	r18, r8
    46f6:	0e 94 f8 2b 	call	0x57f0	; 0x57f0 <__udivmodsi4>
    46fa:	69 01       	movw	r12, r18
    46fc:	7a 01       	movw	r14, r20
    46fe:	59 cf       	rjmp	.-334    	; 0x45b2 <pwm_init+0xc0>
    4700:	20 34       	cpi	r18, 0x40	; 64
    4702:	31 05       	cpc	r19, r1
    4704:	88 f0       	brcs	.+34     	; 0x4728 <pwm_init+0x236>
    4706:	2f 3f       	cpi	r18, 0xFF	; 255
    4708:	31 05       	cpc	r19, r1
    470a:	09 f0       	breq	.+2      	; 0x470e <pwm_init+0x21c>
    470c:	d0 f4       	brcc	.+52     	; 0x4742 <pwm_init+0x250>
    470e:	86 e0       	ldi	r24, 0x06	; 6
    4710:	8c 83       	std	Y+4, r24	; 0x04
    4712:	68 e4       	ldi	r22, 0x48	; 72
    4714:	78 ee       	ldi	r23, 0xE8	; 232
    4716:	81 e0       	ldi	r24, 0x01	; 1
    4718:	90 e0       	ldi	r25, 0x00	; 0
    471a:	a5 01       	movw	r20, r10
    471c:	94 01       	movw	r18, r8
    471e:	0e 94 f8 2b 	call	0x57f0	; 0x57f0 <__udivmodsi4>
    4722:	69 01       	movw	r12, r18
    4724:	7a 01       	movw	r14, r20
    4726:	45 cf       	rjmp	.-374    	; 0x45b2 <pwm_init+0xc0>
    4728:	85 e0       	ldi	r24, 0x05	; 5
    472a:	8c 83       	std	Y+4, r24	; 0x04
    472c:	60 e2       	ldi	r22, 0x20	; 32
    472e:	71 ea       	ldi	r23, 0xA1	; 161
    4730:	87 e0       	ldi	r24, 0x07	; 7
    4732:	90 e0       	ldi	r25, 0x00	; 0
    4734:	a5 01       	movw	r20, r10
    4736:	94 01       	movw	r18, r8
    4738:	0e 94 f8 2b 	call	0x57f0	; 0x57f0 <__udivmodsi4>
    473c:	69 01       	movw	r12, r18
    473e:	7a 01       	movw	r14, r20
    4740:	38 cf       	rjmp	.-400    	; 0x45b2 <pwm_init+0xc0>
    4742:	87 e0       	ldi	r24, 0x07	; 7
    4744:	8c 83       	std	Y+4, r24	; 0x04
    4746:	62 e1       	ldi	r22, 0x12	; 18
    4748:	7a e7       	ldi	r23, 0x7A	; 122
    474a:	80 e0       	ldi	r24, 0x00	; 0
    474c:	90 e0       	ldi	r25, 0x00	; 0
    474e:	a5 01       	movw	r20, r10
    4750:	94 01       	movw	r18, r8
    4752:	0e 94 f8 2b 	call	0x57f0	; 0x57f0 <__udivmodsi4>
    4756:	69 01       	movw	r12, r18
    4758:	7a 01       	movw	r14, r20
    475a:	2b cf       	rjmp	.-426    	; 0x45b2 <pwm_init+0xc0>

0000475c <pwm_start>:
    475c:	0f 93       	push	r16
    475e:	1f 93       	push	r17
    4760:	cf 93       	push	r28
    4762:	df 93       	push	r29
    4764:	ec 01       	movw	r28, r24
    4766:	0d 81       	ldd	r16, Y+5	; 0x05
    4768:	1e 81       	ldd	r17, Y+6	; 0x06
    476a:	98 01       	movw	r18, r16
    476c:	a6 2f       	mov	r26, r22
    476e:	b0 e0       	ldi	r27, 0x00	; 0
    4770:	0e 94 42 2c 	call	0x5884	; 0x5884 <__umulhisi3>
    4774:	24 e6       	ldi	r18, 0x64	; 100
    4776:	30 e0       	ldi	r19, 0x00	; 0
    4778:	40 e0       	ldi	r20, 0x00	; 0
    477a:	50 e0       	ldi	r21, 0x00	; 0
    477c:	0e 94 f8 2b 	call	0x57f0	; 0x57f0 <__udivmodsi4>
    4780:	8a 81       	ldd	r24, Y+2	; 0x02
    4782:	e8 81       	ld	r30, Y
    4784:	f9 81       	ldd	r31, Y+1	; 0x01
    4786:	e6 ff       	sbrs	r30, 6
    4788:	1c c0       	rjmp	.+56     	; 0x47c2 <pwm_start+0x66>
    478a:	81 30       	cpi	r24, 0x01	; 1
    478c:	a1 f1       	breq	.+104    	; 0x47f6 <pwm_start+0x9a>
    478e:	82 30       	cpi	r24, 0x02	; 2
    4790:	c9 f1       	breq	.+114    	; 0x4804 <pwm_start+0xa8>
    4792:	c8 01       	movw	r24, r16
    4794:	86 a3       	std	Z+38, r24	; 0x26
    4796:	97 a3       	std	Z+39, r25	; 0x27
    4798:	8b 81       	ldd	r24, Y+3	; 0x03
    479a:	e8 81       	ld	r30, Y
    479c:	f9 81       	ldd	r31, Y+1	; 0x01
    479e:	91 81       	ldd	r25, Z+1	; 0x01
    47a0:	e6 ff       	sbrs	r30, 6
    47a2:	24 c0       	rjmp	.+72     	; 0x47ec <pwm_start+0x90>
    47a4:	80 73       	andi	r24, 0x30	; 48
    47a6:	89 2b       	or	r24, r25
    47a8:	81 83       	std	Z+1, r24	; 0x01
    47aa:	e8 81       	ld	r30, Y
    47ac:	f9 81       	ldd	r31, Y+1	; 0x01
    47ae:	80 81       	ld	r24, Z
    47b0:	80 7f       	andi	r24, 0xF0	; 240
    47b2:	9c 81       	ldd	r25, Y+4	; 0x04
    47b4:	89 2b       	or	r24, r25
    47b6:	80 83       	st	Z, r24
    47b8:	df 91       	pop	r29
    47ba:	cf 91       	pop	r28
    47bc:	1f 91       	pop	r17
    47be:	0f 91       	pop	r16
    47c0:	08 95       	ret
    47c2:	82 30       	cpi	r24, 0x02	; 2
    47c4:	f9 f0       	breq	.+62     	; 0x4804 <pwm_start+0xa8>
    47c6:	a8 f0       	brcs	.+42     	; 0x47f2 <pwm_start+0x96>
    47c8:	83 30       	cpi	r24, 0x03	; 3
    47ca:	19 f1       	breq	.+70     	; 0x4812 <pwm_start+0xb6>
    47cc:	84 30       	cpi	r24, 0x04	; 4
    47ce:	09 f7       	brne	.-62     	; 0x4792 <pwm_start+0x36>
    47d0:	26 af       	std	Z+62, r18	; 0x3e
    47d2:	37 af       	std	Z+63, r19	; 0x3f
    47d4:	8d 81       	ldd	r24, Y+5	; 0x05
    47d6:	9e 81       	ldd	r25, Y+6	; 0x06
    47d8:	e8 81       	ld	r30, Y
    47da:	f9 81       	ldd	r31, Y+1	; 0x01
    47dc:	86 a3       	std	Z+38, r24	; 0x26
    47de:	97 a3       	std	Z+39, r25	; 0x27
    47e0:	8b 81       	ldd	r24, Y+3	; 0x03
    47e2:	e8 81       	ld	r30, Y
    47e4:	f9 81       	ldd	r31, Y+1	; 0x01
    47e6:	91 81       	ldd	r25, Z+1	; 0x01
    47e8:	e6 fd       	sbrc	r30, 6
    47ea:	dc cf       	rjmp	.-72     	; 0x47a4 <pwm_start+0x48>
    47ec:	98 2b       	or	r25, r24
    47ee:	91 83       	std	Z+1, r25	; 0x01
    47f0:	dc cf       	rjmp	.-72     	; 0x47aa <pwm_start+0x4e>
    47f2:	81 30       	cpi	r24, 0x01	; 1
    47f4:	71 f6       	brne	.-100    	; 0x4792 <pwm_start+0x36>
    47f6:	20 af       	std	Z+56, r18	; 0x38
    47f8:	31 af       	std	Z+57, r19	; 0x39
    47fa:	8d 81       	ldd	r24, Y+5	; 0x05
    47fc:	9e 81       	ldd	r25, Y+6	; 0x06
    47fe:	e8 81       	ld	r30, Y
    4800:	f9 81       	ldd	r31, Y+1	; 0x01
    4802:	c8 cf       	rjmp	.-112    	; 0x4794 <pwm_start+0x38>
    4804:	22 af       	std	Z+58, r18	; 0x3a
    4806:	33 af       	std	Z+59, r19	; 0x3b
    4808:	8d 81       	ldd	r24, Y+5	; 0x05
    480a:	9e 81       	ldd	r25, Y+6	; 0x06
    480c:	e8 81       	ld	r30, Y
    480e:	f9 81       	ldd	r31, Y+1	; 0x01
    4810:	c1 cf       	rjmp	.-126    	; 0x4794 <pwm_start+0x38>
    4812:	24 af       	std	Z+60, r18	; 0x3c
    4814:	35 af       	std	Z+61, r19	; 0x3d
    4816:	8d 81       	ldd	r24, Y+5	; 0x05
    4818:	9e 81       	ldd	r25, Y+6	; 0x06
    481a:	e8 81       	ld	r30, Y
    481c:	f9 81       	ldd	r31, Y+1	; 0x01
    481e:	ba cf       	rjmp	.-140    	; 0x4794 <pwm_start+0x38>

00004820 <setupBluetoothFast>:
    4820:	cf 93       	push	r28
    4822:	df 93       	push	r29
    4824:	cd b7       	in	r28, 0x3d	; 61
    4826:	de b7       	in	r29, 0x3e	; 62
    4828:	27 97       	sbiw	r28, 0x07	; 7
    482a:	cd bf       	out	0x3d, r28	; 61
    482c:	de bf       	out	0x3e, r29	; 62
    482e:	87 e0       	ldi	r24, 0x07	; 7
    4830:	e4 e8       	ldi	r30, 0x84	; 132
    4832:	f0 e2       	ldi	r31, 0x20	; 32
    4834:	de 01       	movw	r26, r28
    4836:	11 96       	adiw	r26, 0x01	; 1
    4838:	01 90       	ld	r0, Z+
    483a:	0d 92       	st	X+, r0
    483c:	8a 95       	dec	r24
    483e:	e1 f7       	brne	.-8      	; 0x4838 <setupBluetoothFast+0x18>
    4840:	60 e1       	ldi	r22, 0x10	; 16
    4842:	85 e0       	ldi	r24, 0x05	; 5
    4844:	0e 94 39 19 	call	0x3272	; 0x3272 <sysclk_enable_module>
    4848:	8b e1       	ldi	r24, 0x1B	; 27
    484a:	95 e2       	ldi	r25, 0x25	; 37
    484c:	0e 94 45 13 	call	0x268a	; 0x268a <sendDBGString>
    4850:	0e 94 ea 18 	call	0x31d4	; 0x31d4 <WatchdogPet>
    4854:	be 01       	movw	r22, r28
    4856:	6f 5f       	subi	r22, 0xFF	; 255
    4858:	7f 4f       	sbci	r23, 0xFF	; 255
    485a:	80 ea       	ldi	r24, 0xA0	; 160
    485c:	9a e0       	ldi	r25, 0x0A	; 10
    485e:	72 dc       	rcall	.-1820   	; 0x4144 <usart_init_rs232>
    4860:	81 11       	cpse	r24, r1
    4862:	0c c0       	rjmp	.+24     	; 0x487c <setupBluetoothFast+0x5c>
    4864:	e2 e2       	ldi	r30, 0x22	; 34
    4866:	f2 e0       	ldi	r31, 0x02	; 2
    4868:	84 91       	lpm	r24, Z
    486a:	90 e0       	ldi	r25, 0x00	; 0
    486c:	0e 94 57 13 	call	0x26ae	; 0x26ae <sendDBGLine>
    4870:	27 96       	adiw	r28, 0x07	; 7
    4872:	cd bf       	out	0x3d, r28	; 61
    4874:	de bf       	out	0x3e, r29	; 62
    4876:	df 91       	pop	r29
    4878:	cf 91       	pop	r28
    487a:	08 95       	ret
    487c:	e6 e2       	ldi	r30, 0x26	; 38
    487e:	f2 e0       	ldi	r31, 0x02	; 2
    4880:	84 91       	lpm	r24, Z
    4882:	90 e0       	ldi	r25, 0x00	; 0
    4884:	0e 94 57 13 	call	0x26ae	; 0x26ae <sendDBGLine>
    4888:	27 96       	adiw	r28, 0x07	; 7
    488a:	cd bf       	out	0x3d, r28	; 61
    488c:	de bf       	out	0x3e, r29	; 62
    488e:	df 91       	pop	r29
    4890:	cf 91       	pop	r28
    4892:	08 95       	ret

00004894 <sendBTChar>:
    4894:	90 91 88 06 	lds	r25, 0x0688
    4898:	94 ff       	sbrs	r25, 4
    489a:	04 c0       	rjmp	.+8      	; 0x48a4 <sendBTChar+0x10>
    489c:	68 2f       	mov	r22, r24
    489e:	80 ea       	ldi	r24, 0xA0	; 160
    48a0:	9a e0       	ldi	r25, 0x0A	; 10
    48a2:	f7 cd       	rjmp	.-1042   	; 0x4492 <usart_putchar>
    48a4:	92 e0       	ldi	r25, 0x02	; 2
    48a6:	90 93 85 06 	sts	0x0685, r25
    48aa:	48 ee       	ldi	r20, 0xE8	; 232
    48ac:	53 e0       	ldi	r21, 0x03	; 3
    48ae:	90 91 88 06 	lds	r25, 0x0688
    48b2:	94 fd       	sbrc	r25, 4
    48b4:	f3 cf       	rjmp	.-26     	; 0x489c <sendBTChar+0x8>
    48b6:	20 e0       	ldi	r18, 0x00	; 0
    48b8:	30 e0       	ldi	r19, 0x00	; 0
    48ba:	2f 5f       	subi	r18, 0xFF	; 255
    48bc:	3f 4f       	sbci	r19, 0xFF	; 255
    48be:	25 3d       	cpi	r18, 0xD5	; 213
    48c0:	94 e1       	ldi	r25, 0x14	; 20
    48c2:	39 07       	cpc	r19, r25
    48c4:	d1 f7       	brne	.-12     	; 0x48ba <sendBTChar+0x26>
    48c6:	41 50       	subi	r20, 0x01	; 1
    48c8:	51 09       	sbc	r21, r1
    48ca:	41 15       	cp	r20, r1
    48cc:	51 05       	cpc	r21, r1
    48ce:	79 f7       	brne	.-34     	; 0x48ae <sendBTChar+0x1a>
    48d0:	08 95       	ret

000048d2 <sendBTCmd>:
    48d2:	1f 93       	push	r17
    48d4:	cf 93       	push	r28
    48d6:	df 93       	push	r29
    48d8:	20 91 88 06 	lds	r18, 0x0688
    48dc:	24 ff       	sbrs	r18, 4
    48de:	39 c0       	rjmp	.+114    	; 0x4952 <sendBTCmd+0x80>
    48e0:	ec 01       	movw	r28, r24
    48e2:	12 e0       	ldi	r17, 0x02	; 2
    48e4:	69 91       	ld	r22, Y+
    48e6:	80 91 88 06 	lds	r24, 0x0688
    48ea:	66 23       	and	r22, r22
    48ec:	51 f0       	breq	.+20     	; 0x4902 <sendBTCmd+0x30>
    48ee:	84 ff       	sbrs	r24, 4
    48f0:	1b c0       	rjmp	.+54     	; 0x4928 <sendBTCmd+0x56>
    48f2:	80 ea       	ldi	r24, 0xA0	; 160
    48f4:	9a e0       	ldi	r25, 0x0A	; 10
    48f6:	cd dd       	rcall	.-1126   	; 0x4492 <usart_putchar>
    48f8:	69 91       	ld	r22, Y+
    48fa:	80 91 88 06 	lds	r24, 0x0688
    48fe:	61 11       	cpse	r22, r1
    4900:	f6 cf       	rjmp	.-20     	; 0x48ee <sendBTCmd+0x1c>
    4902:	84 ff       	sbrs	r24, 4
    4904:	41 c0       	rjmp	.+130    	; 0x4988 <sendBTCmd+0xb6>
    4906:	6d e0       	ldi	r22, 0x0D	; 13
    4908:	80 ea       	ldi	r24, 0xA0	; 160
    490a:	9a e0       	ldi	r25, 0x0A	; 10
    490c:	c2 dd       	rcall	.-1148   	; 0x4492 <usart_putchar>
    490e:	80 91 88 06 	lds	r24, 0x0688
    4912:	84 ff       	sbrs	r24, 4
    4914:	52 c0       	rjmp	.+164    	; 0x49ba <sendBTCmd+0xe8>
    4916:	6a e0       	ldi	r22, 0x0A	; 10
    4918:	80 ea       	ldi	r24, 0xA0	; 160
    491a:	9a e0       	ldi	r25, 0x0A	; 10
    491c:	ba dd       	rcall	.-1164   	; 0x4492 <usart_putchar>
    491e:	80 e0       	ldi	r24, 0x00	; 0
    4920:	df 91       	pop	r29
    4922:	cf 91       	pop	r28
    4924:	1f 91       	pop	r17
    4926:	08 95       	ret
    4928:	10 93 85 06 	sts	0x0685, r17
    492c:	28 ee       	ldi	r18, 0xE8	; 232
    492e:	33 e0       	ldi	r19, 0x03	; 3
    4930:	80 91 88 06 	lds	r24, 0x0688
    4934:	84 fd       	sbrc	r24, 4
    4936:	dd cf       	rjmp	.-70     	; 0x48f2 <sendBTCmd+0x20>
    4938:	80 e0       	ldi	r24, 0x00	; 0
    493a:	90 e0       	ldi	r25, 0x00	; 0
    493c:	01 96       	adiw	r24, 0x01	; 1
    493e:	85 3d       	cpi	r24, 0xD5	; 213
    4940:	44 e1       	ldi	r20, 0x14	; 20
    4942:	94 07       	cpc	r25, r20
    4944:	d9 f7       	brne	.-10     	; 0x493c <sendBTCmd+0x6a>
    4946:	21 50       	subi	r18, 0x01	; 1
    4948:	31 09       	sbc	r19, r1
    494a:	21 15       	cp	r18, r1
    494c:	31 05       	cpc	r19, r1
    494e:	81 f7       	brne	.-32     	; 0x4930 <sendBTCmd+0x5e>
    4950:	c9 cf       	rjmp	.-110    	; 0x48e4 <sendBTCmd+0x12>
    4952:	22 e0       	ldi	r18, 0x02	; 2
    4954:	20 93 85 06 	sts	0x0685, r18
    4958:	48 ee       	ldi	r20, 0xE8	; 232
    495a:	53 e0       	ldi	r21, 0x03	; 3
    495c:	20 91 88 06 	lds	r18, 0x0688
    4960:	24 fd       	sbrc	r18, 4
    4962:	be cf       	rjmp	.-132    	; 0x48e0 <sendBTCmd+0xe>
    4964:	20 e0       	ldi	r18, 0x00	; 0
    4966:	30 e0       	ldi	r19, 0x00	; 0
    4968:	2f 5f       	subi	r18, 0xFF	; 255
    496a:	3f 4f       	sbci	r19, 0xFF	; 255
    496c:	25 3d       	cpi	r18, 0xD5	; 213
    496e:	64 e1       	ldi	r22, 0x14	; 20
    4970:	36 07       	cpc	r19, r22
    4972:	d1 f7       	brne	.-12     	; 0x4968 <sendBTCmd+0x96>
    4974:	41 50       	subi	r20, 0x01	; 1
    4976:	51 09       	sbc	r21, r1
    4978:	41 15       	cp	r20, r1
    497a:	51 05       	cpc	r21, r1
    497c:	79 f7       	brne	.-34     	; 0x495c <sendBTCmd+0x8a>
    497e:	80 e0       	ldi	r24, 0x00	; 0
    4980:	df 91       	pop	r29
    4982:	cf 91       	pop	r28
    4984:	1f 91       	pop	r17
    4986:	08 95       	ret
    4988:	82 e0       	ldi	r24, 0x02	; 2
    498a:	80 93 85 06 	sts	0x0685, r24
    498e:	28 ee       	ldi	r18, 0xE8	; 232
    4990:	33 e0       	ldi	r19, 0x03	; 3
    4992:	80 91 88 06 	lds	r24, 0x0688
    4996:	84 fd       	sbrc	r24, 4
    4998:	b6 cf       	rjmp	.-148    	; 0x4906 <sendBTCmd+0x34>
    499a:	80 e0       	ldi	r24, 0x00	; 0
    499c:	90 e0       	ldi	r25, 0x00	; 0
    499e:	01 96       	adiw	r24, 0x01	; 1
    49a0:	85 3d       	cpi	r24, 0xD5	; 213
    49a2:	64 e1       	ldi	r22, 0x14	; 20
    49a4:	96 07       	cpc	r25, r22
    49a6:	d9 f7       	brne	.-10     	; 0x499e <sendBTCmd+0xcc>
    49a8:	21 50       	subi	r18, 0x01	; 1
    49aa:	31 09       	sbc	r19, r1
    49ac:	21 15       	cp	r18, r1
    49ae:	31 05       	cpc	r19, r1
    49b0:	81 f7       	brne	.-32     	; 0x4992 <sendBTCmd+0xc0>
    49b2:	80 91 88 06 	lds	r24, 0x0688
    49b6:	84 fd       	sbrc	r24, 4
    49b8:	ae cf       	rjmp	.-164    	; 0x4916 <sendBTCmd+0x44>
    49ba:	82 e0       	ldi	r24, 0x02	; 2
    49bc:	80 93 85 06 	sts	0x0685, r24
    49c0:	28 ee       	ldi	r18, 0xE8	; 232
    49c2:	33 e0       	ldi	r19, 0x03	; 3
    49c4:	80 91 88 06 	lds	r24, 0x0688
    49c8:	84 fd       	sbrc	r24, 4
    49ca:	a5 cf       	rjmp	.-182    	; 0x4916 <sendBTCmd+0x44>
    49cc:	80 e0       	ldi	r24, 0x00	; 0
    49ce:	90 e0       	ldi	r25, 0x00	; 0
    49d0:	01 96       	adiw	r24, 0x01	; 1
    49d2:	85 3d       	cpi	r24, 0xD5	; 213
    49d4:	44 e1       	ldi	r20, 0x14	; 20
    49d6:	94 07       	cpc	r25, r20
    49d8:	d9 f7       	brne	.-10     	; 0x49d0 <sendBTCmd+0xfe>
    49da:	21 50       	subi	r18, 0x01	; 1
    49dc:	31 09       	sbc	r19, r1
    49de:	21 15       	cp	r18, r1
    49e0:	31 05       	cpc	r19, r1
    49e2:	81 f7       	brne	.-32     	; 0x49c4 <sendBTCmd+0xf2>
    49e4:	80 e0       	ldi	r24, 0x00	; 0
    49e6:	df 91       	pop	r29
    49e8:	cf 91       	pop	r28
    49ea:	1f 91       	pop	r17
    49ec:	08 95       	ret

000049ee <turnBTOn>:
    49ee:	cf 93       	push	r28
    49f0:	df 93       	push	r29
    49f2:	80 e2       	ldi	r24, 0x20	; 32
    49f4:	80 93 85 06 	sts	0x0685, r24
    49f8:	85 e5       	ldi	r24, 0x55	; 85
    49fa:	93 e2       	ldi	r25, 0x23	; 35
    49fc:	a8 e0       	ldi	r26, 0x08	; 8
    49fe:	b0 e0       	ldi	r27, 0x00	; 0
    4a00:	01 97       	sbiw	r24, 0x01	; 1
    4a02:	a1 09       	sbc	r26, r1
    4a04:	b1 09       	sbc	r27, r1
    4a06:	00 97       	sbiw	r24, 0x00	; 0
    4a08:	a1 05       	cpc	r26, r1
    4a0a:	b1 05       	cpc	r27, r1
    4a0c:	c9 f7       	brne	.-14     	; 0x4a00 <turnBTOn+0x12>
    4a0e:	81 e0       	ldi	r24, 0x01	; 1
    4a10:	80 93 86 06 	sts	0x0686, r24
    4a14:	c0 ed       	ldi	r28, 0xD0	; 208
    4a16:	d7 e0       	ldi	r29, 0x07	; 7
    4a18:	80 e0       	ldi	r24, 0x00	; 0
    4a1a:	90 e0       	ldi	r25, 0x00	; 0
    4a1c:	01 96       	adiw	r24, 0x01	; 1
    4a1e:	85 3d       	cpi	r24, 0xD5	; 213
    4a20:	24 e1       	ldi	r18, 0x14	; 20
    4a22:	92 07       	cpc	r25, r18
    4a24:	d9 f7       	brne	.-10     	; 0x4a1c <turnBTOn+0x2e>
    4a26:	0e 94 ea 18 	call	0x31d4	; 0x31d4 <WatchdogPet>
    4a2a:	21 97       	sbiw	r28, 0x01	; 1
    4a2c:	20 97       	sbiw	r28, 0x00	; 0
    4a2e:	a1 f7       	brne	.-24     	; 0x4a18 <turnBTOn+0x2a>
    4a30:	df 91       	pop	r29
    4a32:	cf 91       	pop	r28
    4a34:	08 95       	ret

00004a36 <turnBTOff>:
    4a36:	8a e2       	ldi	r24, 0x2A	; 42
    4a38:	95 e2       	ldi	r25, 0x25	; 37
    4a3a:	0e 94 57 13 	call	0x26ae	; 0x26ae <sendDBGLine>
    4a3e:	80 91 88 06 	lds	r24, 0x0688
    4a42:	84 ff       	sbrs	r24, 4
    4a44:	0a c0       	rjmp	.+20     	; 0x4a5a <turnBTOff+0x24>
    4a46:	80 e3       	ldi	r24, 0x30	; 48
    4a48:	95 e2       	ldi	r25, 0x25	; 37
    4a4a:	43 df       	rcall	.-378    	; 0x48d2 <sendBTCmd>
    4a4c:	81 e0       	ldi	r24, 0x01	; 1
    4a4e:	80 93 85 06 	sts	0x0685, r24
    4a52:	80 e2       	ldi	r24, 0x20	; 32
    4a54:	80 93 86 06 	sts	0x0686, r24
    4a58:	08 95       	ret
    4a5a:	82 e0       	ldi	r24, 0x02	; 2
    4a5c:	80 93 85 06 	sts	0x0685, r24
    4a60:	20 ed       	ldi	r18, 0xD0	; 208
    4a62:	37 e0       	ldi	r19, 0x07	; 7
    4a64:	80 91 88 06 	lds	r24, 0x0688
    4a68:	84 fd       	sbrc	r24, 4
    4a6a:	ed cf       	rjmp	.-38     	; 0x4a46 <turnBTOff+0x10>
    4a6c:	80 e0       	ldi	r24, 0x00	; 0
    4a6e:	90 e0       	ldi	r25, 0x00	; 0
    4a70:	01 96       	adiw	r24, 0x01	; 1
    4a72:	85 3d       	cpi	r24, 0xD5	; 213
    4a74:	44 e1       	ldi	r20, 0x14	; 20
    4a76:	94 07       	cpc	r25, r20
    4a78:	d9 f7       	brne	.-10     	; 0x4a70 <turnBTOff+0x3a>
    4a7a:	21 50       	subi	r18, 0x01	; 1
    4a7c:	31 09       	sbc	r19, r1
    4a7e:	21 15       	cp	r18, r1
    4a80:	31 05       	cpc	r19, r1
    4a82:	81 f7       	brne	.-32     	; 0x4a64 <turnBTOff+0x2e>
    4a84:	e0 cf       	rjmp	.-64     	; 0x4a46 <turnBTOff+0x10>

00004a86 <initBTComms>:
    4a86:	86 e3       	ldi	r24, 0x36	; 54
    4a88:	95 e2       	ldi	r25, 0x25	; 37
    4a8a:	0e 94 57 13 	call	0x26ae	; 0x26ae <sendDBGLine>
    4a8e:	a8 95       	wdr
    4a90:	8d e3       	ldi	r24, 0x3D	; 61
    4a92:	95 e2       	ldi	r25, 0x25	; 37
    4a94:	1e df       	rcall	.-452    	; 0x48d2 <sendBTCmd>
    4a96:	80 91 88 06 	lds	r24, 0x0688
    4a9a:	84 ff       	sbrs	r24, 4
    4a9c:	3c c0       	rjmp	.+120    	; 0x4b16 <initBTComms+0x90>
    4a9e:	89 e4       	ldi	r24, 0x49	; 73
    4aa0:	95 e2       	ldi	r25, 0x25	; 37
    4aa2:	17 df       	rcall	.-466    	; 0x48d2 <sendBTCmd>
    4aa4:	a8 95       	wdr
    4aa6:	80 91 88 06 	lds	r24, 0x0688
    4aaa:	84 ff       	sbrs	r24, 4
    4aac:	1e c0       	rjmp	.+60     	; 0x4aea <initBTComms+0x64>
    4aae:	82 e5       	ldi	r24, 0x52	; 82
    4ab0:	95 e2       	ldi	r25, 0x25	; 37
    4ab2:	0f df       	rcall	.-482    	; 0x48d2 <sendBTCmd>
    4ab4:	a8 95       	wdr
    4ab6:	80 91 88 06 	lds	r24, 0x0688
    4aba:	84 fd       	sbrc	r24, 4
    4abc:	08 95       	ret
    4abe:	82 e0       	ldi	r24, 0x02	; 2
    4ac0:	80 93 85 06 	sts	0x0685, r24
    4ac4:	20 e7       	ldi	r18, 0x70	; 112
    4ac6:	37 e1       	ldi	r19, 0x17	; 23
    4ac8:	80 91 88 06 	lds	r24, 0x0688
    4acc:	84 fd       	sbrc	r24, 4
    4ace:	f6 cf       	rjmp	.-20     	; 0x4abc <initBTComms+0x36>
    4ad0:	80 e0       	ldi	r24, 0x00	; 0
    4ad2:	90 e0       	ldi	r25, 0x00	; 0
    4ad4:	01 96       	adiw	r24, 0x01	; 1
    4ad6:	85 3d       	cpi	r24, 0xD5	; 213
    4ad8:	44 e1       	ldi	r20, 0x14	; 20
    4ada:	94 07       	cpc	r25, r20
    4adc:	d9 f7       	brne	.-10     	; 0x4ad4 <initBTComms+0x4e>
    4ade:	21 50       	subi	r18, 0x01	; 1
    4ae0:	31 09       	sbc	r19, r1
    4ae2:	21 15       	cp	r18, r1
    4ae4:	31 05       	cpc	r19, r1
    4ae6:	81 f7       	brne	.-32     	; 0x4ac8 <initBTComms+0x42>
    4ae8:	08 95       	ret
    4aea:	82 e0       	ldi	r24, 0x02	; 2
    4aec:	80 93 85 06 	sts	0x0685, r24
    4af0:	28 ee       	ldi	r18, 0xE8	; 232
    4af2:	33 e0       	ldi	r19, 0x03	; 3
    4af4:	80 91 88 06 	lds	r24, 0x0688
    4af8:	84 fd       	sbrc	r24, 4
    4afa:	d9 cf       	rjmp	.-78     	; 0x4aae <initBTComms+0x28>
    4afc:	80 e0       	ldi	r24, 0x00	; 0
    4afe:	90 e0       	ldi	r25, 0x00	; 0
    4b00:	01 96       	adiw	r24, 0x01	; 1
    4b02:	85 3d       	cpi	r24, 0xD5	; 213
    4b04:	44 e1       	ldi	r20, 0x14	; 20
    4b06:	94 07       	cpc	r25, r20
    4b08:	d9 f7       	brne	.-10     	; 0x4b00 <initBTComms+0x7a>
    4b0a:	21 50       	subi	r18, 0x01	; 1
    4b0c:	31 09       	sbc	r19, r1
    4b0e:	21 15       	cp	r18, r1
    4b10:	31 05       	cpc	r19, r1
    4b12:	81 f7       	brne	.-32     	; 0x4af4 <initBTComms+0x6e>
    4b14:	cc cf       	rjmp	.-104    	; 0x4aae <initBTComms+0x28>
    4b16:	82 e0       	ldi	r24, 0x02	; 2
    4b18:	80 93 85 06 	sts	0x0685, r24
    4b1c:	20 ed       	ldi	r18, 0xD0	; 208
    4b1e:	37 e0       	ldi	r19, 0x07	; 7
    4b20:	80 91 88 06 	lds	r24, 0x0688
    4b24:	84 fd       	sbrc	r24, 4
    4b26:	bb cf       	rjmp	.-138    	; 0x4a9e <initBTComms+0x18>
    4b28:	80 e0       	ldi	r24, 0x00	; 0
    4b2a:	90 e0       	ldi	r25, 0x00	; 0
    4b2c:	01 96       	adiw	r24, 0x01	; 1
    4b2e:	85 3d       	cpi	r24, 0xD5	; 213
    4b30:	44 e1       	ldi	r20, 0x14	; 20
    4b32:	94 07       	cpc	r25, r20
    4b34:	d9 f7       	brne	.-10     	; 0x4b2c <initBTComms+0xa6>
    4b36:	21 50       	subi	r18, 0x01	; 1
    4b38:	31 09       	sbc	r19, r1
    4b3a:	21 15       	cp	r18, r1
    4b3c:	31 05       	cpc	r19, r1
    4b3e:	81 f7       	brne	.-32     	; 0x4b20 <initBTComms+0x9a>
    4b40:	ae cf       	rjmp	.-164    	; 0x4a9e <initBTComms+0x18>

00004b42 <bt_exitBypass>:
    4b42:	cf 93       	push	r28
    4b44:	df 93       	push	r29
    4b46:	81 e0       	ldi	r24, 0x01	; 1
    4b48:	80 93 a6 06 	sts	0x06A6, r24
    4b4c:	80 e2       	ldi	r24, 0x20	; 32
    4b4e:	80 93 85 06 	sts	0x0685, r24
    4b52:	85 e5       	ldi	r24, 0x55	; 85
    4b54:	93 e2       	ldi	r25, 0x23	; 35
    4b56:	a8 e0       	ldi	r26, 0x08	; 8
    4b58:	b0 e0       	ldi	r27, 0x00	; 0
    4b5a:	01 97       	sbiw	r24, 0x01	; 1
    4b5c:	a1 09       	sbc	r26, r1
    4b5e:	b1 09       	sbc	r27, r1
    4b60:	00 97       	sbiw	r24, 0x00	; 0
    4b62:	a1 05       	cpc	r26, r1
    4b64:	b1 05       	cpc	r27, r1
    4b66:	c9 f7       	brne	.-14     	; 0x4b5a <bt_exitBypass+0x18>
    4b68:	81 e0       	ldi	r24, 0x01	; 1
    4b6a:	80 93 86 06 	sts	0x0686, r24
    4b6e:	c0 ed       	ldi	r28, 0xD0	; 208
    4b70:	d7 e0       	ldi	r29, 0x07	; 7
    4b72:	80 e0       	ldi	r24, 0x00	; 0
    4b74:	90 e0       	ldi	r25, 0x00	; 0
    4b76:	01 96       	adiw	r24, 0x01	; 1
    4b78:	85 3d       	cpi	r24, 0xD5	; 213
    4b7a:	24 e1       	ldi	r18, 0x14	; 20
    4b7c:	92 07       	cpc	r25, r18
    4b7e:	d9 f7       	brne	.-10     	; 0x4b76 <bt_exitBypass+0x34>
    4b80:	0e 94 ea 18 	call	0x31d4	; 0x31d4 <WatchdogPet>
    4b84:	21 97       	sbiw	r28, 0x01	; 1
    4b86:	20 97       	sbiw	r28, 0x00	; 0
    4b88:	a1 f7       	brne	.-24     	; 0x4b72 <bt_exitBypass+0x30>
    4b8a:	80 e0       	ldi	r24, 0x00	; 0
    4b8c:	9a e6       	ldi	r25, 0x6A	; 106
    4b8e:	a8 e1       	ldi	r26, 0x18	; 24
    4b90:	b0 e0       	ldi	r27, 0x00	; 0
    4b92:	01 97       	sbiw	r24, 0x01	; 1
    4b94:	a1 09       	sbc	r26, r1
    4b96:	b1 09       	sbc	r27, r1
    4b98:	00 97       	sbiw	r24, 0x00	; 0
    4b9a:	a1 05       	cpc	r26, r1
    4b9c:	b1 05       	cpc	r27, r1
    4b9e:	c9 f7       	brne	.-14     	; 0x4b92 <bt_exitBypass+0x50>
    4ba0:	81 e0       	ldi	r24, 0x01	; 1
    4ba2:	80 93 a5 06 	sts	0x06A5, r24
    4ba6:	85 e5       	ldi	r24, 0x55	; 85
    4ba8:	93 e2       	ldi	r25, 0x23	; 35
    4baa:	a8 e0       	ldi	r26, 0x08	; 8
    4bac:	b0 e0       	ldi	r27, 0x00	; 0
    4bae:	01 97       	sbiw	r24, 0x01	; 1
    4bb0:	a1 09       	sbc	r26, r1
    4bb2:	b1 09       	sbc	r27, r1
    4bb4:	00 97       	sbiw	r24, 0x00	; 0
    4bb6:	a1 05       	cpc	r26, r1
    4bb8:	b1 05       	cpc	r27, r1
    4bba:	c9 f7       	brne	.-14     	; 0x4bae <bt_exitBypass+0x6c>
    4bbc:	df 91       	pop	r29
    4bbe:	cf 91       	pop	r28
    4bc0:	08 95       	ret

00004bc2 <bt_homeButton>:
    4bc2:	80 91 88 06 	lds	r24, 0x0688
    4bc6:	84 ff       	sbrs	r24, 4
    4bc8:	43 c0       	rjmp	.+134    	; 0x4c50 <bt_homeButton+0x8e>
    4bca:	61 ea       	ldi	r22, 0xA1	; 161
    4bcc:	80 ea       	ldi	r24, 0xA0	; 160
    4bce:	9a e0       	ldi	r25, 0x0A	; 10
    4bd0:	60 dc       	rcall	.-1856   	; 0x4492 <usart_putchar>
    4bd2:	80 91 88 06 	lds	r24, 0x0688
    4bd6:	84 ff       	sbrs	r24, 4
    4bd8:	54 c0       	rjmp	.+168    	; 0x4c82 <bt_homeButton+0xc0>
    4bda:	62 e0       	ldi	r22, 0x02	; 2
    4bdc:	80 ea       	ldi	r24, 0xA0	; 160
    4bde:	9a e0       	ldi	r25, 0x0A	; 10
    4be0:	58 dc       	rcall	.-1872   	; 0x4492 <usart_putchar>
    4be2:	80 91 88 06 	lds	r24, 0x0688
    4be6:	84 ff       	sbrs	r24, 4
    4be8:	65 c0       	rjmp	.+202    	; 0x4cb4 <bt_homeButton+0xf2>
    4bea:	61 e0       	ldi	r22, 0x01	; 1
    4bec:	80 ea       	ldi	r24, 0xA0	; 160
    4bee:	9a e0       	ldi	r25, 0x0A	; 10
    4bf0:	50 dc       	rcall	.-1888   	; 0x4492 <usart_putchar>
    4bf2:	80 91 88 06 	lds	r24, 0x0688
    4bf6:	84 ff       	sbrs	r24, 4
    4bf8:	76 c0       	rjmp	.+236    	; 0x4ce6 <bt_homeButton+0x124>
    4bfa:	60 e0       	ldi	r22, 0x00	; 0
    4bfc:	80 ea       	ldi	r24, 0xA0	; 160
    4bfe:	9a e0       	ldi	r25, 0x0A	; 10
    4c00:	48 dc       	rcall	.-1904   	; 0x4492 <usart_putchar>
    4c02:	80 e0       	ldi	r24, 0x00	; 0
    4c04:	90 e0       	ldi	r25, 0x00	; 0
    4c06:	01 96       	adiw	r24, 0x01	; 1
    4c08:	8a 32       	cpi	r24, 0x2A	; 42
    4c0a:	28 e6       	ldi	r18, 0x68	; 104
    4c0c:	92 07       	cpc	r25, r18
    4c0e:	d9 f7       	brne	.-10     	; 0x4c06 <bt_homeButton+0x44>
    4c10:	80 91 88 06 	lds	r24, 0x0688
    4c14:	84 ff       	sbrs	r24, 4
    4c16:	bf c0       	rjmp	.+382    	; 0x4d96 <bt_homeButton+0x1d4>
    4c18:	61 ea       	ldi	r22, 0xA1	; 161
    4c1a:	80 ea       	ldi	r24, 0xA0	; 160
    4c1c:	9a e0       	ldi	r25, 0x0A	; 10
    4c1e:	39 dc       	rcall	.-1934   	; 0x4492 <usart_putchar>
    4c20:	80 91 88 06 	lds	r24, 0x0688
    4c24:	84 ff       	sbrs	r24, 4
    4c26:	a1 c0       	rjmp	.+322    	; 0x4d6a <bt_homeButton+0x1a8>
    4c28:	62 e0       	ldi	r22, 0x02	; 2
    4c2a:	80 ea       	ldi	r24, 0xA0	; 160
    4c2c:	9a e0       	ldi	r25, 0x0A	; 10
    4c2e:	31 dc       	rcall	.-1950   	; 0x4492 <usart_putchar>
    4c30:	80 91 88 06 	lds	r24, 0x0688
    4c34:	84 ff       	sbrs	r24, 4
    4c36:	83 c0       	rjmp	.+262    	; 0x4d3e <bt_homeButton+0x17c>
    4c38:	60 e0       	ldi	r22, 0x00	; 0
    4c3a:	80 ea       	ldi	r24, 0xA0	; 160
    4c3c:	9a e0       	ldi	r25, 0x0A	; 10
    4c3e:	29 dc       	rcall	.-1966   	; 0x4492 <usart_putchar>
    4c40:	80 91 88 06 	lds	r24, 0x0688
    4c44:	84 ff       	sbrs	r24, 4
    4c46:	65 c0       	rjmp	.+202    	; 0x4d12 <bt_homeButton+0x150>
    4c48:	60 e0       	ldi	r22, 0x00	; 0
    4c4a:	80 ea       	ldi	r24, 0xA0	; 160
    4c4c:	9a e0       	ldi	r25, 0x0A	; 10
    4c4e:	21 cc       	rjmp	.-1982   	; 0x4492 <usart_putchar>
    4c50:	82 e0       	ldi	r24, 0x02	; 2
    4c52:	80 93 85 06 	sts	0x0685, r24
    4c56:	28 ee       	ldi	r18, 0xE8	; 232
    4c58:	33 e0       	ldi	r19, 0x03	; 3
    4c5a:	80 91 88 06 	lds	r24, 0x0688
    4c5e:	84 fd       	sbrc	r24, 4
    4c60:	b4 cf       	rjmp	.-152    	; 0x4bca <bt_homeButton+0x8>
    4c62:	80 e0       	ldi	r24, 0x00	; 0
    4c64:	90 e0       	ldi	r25, 0x00	; 0
    4c66:	01 96       	adiw	r24, 0x01	; 1
    4c68:	85 3d       	cpi	r24, 0xD5	; 213
    4c6a:	44 e1       	ldi	r20, 0x14	; 20
    4c6c:	94 07       	cpc	r25, r20
    4c6e:	d9 f7       	brne	.-10     	; 0x4c66 <bt_homeButton+0xa4>
    4c70:	21 50       	subi	r18, 0x01	; 1
    4c72:	31 09       	sbc	r19, r1
    4c74:	21 15       	cp	r18, r1
    4c76:	31 05       	cpc	r19, r1
    4c78:	81 f7       	brne	.-32     	; 0x4c5a <bt_homeButton+0x98>
    4c7a:	80 91 88 06 	lds	r24, 0x0688
    4c7e:	84 fd       	sbrc	r24, 4
    4c80:	ac cf       	rjmp	.-168    	; 0x4bda <bt_homeButton+0x18>
    4c82:	82 e0       	ldi	r24, 0x02	; 2
    4c84:	80 93 85 06 	sts	0x0685, r24
    4c88:	28 ee       	ldi	r18, 0xE8	; 232
    4c8a:	33 e0       	ldi	r19, 0x03	; 3
    4c8c:	80 91 88 06 	lds	r24, 0x0688
    4c90:	84 fd       	sbrc	r24, 4
    4c92:	a3 cf       	rjmp	.-186    	; 0x4bda <bt_homeButton+0x18>
    4c94:	80 e0       	ldi	r24, 0x00	; 0
    4c96:	90 e0       	ldi	r25, 0x00	; 0
    4c98:	01 96       	adiw	r24, 0x01	; 1
    4c9a:	85 3d       	cpi	r24, 0xD5	; 213
    4c9c:	44 e1       	ldi	r20, 0x14	; 20
    4c9e:	94 07       	cpc	r25, r20
    4ca0:	d9 f7       	brne	.-10     	; 0x4c98 <bt_homeButton+0xd6>
    4ca2:	21 50       	subi	r18, 0x01	; 1
    4ca4:	31 09       	sbc	r19, r1
    4ca6:	21 15       	cp	r18, r1
    4ca8:	31 05       	cpc	r19, r1
    4caa:	81 f7       	brne	.-32     	; 0x4c8c <bt_homeButton+0xca>
    4cac:	80 91 88 06 	lds	r24, 0x0688
    4cb0:	84 fd       	sbrc	r24, 4
    4cb2:	9b cf       	rjmp	.-202    	; 0x4bea <bt_homeButton+0x28>
    4cb4:	82 e0       	ldi	r24, 0x02	; 2
    4cb6:	80 93 85 06 	sts	0x0685, r24
    4cba:	28 ee       	ldi	r18, 0xE8	; 232
    4cbc:	33 e0       	ldi	r19, 0x03	; 3
    4cbe:	80 91 88 06 	lds	r24, 0x0688
    4cc2:	84 fd       	sbrc	r24, 4
    4cc4:	92 cf       	rjmp	.-220    	; 0x4bea <bt_homeButton+0x28>
    4cc6:	80 e0       	ldi	r24, 0x00	; 0
    4cc8:	90 e0       	ldi	r25, 0x00	; 0
    4cca:	01 96       	adiw	r24, 0x01	; 1
    4ccc:	85 3d       	cpi	r24, 0xD5	; 213
    4cce:	44 e1       	ldi	r20, 0x14	; 20
    4cd0:	94 07       	cpc	r25, r20
    4cd2:	d9 f7       	brne	.-10     	; 0x4cca <bt_homeButton+0x108>
    4cd4:	21 50       	subi	r18, 0x01	; 1
    4cd6:	31 09       	sbc	r19, r1
    4cd8:	21 15       	cp	r18, r1
    4cda:	31 05       	cpc	r19, r1
    4cdc:	81 f7       	brne	.-32     	; 0x4cbe <bt_homeButton+0xfc>
    4cde:	80 91 88 06 	lds	r24, 0x0688
    4ce2:	84 fd       	sbrc	r24, 4
    4ce4:	8a cf       	rjmp	.-236    	; 0x4bfa <bt_homeButton+0x38>
    4ce6:	82 e0       	ldi	r24, 0x02	; 2
    4ce8:	80 93 85 06 	sts	0x0685, r24
    4cec:	28 ee       	ldi	r18, 0xE8	; 232
    4cee:	33 e0       	ldi	r19, 0x03	; 3
    4cf0:	80 91 88 06 	lds	r24, 0x0688
    4cf4:	84 fd       	sbrc	r24, 4
    4cf6:	81 cf       	rjmp	.-254    	; 0x4bfa <bt_homeButton+0x38>
    4cf8:	80 e0       	ldi	r24, 0x00	; 0
    4cfa:	90 e0       	ldi	r25, 0x00	; 0
    4cfc:	01 96       	adiw	r24, 0x01	; 1
    4cfe:	85 3d       	cpi	r24, 0xD5	; 213
    4d00:	44 e1       	ldi	r20, 0x14	; 20
    4d02:	94 07       	cpc	r25, r20
    4d04:	d9 f7       	brne	.-10     	; 0x4cfc <bt_homeButton+0x13a>
    4d06:	21 50       	subi	r18, 0x01	; 1
    4d08:	31 09       	sbc	r19, r1
    4d0a:	21 15       	cp	r18, r1
    4d0c:	31 05       	cpc	r19, r1
    4d0e:	81 f7       	brne	.-32     	; 0x4cf0 <bt_homeButton+0x12e>
    4d10:	78 cf       	rjmp	.-272    	; 0x4c02 <bt_homeButton+0x40>
    4d12:	82 e0       	ldi	r24, 0x02	; 2
    4d14:	80 93 85 06 	sts	0x0685, r24
    4d18:	28 ee       	ldi	r18, 0xE8	; 232
    4d1a:	33 e0       	ldi	r19, 0x03	; 3
    4d1c:	80 91 88 06 	lds	r24, 0x0688
    4d20:	84 fd       	sbrc	r24, 4
    4d22:	92 cf       	rjmp	.-220    	; 0x4c48 <bt_homeButton+0x86>
    4d24:	80 e0       	ldi	r24, 0x00	; 0
    4d26:	90 e0       	ldi	r25, 0x00	; 0
    4d28:	01 96       	adiw	r24, 0x01	; 1
    4d2a:	85 3d       	cpi	r24, 0xD5	; 213
    4d2c:	44 e1       	ldi	r20, 0x14	; 20
    4d2e:	94 07       	cpc	r25, r20
    4d30:	d9 f7       	brne	.-10     	; 0x4d28 <bt_homeButton+0x166>
    4d32:	21 50       	subi	r18, 0x01	; 1
    4d34:	31 09       	sbc	r19, r1
    4d36:	21 15       	cp	r18, r1
    4d38:	31 05       	cpc	r19, r1
    4d3a:	81 f7       	brne	.-32     	; 0x4d1c <bt_homeButton+0x15a>
    4d3c:	08 95       	ret
    4d3e:	82 e0       	ldi	r24, 0x02	; 2
    4d40:	80 93 85 06 	sts	0x0685, r24
    4d44:	28 ee       	ldi	r18, 0xE8	; 232
    4d46:	33 e0       	ldi	r19, 0x03	; 3
    4d48:	80 91 88 06 	lds	r24, 0x0688
    4d4c:	84 fd       	sbrc	r24, 4
    4d4e:	74 cf       	rjmp	.-280    	; 0x4c38 <bt_homeButton+0x76>
    4d50:	80 e0       	ldi	r24, 0x00	; 0
    4d52:	90 e0       	ldi	r25, 0x00	; 0
    4d54:	01 96       	adiw	r24, 0x01	; 1
    4d56:	85 3d       	cpi	r24, 0xD5	; 213
    4d58:	44 e1       	ldi	r20, 0x14	; 20
    4d5a:	94 07       	cpc	r25, r20
    4d5c:	d9 f7       	brne	.-10     	; 0x4d54 <bt_homeButton+0x192>
    4d5e:	21 50       	subi	r18, 0x01	; 1
    4d60:	31 09       	sbc	r19, r1
    4d62:	21 15       	cp	r18, r1
    4d64:	31 05       	cpc	r19, r1
    4d66:	81 f7       	brne	.-32     	; 0x4d48 <bt_homeButton+0x186>
    4d68:	6b cf       	rjmp	.-298    	; 0x4c40 <bt_homeButton+0x7e>
    4d6a:	82 e0       	ldi	r24, 0x02	; 2
    4d6c:	80 93 85 06 	sts	0x0685, r24
    4d70:	28 ee       	ldi	r18, 0xE8	; 232
    4d72:	33 e0       	ldi	r19, 0x03	; 3
    4d74:	80 91 88 06 	lds	r24, 0x0688
    4d78:	84 fd       	sbrc	r24, 4
    4d7a:	56 cf       	rjmp	.-340    	; 0x4c28 <bt_homeButton+0x66>
    4d7c:	80 e0       	ldi	r24, 0x00	; 0
    4d7e:	90 e0       	ldi	r25, 0x00	; 0
    4d80:	01 96       	adiw	r24, 0x01	; 1
    4d82:	85 3d       	cpi	r24, 0xD5	; 213
    4d84:	44 e1       	ldi	r20, 0x14	; 20
    4d86:	94 07       	cpc	r25, r20
    4d88:	d9 f7       	brne	.-10     	; 0x4d80 <bt_homeButton+0x1be>
    4d8a:	21 50       	subi	r18, 0x01	; 1
    4d8c:	31 09       	sbc	r19, r1
    4d8e:	21 15       	cp	r18, r1
    4d90:	31 05       	cpc	r19, r1
    4d92:	81 f7       	brne	.-32     	; 0x4d74 <bt_homeButton+0x1b2>
    4d94:	4d cf       	rjmp	.-358    	; 0x4c30 <bt_homeButton+0x6e>
    4d96:	82 e0       	ldi	r24, 0x02	; 2
    4d98:	80 93 85 06 	sts	0x0685, r24
    4d9c:	28 ee       	ldi	r18, 0xE8	; 232
    4d9e:	33 e0       	ldi	r19, 0x03	; 3
    4da0:	80 91 88 06 	lds	r24, 0x0688
    4da4:	84 fd       	sbrc	r24, 4
    4da6:	38 cf       	rjmp	.-400    	; 0x4c18 <bt_homeButton+0x56>
    4da8:	80 e0       	ldi	r24, 0x00	; 0
    4daa:	90 e0       	ldi	r25, 0x00	; 0
    4dac:	01 96       	adiw	r24, 0x01	; 1
    4dae:	85 3d       	cpi	r24, 0xD5	; 213
    4db0:	44 e1       	ldi	r20, 0x14	; 20
    4db2:	94 07       	cpc	r25, r20
    4db4:	d9 f7       	brne	.-10     	; 0x4dac <bt_homeButton+0x1ea>
    4db6:	21 50       	subi	r18, 0x01	; 1
    4db8:	31 09       	sbc	r19, r1
    4dba:	21 15       	cp	r18, r1
    4dbc:	31 05       	cpc	r19, r1
    4dbe:	81 f7       	brne	.-32     	; 0x4da0 <bt_homeButton+0x1de>
    4dc0:	2f cf       	rjmp	.-418    	; 0x4c20 <bt_homeButton+0x5e>

00004dc2 <btFactoryReset>:
    4dc2:	cf 93       	push	r28
    4dc4:	df 93       	push	r29
    4dc6:	8a e2       	ldi	r24, 0x2A	; 42
    4dc8:	95 e2       	ldi	r25, 0x25	; 37
    4dca:	0e 94 57 13 	call	0x26ae	; 0x26ae <sendDBGLine>
    4dce:	80 91 88 06 	lds	r24, 0x0688
    4dd2:	84 ff       	sbrs	r24, 4
    4dd4:	3a c0       	rjmp	.+116    	; 0x4e4a <btFactoryReset+0x88>
    4dd6:	80 e3       	ldi	r24, 0x30	; 48
    4dd8:	95 e2       	ldi	r25, 0x25	; 37
    4dda:	7b dd       	rcall	.-1290   	; 0x48d2 <sendBTCmd>
    4ddc:	91 e0       	ldi	r25, 0x01	; 1
    4dde:	90 93 85 06 	sts	0x0685, r25
    4de2:	80 e2       	ldi	r24, 0x20	; 32
    4de4:	80 93 86 06 	sts	0x0686, r24
    4de8:	90 93 a6 06 	sts	0x06A6, r25
    4dec:	80 93 85 06 	sts	0x0685, r24
    4df0:	85 e5       	ldi	r24, 0x55	; 85
    4df2:	93 e2       	ldi	r25, 0x23	; 35
    4df4:	a8 e0       	ldi	r26, 0x08	; 8
    4df6:	b0 e0       	ldi	r27, 0x00	; 0
    4df8:	01 97       	sbiw	r24, 0x01	; 1
    4dfa:	a1 09       	sbc	r26, r1
    4dfc:	b1 09       	sbc	r27, r1
    4dfe:	00 97       	sbiw	r24, 0x00	; 0
    4e00:	a1 05       	cpc	r26, r1
    4e02:	b1 05       	cpc	r27, r1
    4e04:	c9 f7       	brne	.-14     	; 0x4df8 <btFactoryReset+0x36>
    4e06:	81 e0       	ldi	r24, 0x01	; 1
    4e08:	80 93 86 06 	sts	0x0686, r24
    4e0c:	c0 ed       	ldi	r28, 0xD0	; 208
    4e0e:	d7 e0       	ldi	r29, 0x07	; 7
    4e10:	80 e0       	ldi	r24, 0x00	; 0
    4e12:	90 e0       	ldi	r25, 0x00	; 0
    4e14:	01 96       	adiw	r24, 0x01	; 1
    4e16:	85 3d       	cpi	r24, 0xD5	; 213
    4e18:	24 e1       	ldi	r18, 0x14	; 20
    4e1a:	92 07       	cpc	r25, r18
    4e1c:	d9 f7       	brne	.-10     	; 0x4e14 <btFactoryReset+0x52>
    4e1e:	0e 94 ea 18 	call	0x31d4	; 0x31d4 <WatchdogPet>
    4e22:	21 97       	sbiw	r28, 0x01	; 1
    4e24:	20 97       	sbiw	r28, 0x00	; 0
    4e26:	a1 f7       	brne	.-24     	; 0x4e10 <btFactoryReset+0x4e>
    4e28:	8a ea       	ldi	r24, 0xAA	; 170
    4e2a:	9b e7       	ldi	r25, 0x7B	; 123
    4e2c:	ac e1       	ldi	r26, 0x1C	; 28
    4e2e:	b0 e0       	ldi	r27, 0x00	; 0
    4e30:	01 97       	sbiw	r24, 0x01	; 1
    4e32:	a1 09       	sbc	r26, r1
    4e34:	b1 09       	sbc	r27, r1
    4e36:	00 97       	sbiw	r24, 0x00	; 0
    4e38:	a1 05       	cpc	r26, r1
    4e3a:	b1 05       	cpc	r27, r1
    4e3c:	c9 f7       	brne	.-14     	; 0x4e30 <btFactoryReset+0x6e>
    4e3e:	81 e0       	ldi	r24, 0x01	; 1
    4e40:	80 93 a5 06 	sts	0x06A5, r24
    4e44:	df 91       	pop	r29
    4e46:	cf 91       	pop	r28
    4e48:	08 95       	ret
    4e4a:	82 e0       	ldi	r24, 0x02	; 2
    4e4c:	80 93 85 06 	sts	0x0685, r24
    4e50:	20 ed       	ldi	r18, 0xD0	; 208
    4e52:	37 e0       	ldi	r19, 0x07	; 7
    4e54:	80 91 88 06 	lds	r24, 0x0688
    4e58:	84 fd       	sbrc	r24, 4
    4e5a:	bd cf       	rjmp	.-134    	; 0x4dd6 <btFactoryReset+0x14>
    4e5c:	80 e0       	ldi	r24, 0x00	; 0
    4e5e:	90 e0       	ldi	r25, 0x00	; 0
    4e60:	01 96       	adiw	r24, 0x01	; 1
    4e62:	85 3d       	cpi	r24, 0xD5	; 213
    4e64:	44 e1       	ldi	r20, 0x14	; 20
    4e66:	94 07       	cpc	r25, r20
    4e68:	d9 f7       	brne	.-10     	; 0x4e60 <btFactoryReset+0x9e>
    4e6a:	21 50       	subi	r18, 0x01	; 1
    4e6c:	31 09       	sbc	r19, r1
    4e6e:	21 15       	cp	r18, r1
    4e70:	31 05       	cpc	r19, r1
    4e72:	81 f7       	brne	.-32     	; 0x4e54 <btFactoryReset+0x92>
    4e74:	b0 cf       	rjmp	.-160    	; 0x4dd6 <btFactoryReset+0x14>

00004e76 <btIsConnected>:
    4e76:	e0 e8       	ldi	r30, 0x80	; 128
    4e78:	f6 e0       	ldi	r31, 0x06	; 6
    4e7a:	80 85       	ldd	r24, Z+8	; 0x08
    4e7c:	86 fb       	bst	r24, 6
    4e7e:	88 27       	eor	r24, r24
    4e80:	80 f9       	bld	r24, 0
    4e82:	91 e0       	ldi	r25, 0x01	; 1
    4e84:	89 27       	eor	r24, r25
    4e86:	08 95       	ret

00004e88 <btClearAutoConnectList>:
    4e88:	80 91 88 06 	lds	r24, 0x0688
    4e8c:	84 ff       	sbrs	r24, 4
    4e8e:	03 c0       	rjmp	.+6      	; 0x4e96 <btClearAutoConnectList+0xe>
    4e90:	81 e6       	ldi	r24, 0x61	; 97
    4e92:	95 e2       	ldi	r25, 0x25	; 37
    4e94:	1e cd       	rjmp	.-1476   	; 0x48d2 <sendBTCmd>
    4e96:	82 e0       	ldi	r24, 0x02	; 2
    4e98:	80 93 85 06 	sts	0x0685, r24
    4e9c:	28 ee       	ldi	r18, 0xE8	; 232
    4e9e:	33 e0       	ldi	r19, 0x03	; 3
    4ea0:	80 91 88 06 	lds	r24, 0x0688
    4ea4:	84 fd       	sbrc	r24, 4
    4ea6:	f4 cf       	rjmp	.-24     	; 0x4e90 <btClearAutoConnectList+0x8>
    4ea8:	80 e0       	ldi	r24, 0x00	; 0
    4eaa:	90 e0       	ldi	r25, 0x00	; 0
    4eac:	01 96       	adiw	r24, 0x01	; 1
    4eae:	85 3d       	cpi	r24, 0xD5	; 213
    4eb0:	44 e1       	ldi	r20, 0x14	; 20
    4eb2:	94 07       	cpc	r25, r20
    4eb4:	d9 f7       	brne	.-10     	; 0x4eac <btClearAutoConnectList+0x24>
    4eb6:	21 50       	subi	r18, 0x01	; 1
    4eb8:	31 09       	sbc	r19, r1
    4eba:	21 15       	cp	r18, r1
    4ebc:	31 05       	cpc	r19, r1
    4ebe:	81 f7       	brne	.-32     	; 0x4ea0 <btClearAutoConnectList+0x18>
    4ec0:	81 e6       	ldi	r24, 0x61	; 97
    4ec2:	95 e2       	ldi	r25, 0x25	; 37
    4ec4:	06 cd       	rjmp	.-1524   	; 0x48d2 <sendBTCmd>

00004ec6 <BluetoothKeyboardMode>:
    4ec6:	87 e6       	ldi	r24, 0x67	; 103
    4ec8:	95 e2       	ldi	r25, 0x25	; 37
    4eca:	03 cd       	rjmp	.-1530   	; 0x48d2 <sendBTCmd>

00004ecc <BluetoothComboMode>:
    4ecc:	81 e8       	ldi	r24, 0x81	; 129
    4ece:	95 e2       	ldi	r25, 0x25	; 37
    4ed0:	00 cd       	rjmp	.-1536   	; 0x48d2 <sendBTCmd>

00004ed2 <BluetoothGamePadMode>:
    4ed2:	8e e8       	ldi	r24, 0x8E	; 142
    4ed4:	95 e2       	ldi	r25, 0x25	; 37
    4ed6:	fd cc       	rjmp	.-1542   	; 0x48d2 <sendBTCmd>

00004ed8 <BluetoothJoystickMode>:
    4ed8:	8b e9       	ldi	r24, 0x9B	; 155
    4eda:	95 e2       	ldi	r25, 0x25	; 37
    4edc:	fa cc       	rjmp	.-1548   	; 0x48d2 <sendBTCmd>

00004ede <reset_do_soft_reset>:
    4ede:	61 e0       	ldi	r22, 0x01	; 1
    4ee0:	89 e7       	ldi	r24, 0x79	; 121
    4ee2:	90 e0       	ldi	r25, 0x00	; 0
    4ee4:	0e 94 30 1a 	call	0x3460	; 0x3460 <ccp_write_io>
    4ee8:	ff cf       	rjmp	.-2      	; 0x4ee8 <reset_do_soft_reset+0xa>

00004eea <sysTickCallback>:
    4eea:	0e 94 37 17 	call	0x2e6e	; 0x2e6e <clearSysTickFlag>
    4eee:	0e 94 9d 16 	call	0x2d3a	; 0x2d3a <tickSystemTime>
    4ef2:	80 91 e1 27 	lds	r24, 0x27E1
    4ef6:	90 91 e2 27 	lds	r25, 0x27E2
    4efa:	01 96       	adiw	r24, 0x01	; 1
    4efc:	88 3e       	cpi	r24, 0xE8	; 232
    4efe:	23 e0       	ldi	r18, 0x03	; 3
    4f00:	92 07       	cpc	r25, r18
    4f02:	28 f4       	brcc	.+10     	; 0x4f0e <sysTickCallback+0x24>
    4f04:	80 93 e1 27 	sts	0x27E1, r24
    4f08:	90 93 e2 27 	sts	0x27E2, r25
    4f0c:	08 95       	ret
    4f0e:	10 92 e1 27 	sts	0x27E1, r1
    4f12:	10 92 e2 27 	sts	0x27E2, r1
    4f16:	0c 94 ef 18 	jmp	0x31de	; 0x31de <WatchdogValidate>

00004f1a <selectHandlers>:
    4f1a:	80 91 16 28 	lds	r24, 0x2816
    4f1e:	82 30       	cpi	r24, 0x02	; 2
    4f20:	09 f4       	brne	.+2      	; 0x4f24 <selectHandlers+0xa>
    4f22:	61 c0       	rjmp	.+194    	; 0x4fe6 <selectHandlers+0xcc>
    4f24:	b0 f4       	brcc	.+44     	; 0x4f52 <selectHandlers+0x38>
    4f26:	88 23       	and	r24, r24
    4f28:	09 f4       	brne	.+2      	; 0x4f2c <selectHandlers+0x12>
    4f2a:	4a c0       	rjmp	.+148    	; 0x4fc0 <selectHandlers+0xa6>
    4f2c:	81 30       	cpi	r24, 0x01	; 1
    4f2e:	41 f5       	brne	.+80     	; 0x4f80 <selectHandlers+0x66>
    4f30:	87 ef       	ldi	r24, 0xF7	; 247
    4f32:	94 e0       	ldi	r25, 0x04	; 4
    4f34:	80 93 e7 27 	sts	0x27E7, r24
    4f38:	90 93 e8 27 	sts	0x27E8, r25
    4f3c:	8d ef       	ldi	r24, 0xFD	; 253
    4f3e:	94 e0       	ldi	r25, 0x04	; 4
    4f40:	80 93 e5 27 	sts	0x27E5, r24
    4f44:	90 93 e6 27 	sts	0x27E6, r25
    4f48:	10 92 e3 27 	sts	0x27E3, r1
    4f4c:	10 92 e4 27 	sts	0x27E4, r1
    4f50:	08 95       	ret
    4f52:	84 30       	cpi	r24, 0x04	; 4
    4f54:	11 f1       	breq	.+68     	; 0x4f9a <selectHandlers+0x80>
    4f56:	87 30       	cpi	r24, 0x07	; 7
    4f58:	99 f4       	brne	.+38     	; 0x4f80 <selectHandlers+0x66>
    4f5a:	84 e4       	ldi	r24, 0x44	; 68
    4f5c:	9c e0       	ldi	r25, 0x0C	; 12
    4f5e:	80 93 e7 27 	sts	0x27E7, r24
    4f62:	90 93 e8 27 	sts	0x27E8, r25
    4f66:	81 e7       	ldi	r24, 0x71	; 113
    4f68:	9c e0       	ldi	r25, 0x0C	; 12
    4f6a:	80 93 e5 27 	sts	0x27E5, r24
    4f6e:	90 93 e6 27 	sts	0x27E6, r25
    4f72:	85 ea       	ldi	r24, 0xA5	; 165
    4f74:	9d e0       	ldi	r25, 0x0D	; 13
    4f76:	80 93 e3 27 	sts	0x27E3, r24
    4f7a:	90 93 e4 27 	sts	0x27E4, r25
    4f7e:	08 95       	ret
    4f80:	10 92 e7 27 	sts	0x27E7, r1
    4f84:	10 92 e8 27 	sts	0x27E8, r1
    4f88:	10 92 e5 27 	sts	0x27E5, r1
    4f8c:	10 92 e6 27 	sts	0x27E6, r1
    4f90:	10 92 e3 27 	sts	0x27E3, r1
    4f94:	10 92 e4 27 	sts	0x27E4, r1
    4f98:	08 95       	ret
    4f9a:	87 e3       	ldi	r24, 0x37	; 55
    4f9c:	90 e1       	ldi	r25, 0x10	; 16
    4f9e:	80 93 e7 27 	sts	0x27E7, r24
    4fa2:	90 93 e8 27 	sts	0x27E8, r25
    4fa6:	87 eb       	ldi	r24, 0xB7	; 183
    4fa8:	91 e1       	ldi	r25, 0x11	; 17
    4faa:	80 93 e5 27 	sts	0x27E5, r24
    4fae:	90 93 e6 27 	sts	0x27E6, r25
    4fb2:	88 eb       	ldi	r24, 0xB8	; 184
    4fb4:	91 e1       	ldi	r25, 0x11	; 17
    4fb6:	80 93 e3 27 	sts	0x27E3, r24
    4fba:	90 93 e4 27 	sts	0x27E4, r25
    4fbe:	08 95       	ret
    4fc0:	8f e1       	ldi	r24, 0x1F	; 31
    4fc2:	9e e0       	ldi	r25, 0x0E	; 14
    4fc4:	80 93 e7 27 	sts	0x27E7, r24
    4fc8:	90 93 e8 27 	sts	0x27E8, r25
    4fcc:	8d e8       	ldi	r24, 0x8D	; 141
    4fce:	9f e0       	ldi	r25, 0x0F	; 15
    4fd0:	80 93 e5 27 	sts	0x27E5, r24
    4fd4:	90 93 e6 27 	sts	0x27E6, r25
    4fd8:	8e e8       	ldi	r24, 0x8E	; 142
    4fda:	9f e0       	ldi	r25, 0x0F	; 15
    4fdc:	80 93 e3 27 	sts	0x27E3, r24
    4fe0:	90 93 e4 27 	sts	0x27E4, r25
    4fe4:	08 95       	ret
    4fe6:	80 e5       	ldi	r24, 0x50	; 80
    4fe8:	9a e0       	ldi	r25, 0x0A	; 10
    4fea:	80 93 e7 27 	sts	0x27E7, r24
    4fee:	90 93 e8 27 	sts	0x27E8, r25
    4ff2:	8d e7       	ldi	r24, 0x7D	; 125
    4ff4:	9a e0       	ldi	r25, 0x0A	; 10
    4ff6:	80 93 e5 27 	sts	0x27E5, r24
    4ffa:	90 93 e6 27 	sts	0x27E6, r25
    4ffe:	8a ec       	ldi	r24, 0xCA	; 202
    5000:	9b e0       	ldi	r25, 0x0B	; 11
    5002:	80 93 e3 27 	sts	0x27E3, r24
    5006:	90 93 e4 27 	sts	0x27E4, r25
    500a:	08 95       	ret

0000500c <SetupStartPinExternalInterrupt>:
    500c:	9f b7       	in	r25, 0x3f	; 63
    500e:	f8 94       	cli
    5010:	84 e0       	ldi	r24, 0x04	; 4
    5012:	80 93 aa 06 	sts	0x06AA, r24
    5016:	2f b7       	in	r18, 0x3f	; 63
    5018:	f8 94       	cli
    501a:	80 93 b0 00 	sts	0x00B0, r24
    501e:	e0 ea       	ldi	r30, 0xA0	; 160
    5020:	f6 e0       	ldi	r31, 0x06	; 6
    5022:	80 89       	ldd	r24, Z+16	; 0x10
    5024:	88 7f       	andi	r24, 0xF8	; 248
    5026:	80 8b       	std	Z+16, r24	; 0x10
    5028:	80 89       	ldd	r24, Z+16	; 0x10
    502a:	81 60       	ori	r24, 0x01	; 1
    502c:	80 8b       	std	Z+16, r24	; 0x10
    502e:	2f bf       	out	0x3f, r18	; 63
    5030:	82 e0       	ldi	r24, 0x02	; 2
    5032:	80 93 a9 06 	sts	0x06A9, r24
    5036:	9f bf       	out	0x3f, r25	; 63
    5038:	08 95       	ret

0000503a <main>:
    503a:	cf 93       	push	r28
    503c:	df 93       	push	r29
    503e:	cd b7       	in	r28, 0x3d	; 61
    5040:	de b7       	in	r29, 0x3e	; 62
    5042:	c1 55       	subi	r28, 0x51	; 81
    5044:	d1 09       	sbc	r29, r1
    5046:	cd bf       	out	0x3d, r28	; 61
    5048:	de bf       	out	0x3e, r29	; 62
    504a:	10 92 15 28 	sts	0x2815, r1
    504e:	0e 94 18 19 	call	0x3230	; 0x3230 <sysclk_init>
    5052:	0e 94 8a 01 	call	0x314	; 0x314 <board_init>
    5056:	80 e0       	ldi	r24, 0x00	; 0
    5058:	90 e0       	ldi	r25, 0x00	; 0
    505a:	01 96       	adiw	r24, 0x01	; 1
    505c:	8a 32       	cpi	r24, 0x2A	; 42
    505e:	28 e6       	ldi	r18, 0x68	; 104
    5060:	92 07       	cpc	r25, r18
    5062:	d9 f7       	brne	.-10     	; 0x505a <main+0x20>
    5064:	80 e0       	ldi	r24, 0x00	; 0
    5066:	0e 94 93 15 	call	0x2b26	; 0x2b26 <setupLEDs>
    506a:	41 e0       	ldi	r20, 0x01	; 1
    506c:	60 e0       	ldi	r22, 0x00	; 0
    506e:	80 e0       	ldi	r24, 0x00	; 0
    5070:	0e 94 bc 15 	call	0x2b78	; 0x2b78 <setLEDValue>
    5074:	88 e0       	ldi	r24, 0x08	; 8
    5076:	0e 94 d0 04 	call	0x9a0	; 0x9a0 <buttonActivated>
    507a:	81 11       	cpse	r24, r1
    507c:	fb cf       	rjmp	.-10     	; 0x5074 <main+0x3a>
    507e:	0e 94 39 01 	call	0x272	; 0x272 <setupAnalog>
    5082:	0e 94 86 01 	call	0x30c	; 0x30c <enableAnalog>
    5086:	83 e0       	ldi	r24, 0x03	; 3
    5088:	0e 94 57 01 	call	0x2ae	; 0x2ae <sampleAnalogChannel>
    508c:	6c 01       	movw	r12, r24
    508e:	0e 94 c1 02 	call	0x582	; 0x582 <IsChargingDone>
    5092:	b8 2e       	mov	r11, r24
    5094:	ac dc       	rcall	.-1704   	; 0x49ee <turnBTOn>
    5096:	c4 db       	rcall	.-2168   	; 0x4820 <setupBluetoothFast>
    5098:	0e 94 e5 18 	call	0x31ca	; 0x31ca <WatchdogInit>
    509c:	85 e7       	ldi	r24, 0x75	; 117
    509e:	97 e2       	ldi	r25, 0x27	; 39
    50a0:	0e 94 02 17 	call	0x2e04	; 0x2e04 <setupSysTick>
    50a4:	0e 94 d5 12 	call	0x25aa	; 0x25aa <setupDbg>
    50a8:	0e 94 3d 17 	call	0x2e7a	; 0x2e7a <setupUsb>
    50ac:	03 e4       	ldi	r16, 0x43	; 67
    50ae:	10 e2       	ldi	r17, 0x20	; 32
    50b0:	f8 01       	movw	r30, r16
    50b2:	31 97       	sbiw	r30, 0x01	; 1
    50b4:	80 81       	ld	r24, Z
    50b6:	0e 94 57 01 	call	0x2ae	; 0x2ae <sampleAnalogChannel>
    50ba:	d8 01       	movw	r26, r16
    50bc:	19 96       	adiw	r26, 0x09	; 9
    50be:	8d 93       	st	X+, r24
    50c0:	9c 93       	st	X, r25
    50c2:	1a 97       	sbiw	r26, 0x0a	; 10
    50c4:	11 96       	adiw	r26, 0x01	; 1
    50c6:	8d 93       	st	X+, r24
    50c8:	9c 93       	st	X, r25
    50ca:	12 97       	sbiw	r26, 0x02	; 2
    50cc:	15 96       	adiw	r26, 0x05	; 5
    50ce:	8d 93       	st	X+, r24
    50d0:	9c 93       	st	X, r25
    50d2:	16 97       	sbiw	r26, 0x06	; 6
    50d4:	8c 91       	ld	r24, X
    50d6:	0e 94 57 01 	call	0x2ae	; 0x2ae <sampleAnalogChannel>
    50da:	f8 01       	movw	r30, r16
    50dc:	83 87       	std	Z+11, r24	; 0x0b
    50de:	94 87       	std	Z+12, r25	; 0x0c
    50e0:	83 83       	std	Z+3, r24	; 0x03
    50e2:	94 83       	std	Z+4, r25	; 0x04
    50e4:	87 83       	std	Z+7, r24	; 0x07
    50e6:	90 87       	std	Z+8, r25	; 0x08
    50e8:	02 5f       	subi	r16, 0xF2	; 242
    50ea:	1f 4f       	sbci	r17, 0xFF	; 255
    50ec:	f0 e2       	ldi	r31, 0x20	; 32
    50ee:	0f 35       	cpi	r16, 0x5F	; 95
    50f0:	1f 07       	cpc	r17, r31
    50f2:	f1 f6       	brne	.-68     	; 0x50b0 <main+0x76>
    50f4:	10 92 0d 28 	sts	0x280D, r1
    50f8:	10 92 0e 28 	sts	0x280E, r1
    50fc:	10 92 0f 28 	sts	0x280F, r1
    5100:	10 92 10 28 	sts	0x2810, r1
    5104:	10 92 11 28 	sts	0x2811, r1
    5108:	81 e0       	ldi	r24, 0x01	; 1
    510a:	80 93 12 28 	sts	0x2812, r24
    510e:	0e 94 33 17 	call	0x2e66	; 0x2e66 <enableSysTick>
    5112:	7c df       	rcall	.-264    	; 0x500c <SetupStartPinExternalInterrupt>
    5114:	0e 94 5a 03 	call	0x6b4	; 0x6b4 <SetupChrgStatPinExternalInterrupt>
    5118:	87 e0       	ldi	r24, 0x07	; 7
    511a:	80 93 a2 00 	sts	0x00A2, r24
    511e:	78 94       	sei
    5120:	80 91 ee 27 	lds	r24, 0x27EE
    5124:	88 1f       	adc	r24, r24
    5126:	88 27       	eor	r24, r24
    5128:	88 1f       	adc	r24, r24
    512a:	90 91 ef 27 	lds	r25, 0x27EF
    512e:	9f 73       	andi	r25, 0x3F	; 63
    5130:	99 0f       	add	r25, r25
    5132:	98 2b       	or	r25, r24
    5134:	81 e0       	ldi	r24, 0x01	; 1
    5136:	09 f4       	brne	.+2      	; 0x513a <main+0x100>
    5138:	80 e0       	ldi	r24, 0x00	; 0
    513a:	0e 94 59 15 	call	0x2ab2	; 0x2ab2 <powerOn>
    513e:	80 93 14 28 	sts	0x2814, r24
    5142:	0e 94 d6 09 	call	0x13ac	; 0x13ac <whichConfiguration>
    5146:	68 2e       	mov	r6, r24
    5148:	0e 94 3f 09 	call	0x127e	; 0x127e <loadConfiguration>
    514c:	e6 de       	rcall	.-564    	; 0x4f1a <selectHandlers>
    514e:	80 91 ef 27 	lds	r24, 0x27EF
    5152:	82 95       	swap	r24
    5154:	86 95       	lsr	r24
    5156:	86 95       	lsr	r24
    5158:	83 70       	andi	r24, 0x03	; 3
    515a:	90 91 f0 27 	lds	r25, 0x27F0
    515e:	99 0f       	add	r25, r25
    5160:	99 0f       	add	r25, r25
    5162:	98 2b       	or	r25, r24
    5164:	81 e0       	ldi	r24, 0x01	; 1
    5166:	09 f0       	breq	.+2      	; 0x516a <main+0x130>
    5168:	80 e0       	ldi	r24, 0x00	; 0
    516a:	0e 94 93 15 	call	0x2b26	; 0x2b26 <setupLEDs>
    516e:	88 ea       	ldi	r24, 0xA8	; 168
    5170:	95 e2       	ldi	r25, 0x25	; 37
    5172:	0e 94 ad 17 	call	0x2f5a	; 0x2f5a <sendUSBLine>
    5176:	81 ec       	ldi	r24, 0xC1	; 193
    5178:	95 e2       	ldi	r25, 0x25	; 37
    517a:	0e 94 ad 17 	call	0x2f5a	; 0x2f5a <sendUSBLine>
    517e:	88 ea       	ldi	r24, 0xA8	; 168
    5180:	95 e2       	ldi	r25, 0x25	; 37
    5182:	0e 94 57 13 	call	0x26ae	; 0x26ae <sendDBGLine>
    5186:	80 91 16 28 	lds	r24, 0x2816
    518a:	90 e0       	ldi	r25, 0x00	; 0
    518c:	83 51       	subi	r24, 0x13	; 19
    518e:	98 4d       	sbci	r25, 0xD8	; 216
    5190:	7a dc       	rcall	.-1804   	; 0x4a86 <initBTComms>
    5192:	a8 95       	wdr
    5194:	e0 91 e7 27 	lds	r30, 0x27E7
    5198:	f0 91 e8 27 	lds	r31, 0x27E8
    519c:	30 97       	sbiw	r30, 0x00	; 0
    519e:	09 f4       	brne	.+2      	; 0x51a2 <main+0x168>
    51a0:	c0 c2       	rjmp	.+1408   	; 0x5722 <main+0x6e8>
    51a2:	86 e1       	ldi	r24, 0x16	; 22
    51a4:	98 e2       	ldi	r25, 0x28	; 40
    51a6:	09 95       	icall
    51a8:	43 e2       	ldi	r20, 0x23	; 35
    51aa:	50 e0       	ldi	r21, 0x00	; 0
    51ac:	60 e0       	ldi	r22, 0x00	; 0
    51ae:	70 e0       	ldi	r23, 0x00	; 0
    51b0:	ce 01       	movw	r24, r28
    51b2:	01 96       	adiw	r24, 0x01	; 1
    51b4:	0e 94 b4 16 	call	0x2d68	; 0x2d68 <startTimeout>
    51b8:	0e 94 ea 18 	call	0x31d4	; 0x31d4 <WatchdogPet>
    51bc:	46 e0       	ldi	r20, 0x06	; 6
    51be:	50 e0       	ldi	r21, 0x00	; 0
    51c0:	60 e0       	ldi	r22, 0x00	; 0
    51c2:	70 e0       	ldi	r23, 0x00	; 0
    51c4:	ce 01       	movw	r24, r28
    51c6:	87 5b       	subi	r24, 0xB7	; 183
    51c8:	9f 4f       	sbci	r25, 0xFF	; 255
    51ca:	0e 94 b4 16 	call	0x2d68	; 0x2d68 <startTimeout>
    51ce:	0e 94 ea 18 	call	0x31d4	; 0x31d4 <WatchdogPet>
    51d2:	46 e0       	ldi	r20, 0x06	; 6
    51d4:	50 e0       	ldi	r21, 0x00	; 0
    51d6:	60 e0       	ldi	r22, 0x00	; 0
    51d8:	70 e0       	ldi	r23, 0x00	; 0
    51da:	ce 01       	movw	r24, r28
    51dc:	8f 5b       	subi	r24, 0xBF	; 191
    51de:	9f 4f       	sbci	r25, 0xFF	; 255
    51e0:	0e 94 b4 16 	call	0x2d68	; 0x2d68 <startTimeout>
    51e4:	0e 94 ea 18 	call	0x31d4	; 0x31d4 <WatchdogPet>
    51e8:	48 ee       	ldi	r20, 0xE8	; 232
    51ea:	53 e0       	ldi	r21, 0x03	; 3
    51ec:	60 e0       	ldi	r22, 0x00	; 0
    51ee:	70 e0       	ldi	r23, 0x00	; 0
    51f0:	ce 01       	movw	r24, r28
    51f2:	89 96       	adiw	r24, 0x29	; 41
    51f4:	0e 94 b4 16 	call	0x2d68	; 0x2d68 <startTimeout>
    51f8:	0e 94 ea 18 	call	0x31d4	; 0x31d4 <WatchdogPet>
    51fc:	40 e6       	ldi	r20, 0x60	; 96
    51fe:	5a ee       	ldi	r21, 0xEA	; 234
    5200:	60 e0       	ldi	r22, 0x00	; 0
    5202:	70 e0       	ldi	r23, 0x00	; 0
    5204:	ce 01       	movw	r24, r28
    5206:	81 96       	adiw	r24, 0x21	; 33
    5208:	0e 94 b4 16 	call	0x2d68	; 0x2d68 <startTimeout>
    520c:	0e 94 ea 18 	call	0x31d4	; 0x31d4 <WatchdogPet>
    5210:	48 ee       	ldi	r20, 0xE8	; 232
    5212:	53 e0       	ldi	r21, 0x03	; 3
    5214:	60 e0       	ldi	r22, 0x00	; 0
    5216:	70 e0       	ldi	r23, 0x00	; 0
    5218:	ce 01       	movw	r24, r28
    521a:	49 96       	adiw	r24, 0x19	; 25
    521c:	0e 94 b4 16 	call	0x2d68	; 0x2d68 <startTimeout>
    5220:	0e 94 ea 18 	call	0x31d4	; 0x31d4 <WatchdogPet>
    5224:	40 ee       	ldi	r20, 0xE0	; 224
    5226:	53 e9       	ldi	r21, 0x93	; 147
    5228:	64 e0       	ldi	r22, 0x04	; 4
    522a:	70 e0       	ldi	r23, 0x00	; 0
    522c:	ce 01       	movw	r24, r28
    522e:	41 96       	adiw	r24, 0x11	; 17
    5230:	0e 94 b4 16 	call	0x2d68	; 0x2d68 <startTimeout>
    5234:	0e 94 ea 18 	call	0x31d4	; 0x31d4 <WatchdogPet>
    5238:	ce 01       	movw	r24, r28
    523a:	c9 96       	adiw	r24, 0x39	; 57
    523c:	0e 94 fc 16 	call	0x2df8	; 0x2df8 <cancelTimeout>
    5240:	85 e0       	ldi	r24, 0x05	; 5
    5242:	96 e2       	ldi	r25, 0x26	; 38
    5244:	0e 94 57 13 	call	0x26ae	; 0x26ae <sendDBGLine>
    5248:	71 2c       	mov	r7, r1
    524a:	81 2c       	mov	r8, r1
    524c:	91 2c       	mov	r9, r1
    524e:	2b e2       	ldi	r18, 0x2B	; 43
    5250:	22 2e       	mov	r2, r18
    5252:	22 e0       	ldi	r18, 0x02	; 2
    5254:	32 2e       	mov	r3, r18
    5256:	aa 24       	eor	r10, r10
    5258:	a3 94       	inc	r10
    525a:	32 e0       	ldi	r19, 0x02	; 2
    525c:	43 2e       	mov	r4, r19
    525e:	ce 01       	movw	r24, r28
    5260:	01 96       	adiw	r24, 0x01	; 1
    5262:	0e 94 cd 16 	call	0x2d9a	; 0x2d9a <checkTimeout>
    5266:	88 23       	and	r24, r24
    5268:	09 f4       	brne	.+2      	; 0x526c <main+0x232>
    526a:	6a c0       	rjmp	.+212    	; 0x5340 <main+0x306>
    526c:	0e 94 ea 18 	call	0x31d4	; 0x31d4 <WatchdogPet>
    5270:	80 e0       	ldi	r24, 0x00	; 0
    5272:	0e 94 05 19 	call	0x320a	; 0x320a <WatchdogTaskRunning>
    5276:	ce 01       	movw	r24, r28
    5278:	81 96       	adiw	r24, 0x21	; 33
    527a:	0e 94 cd 16 	call	0x2d9a	; 0x2d9a <checkTimeout>
    527e:	81 11       	cpse	r24, r1
    5280:	3c c1       	rjmp	.+632    	; 0x54fa <main+0x4c0>
    5282:	ce 01       	movw	r24, r28
    5284:	49 96       	adiw	r24, 0x19	; 25
    5286:	0e 94 cd 16 	call	0x2d9a	; 0x2d9a <checkTimeout>
    528a:	81 11       	cpse	r24, r1
    528c:	ee c0       	rjmp	.+476    	; 0x546a <main+0x430>
    528e:	80 91 16 28 	lds	r24, 0x2816
    5292:	82 30       	cpi	r24, 0x02	; 2
    5294:	09 f4       	brne	.+2      	; 0x5298 <main+0x25e>
    5296:	ff c0       	rjmp	.+510    	; 0x5496 <main+0x45c>
    5298:	87 30       	cpi	r24, 0x07	; 7
    529a:	09 f4       	brne	.+2      	; 0x529e <main+0x264>
    529c:	07 c1       	rjmp	.+526    	; 0x54ac <main+0x472>
    529e:	ce 01       	movw	r24, r28
    52a0:	87 5b       	subi	r24, 0xB7	; 183
    52a2:	9f 4f       	sbci	r25, 0xFF	; 255
    52a4:	0e 94 cd 16 	call	0x2d9a	; 0x2d9a <checkTimeout>
    52a8:	81 11       	cpse	r24, r1
    52aa:	aa c0       	rjmp	.+340    	; 0x5400 <main+0x3c6>
    52ac:	ce 01       	movw	r24, r28
    52ae:	8f 5b       	subi	r24, 0xBF	; 191
    52b0:	9f 4f       	sbci	r25, 0xFF	; 255
    52b2:	0e 94 cd 16 	call	0x2d9a	; 0x2d9a <checkTimeout>
    52b6:	81 11       	cpse	r24, r1
    52b8:	72 c0       	rjmp	.+228    	; 0x539e <main+0x364>
    52ba:	ce 01       	movw	r24, r28
    52bc:	c9 96       	adiw	r24, 0x39	; 57
    52be:	0e 94 cd 16 	call	0x2d9a	; 0x2d9a <checkTimeout>
    52c2:	81 11       	cpse	r24, r1
    52c4:	06 c0       	rjmp	.+12     	; 0x52d2 <main+0x298>
    52c6:	ce 01       	movw	r24, r28
    52c8:	41 96       	adiw	r24, 0x11	; 17
    52ca:	0e 94 cd 16 	call	0x2d9a	; 0x2d9a <checkTimeout>
    52ce:	88 23       	and	r24, r24
    52d0:	91 f0       	breq	.+36     	; 0x52f6 <main+0x2bc>
    52d2:	ce 01       	movw	r24, r28
    52d4:	c9 96       	adiw	r24, 0x39	; 57
    52d6:	0e 94 fc 16 	call	0x2df8	; 0x2df8 <cancelTimeout>
    52da:	40 ee       	ldi	r20, 0xE0	; 224
    52dc:	53 e9       	ldi	r21, 0x93	; 147
    52de:	64 e0       	ldi	r22, 0x04	; 4
    52e0:	70 e0       	ldi	r23, 0x00	; 0
    52e2:	ce 01       	movw	r24, r28
    52e4:	41 96       	adiw	r24, 0x11	; 17
    52e6:	0e 94 b4 16 	call	0x2d68	; 0x2d68 <startTimeout>
    52ea:	0e 94 c1 02 	call	0x582	; 0x582 <IsChargingDone>
    52ee:	b8 2e       	mov	r11, r24
    52f0:	88 23       	and	r24, r24
    52f2:	09 f4       	brne	.+2      	; 0x52f6 <main+0x2bc>
    52f4:	95 c1       	rjmp	.+810    	; 0x5620 <main+0x5e6>
    52f6:	ce 01       	movw	r24, r28
    52f8:	c1 96       	adiw	r24, 0x31	; 49
    52fa:	0e 94 cd 16 	call	0x2d9a	; 0x2d9a <checkTimeout>
    52fe:	81 11       	cpse	r24, r1
    5300:	aa c1       	rjmp	.+852    	; 0x5656 <main+0x61c>
    5302:	88 e0       	ldi	r24, 0x08	; 8
    5304:	0e 94 d0 04 	call	0x9a0	; 0x9a0 <buttonActivated>
    5308:	18 2f       	mov	r17, r24
    530a:	89 e0       	ldi	r24, 0x09	; 9
    530c:	0e 94 d0 04 	call	0x9a0	; 0x9a0 <buttonActivated>
    5310:	88 23       	and	r24, r24
    5312:	71 f0       	breq	.+28     	; 0x5330 <main+0x2f6>
    5314:	11 23       	and	r17, r17
    5316:	61 f0       	breq	.+24     	; 0x5330 <main+0x2f6>
    5318:	85 e5       	ldi	r24, 0x55	; 85
    531a:	98 e5       	ldi	r25, 0x58	; 88
    531c:	a4 e1       	ldi	r26, 0x14	; 20
    531e:	b0 e0       	ldi	r27, 0x00	; 0
    5320:	01 97       	sbiw	r24, 0x01	; 1
    5322:	a1 09       	sbc	r26, r1
    5324:	b1 09       	sbc	r27, r1
    5326:	00 97       	sbiw	r24, 0x00	; 0
    5328:	a1 05       	cpc	r26, r1
    532a:	b1 05       	cpc	r27, r1
    532c:	c9 f7       	brne	.-14     	; 0x5320 <main+0x2e6>
    532e:	49 dc       	rcall	.-1902   	; 0x4bc2 <bt_homeButton>
    5330:	0e 94 12 08 	call	0x1024	; 0x1024 <processComm>
    5334:	ce 01       	movw	r24, r28
    5336:	01 96       	adiw	r24, 0x01	; 1
    5338:	0e 94 cd 16 	call	0x2d9a	; 0x2d9a <checkTimeout>
    533c:	81 11       	cpse	r24, r1
    533e:	96 cf       	rjmp	.-212    	; 0x526c <main+0x232>
    5340:	ce 01       	movw	r24, r28
    5342:	87 5b       	subi	r24, 0xB7	; 183
    5344:	9f 4f       	sbci	r25, 0xFF	; 255
    5346:	0e 94 cd 16 	call	0x2d9a	; 0x2d9a <checkTimeout>
    534a:	81 11       	cpse	r24, r1
    534c:	8f cf       	rjmp	.-226    	; 0x526c <main+0x232>
    534e:	ce 01       	movw	r24, r28
    5350:	8f 5b       	subi	r24, 0xBF	; 191
    5352:	9f 4f       	sbci	r25, 0xFF	; 255
    5354:	0e 94 cd 16 	call	0x2d9a	; 0x2d9a <checkTimeout>
    5358:	81 11       	cpse	r24, r1
    535a:	88 cf       	rjmp	.-240    	; 0x526c <main+0x232>
    535c:	ce 01       	movw	r24, r28
    535e:	81 96       	adiw	r24, 0x21	; 33
    5360:	0e 94 cd 16 	call	0x2d9a	; 0x2d9a <checkTimeout>
    5364:	81 11       	cpse	r24, r1
    5366:	82 cf       	rjmp	.-252    	; 0x526c <main+0x232>
    5368:	ce 01       	movw	r24, r28
    536a:	49 96       	adiw	r24, 0x19	; 25
    536c:	0e 94 cd 16 	call	0x2d9a	; 0x2d9a <checkTimeout>
    5370:	81 11       	cpse	r24, r1
    5372:	7c cf       	rjmp	.-264    	; 0x526c <main+0x232>
    5374:	f1 01       	movw	r30, r2
    5376:	84 91       	lpm	r24, Z
    5378:	90 91 48 00 	lds	r25, 0x0048
    537c:	91 7f       	andi	r25, 0xF1	; 241
    537e:	89 2b       	or	r24, r25
    5380:	80 93 48 00 	sts	0x0048, r24
    5384:	80 91 48 00 	lds	r24, 0x0048
    5388:	81 60       	ori	r24, 0x01	; 1
    538a:	80 93 48 00 	sts	0x0048, r24
    538e:	78 94       	sei
    5390:	88 95       	sleep
    5392:	80 91 48 00 	lds	r24, 0x0048
    5396:	8e 7f       	andi	r24, 0xFE	; 254
    5398:	80 93 48 00 	sts	0x0048, r24
    539c:	67 cf       	rjmp	.-306    	; 0x526c <main+0x232>
    539e:	46 e0       	ldi	r20, 0x06	; 6
    53a0:	50 e0       	ldi	r21, 0x00	; 0
    53a2:	60 e0       	ldi	r22, 0x00	; 0
    53a4:	70 e0       	ldi	r23, 0x00	; 0
    53a6:	ce 01       	movw	r24, r28
    53a8:	8f 5b       	subi	r24, 0xBF	; 191
    53aa:	9f 4f       	sbci	r25, 0xFF	; 255
    53ac:	0e 94 b4 16 	call	0x2d68	; 0x2d68 <startTimeout>
    53b0:	03 e4       	ldi	r16, 0x43	; 67
    53b2:	10 e2       	ldi	r17, 0x20	; 32
    53b4:	f1 2c       	mov	r15, r1
    53b6:	f8 01       	movw	r30, r16
    53b8:	31 97       	sbiw	r30, 0x01	; 1
    53ba:	80 81       	ld	r24, Z
    53bc:	0e 94 57 01 	call	0x2ae	; 0x2ae <sampleAnalogChannel>
    53c0:	f8 01       	movw	r30, r16
    53c2:	81 87       	std	Z+9, r24	; 0x09
    53c4:	92 87       	std	Z+10, r25	; 0x0a
    53c6:	80 81       	ld	r24, Z
    53c8:	0e 94 57 01 	call	0x2ae	; 0x2ae <sampleAnalogChannel>
    53cc:	d8 01       	movw	r26, r16
    53ce:	1b 96       	adiw	r26, 0x0b	; 11
    53d0:	8d 93       	st	X+, r24
    53d2:	9c 93       	st	X, r25
    53d4:	1c 97       	sbiw	r26, 0x0c	; 12
    53d6:	e0 91 e3 27 	lds	r30, 0x27E3
    53da:	f0 91 e4 27 	lds	r31, 0x27E4
    53de:	30 97       	sbiw	r30, 0x00	; 0
    53e0:	39 f0       	breq	.+14     	; 0x53f0 <main+0x3b6>
    53e2:	19 96       	adiw	r26, 0x09	; 9
    53e4:	6d 91       	ld	r22, X+
    53e6:	7c 91       	ld	r23, X
    53e8:	1a 97       	sbiw	r26, 0x0a	; 10
    53ea:	ac 01       	movw	r20, r24
    53ec:	8f 2d       	mov	r24, r15
    53ee:	09 95       	icall
    53f0:	f3 94       	inc	r15
    53f2:	02 5f       	subi	r16, 0xF2	; 242
    53f4:	1f 4f       	sbci	r17, 0xFF	; 255
    53f6:	b2 e0       	ldi	r27, 0x02	; 2
    53f8:	fb 16       	cp	r15, r27
    53fa:	09 f4       	brne	.+2      	; 0x53fe <main+0x3c4>
    53fc:	5e cf       	rjmp	.-324    	; 0x52ba <main+0x280>
    53fe:	db cf       	rjmp	.-74     	; 0x53b6 <main+0x37c>
    5400:	46 e0       	ldi	r20, 0x06	; 6
    5402:	50 e0       	ldi	r21, 0x00	; 0
    5404:	60 e0       	ldi	r22, 0x00	; 0
    5406:	70 e0       	ldi	r23, 0x00	; 0
    5408:	ce 01       	movw	r24, r28
    540a:	87 5b       	subi	r24, 0xB7	; 183
    540c:	9f 4f       	sbci	r25, 0xFF	; 255
    540e:	0e 94 b4 16 	call	0x2d68	; 0x2d68 <startTimeout>
    5412:	01 e0       	ldi	r16, 0x01	; 1
    5414:	10 e2       	ldi	r17, 0x20	; 32
    5416:	92 e0       	ldi	r25, 0x02	; 2
    5418:	e9 2e       	mov	r14, r25
    541a:	90 e2       	ldi	r25, 0x20	; 32
    541c:	f9 2e       	mov	r15, r25
    541e:	51 2c       	mov	r5, r1
    5420:	0e c0       	rjmp	.+28     	; 0x543e <main+0x404>
    5422:	d8 01       	movw	r26, r16
    5424:	8c 91       	ld	r24, X
    5426:	8f 5f       	subi	r24, 0xFF	; 255
    5428:	8c 93       	st	X, r24
    542a:	53 94       	inc	r5
    542c:	f4 e0       	ldi	r31, 0x04	; 4
    542e:	ef 0e       	add	r14, r31
    5430:	f1 1c       	adc	r15, r1
    5432:	0c 5f       	subi	r16, 0xFC	; 252
    5434:	1f 4f       	sbci	r17, 0xFF	; 255
    5436:	20 e1       	ldi	r18, 0x10	; 16
    5438:	52 16       	cp	r5, r18
    543a:	09 f4       	brne	.+2      	; 0x543e <main+0x404>
    543c:	6e c0       	rjmp	.+220    	; 0x551a <main+0x4e0>
    543e:	d7 01       	movw	r26, r14
    5440:	8c 91       	ld	r24, X
    5442:	88 23       	and	r24, r24
    5444:	41 f0       	breq	.+16     	; 0x5456 <main+0x41c>
    5446:	85 2d       	mov	r24, r5
    5448:	0e 94 d0 04 	call	0x9a0	; 0x9a0 <buttonActivated>
    544c:	88 23       	and	r24, r24
    544e:	49 f3       	breq	.-46     	; 0x5422 <main+0x3e8>
    5450:	f8 01       	movw	r30, r16
    5452:	10 82       	st	Z, r1
    5454:	ea cf       	rjmp	.-44     	; 0x542a <main+0x3f0>
    5456:	85 2d       	mov	r24, r5
    5458:	0e 94 d0 04 	call	0x9a0	; 0x9a0 <buttonActivated>
    545c:	88 23       	and	r24, r24
    545e:	c1 f3       	breq	.-16     	; 0x5450 <main+0x416>
    5460:	f8 01       	movw	r30, r16
    5462:	80 81       	ld	r24, Z
    5464:	8f 5f       	subi	r24, 0xFF	; 255
    5466:	80 83       	st	Z, r24
    5468:	e0 cf       	rjmp	.-64     	; 0x542a <main+0x3f0>
    546a:	48 ee       	ldi	r20, 0xE8	; 232
    546c:	53 e0       	ldi	r21, 0x03	; 3
    546e:	60 e0       	ldi	r22, 0x00	; 0
    5470:	70 e0       	ldi	r23, 0x00	; 0
    5472:	ce 01       	movw	r24, r28
    5474:	49 96       	adiw	r24, 0x19	; 25
    5476:	0e 94 b4 16 	call	0x2d68	; 0x2d68 <startTimeout>
    547a:	80 91 15 28 	lds	r24, 0x2815
    547e:	8a 25       	eor	r24, r10
    5480:	80 93 15 28 	sts	0x2815, r24
    5484:	a6 01       	movw	r20, r12
    5486:	6b 2d       	mov	r22, r11
    5488:	0e 94 d6 02 	call	0x5ac	; 0x5ac <MaintainControllerStatus>
    548c:	80 91 16 28 	lds	r24, 0x2816
    5490:	82 30       	cpi	r24, 0x02	; 2
    5492:	09 f0       	breq	.+2      	; 0x5496 <main+0x45c>
    5494:	01 cf       	rjmp	.-510    	; 0x5298 <main+0x25e>
    5496:	ce 01       	movw	r24, r28
    5498:	01 96       	adiw	r24, 0x01	; 1
    549a:	0e 94 cd 16 	call	0x2d9a	; 0x2d9a <checkTimeout>
    549e:	81 11       	cpse	r24, r1
    54a0:	14 c1       	rjmp	.+552    	; 0x56ca <main+0x690>
    54a2:	80 91 16 28 	lds	r24, 0x2816
    54a6:	87 30       	cpi	r24, 0x07	; 7
    54a8:	09 f0       	breq	.+2      	; 0x54ac <main+0x472>
    54aa:	f9 ce       	rjmp	.-526    	; 0x529e <main+0x264>
    54ac:	ce 01       	movw	r24, r28
    54ae:	01 96       	adiw	r24, 0x01	; 1
    54b0:	0e 94 cd 16 	call	0x2d9a	; 0x2d9a <checkTimeout>
    54b4:	88 23       	and	r24, r24
    54b6:	09 f4       	brne	.+2      	; 0x54ba <main+0x480>
    54b8:	f2 ce       	rjmp	.-540    	; 0x529e <main+0x264>
    54ba:	43 e2       	ldi	r20, 0x23	; 35
    54bc:	50 e0       	ldi	r21, 0x00	; 0
    54be:	60 e0       	ldi	r22, 0x00	; 0
    54c0:	70 e0       	ldi	r23, 0x00	; 0
    54c2:	ce 01       	movw	r24, r28
    54c4:	01 96       	adiw	r24, 0x01	; 1
    54c6:	0e 94 b4 16 	call	0x2d68	; 0x2d68 <startTimeout>
    54ca:	e0 91 e5 27 	lds	r30, 0x27E5
    54ce:	f0 91 e6 27 	lds	r31, 0x27E6
    54d2:	60 e0       	ldi	r22, 0x00	; 0
    54d4:	81 e1       	ldi	r24, 0x11	; 17
    54d6:	09 95       	icall
    54d8:	80 91 f9 26 	lds	r24, 0x26F9
    54dc:	88 23       	and	r24, r24
    54de:	51 f0       	breq	.+20     	; 0x54f4 <main+0x4ba>
    54e0:	40 ee       	ldi	r20, 0xE0	; 224
    54e2:	53 e9       	ldi	r21, 0x93	; 147
    54e4:	64 e0       	ldi	r22, 0x04	; 4
    54e6:	70 e0       	ldi	r23, 0x00	; 0
    54e8:	ce 01       	movw	r24, r28
    54ea:	41 96       	adiw	r24, 0x11	; 17
    54ec:	0e 94 b4 16 	call	0x2d68	; 0x2d68 <startTimeout>
    54f0:	10 92 f9 26 	sts	0x26F9, r1
    54f4:	0e 94 11 0e 	call	0x1c22	; 0x1c22 <jStickSendReport>
    54f8:	d2 ce       	rjmp	.-604    	; 0x529e <main+0x264>
    54fa:	40 e6       	ldi	r20, 0x60	; 96
    54fc:	5a ee       	ldi	r21, 0xEA	; 234
    54fe:	60 e0       	ldi	r22, 0x00	; 0
    5500:	70 e0       	ldi	r23, 0x00	; 0
    5502:	ce 01       	movw	r24, r28
    5504:	81 96       	adiw	r24, 0x21	; 33
    5506:	0e 94 b4 16 	call	0x2d68	; 0x2d68 <startTimeout>
    550a:	83 e0       	ldi	r24, 0x03	; 3
    550c:	0e 94 57 01 	call	0x2ae	; 0x2ae <sampleAnalogChannel>
    5510:	6c 01       	movw	r12, r24
    5512:	0e 94 c1 02 	call	0x582	; 0x582 <IsChargingDone>
    5516:	b8 2e       	mov	r11, r24
    5518:	b4 ce       	rjmp	.-664    	; 0x5282 <main+0x248>
    551a:	82 e0       	ldi	r24, 0x02	; 2
    551c:	e8 2e       	mov	r14, r24
    551e:	80 e2       	ldi	r24, 0x20	; 32
    5520:	f8 2e       	mov	r15, r24
    5522:	01 e0       	ldi	r16, 0x01	; 1
    5524:	10 e2       	ldi	r17, 0x20	; 32
    5526:	20 e0       	ldi	r18, 0x00	; 0
    5528:	36 c0       	rjmp	.+108    	; 0x5596 <main+0x55c>
    552a:	a0 82       	st	Z, r10
    552c:	55 24       	eor	r5, r5
    552e:	53 94       	inc	r5
    5530:	80 91 e5 27 	lds	r24, 0x27E5
    5534:	90 91 e6 27 	lds	r25, 0x27E6
    5538:	89 2b       	or	r24, r25
    553a:	11 f1       	breq	.+68     	; 0x5580 <main+0x546>
    553c:	80 91 16 28 	lds	r24, 0x2816
    5540:	82 30       	cpi	r24, 0x02	; 2
    5542:	a9 f5       	brne	.+106    	; 0x55ae <main+0x574>
    5544:	40 ee       	ldi	r20, 0xE0	; 224
    5546:	53 e9       	ldi	r21, 0x93	; 147
    5548:	64 e0       	ldi	r22, 0x04	; 4
    554a:	70 e0       	ldi	r23, 0x00	; 0
    554c:	ce 01       	movw	r24, r28
    554e:	41 96       	adiw	r24, 0x11	; 17
    5550:	62 96       	adiw	r28, 0x12	; 18
    5552:	2f af       	std	Y+63, r18	; 0x3f
    5554:	62 97       	sbiw	r28, 0x12	; 18
    5556:	0e 94 b4 16 	call	0x2d68	; 0x2d68 <startTimeout>
    555a:	62 96       	adiw	r28, 0x12	; 18
    555c:	2f ad       	ldd	r18, Y+63	; 0x3f
    555e:	62 97       	sbiw	r28, 0x12	; 18
    5560:	28 30       	cpi	r18, 0x08	; 8
    5562:	09 f4       	brne	.+2      	; 0x5566 <main+0x52c>
    5564:	e3 c0       	rjmp	.+454    	; 0x572c <main+0x6f2>
    5566:	e0 91 e5 27 	lds	r30, 0x27E5
    556a:	f0 91 e6 27 	lds	r31, 0x27E6
    556e:	65 2d       	mov	r22, r5
    5570:	82 2f       	mov	r24, r18
    5572:	62 96       	adiw	r28, 0x12	; 18
    5574:	2f af       	std	Y+63, r18	; 0x3f
    5576:	62 97       	sbiw	r28, 0x12	; 18
    5578:	09 95       	icall
    557a:	62 96       	adiw	r28, 0x12	; 18
    557c:	2f ad       	ldd	r18, Y+63	; 0x3f
    557e:	62 97       	sbiw	r28, 0x12	; 18
    5580:	28 30       	cpi	r18, 0x08	; 8
    5582:	09 f4       	brne	.+2      	; 0x5586 <main+0x54c>
    5584:	d5 c0       	rjmp	.+426    	; 0x5730 <main+0x6f6>
    5586:	2f 5f       	subi	r18, 0xFF	; 255
    5588:	0c 5f       	subi	r16, 0xFC	; 252
    558a:	1f 4f       	sbci	r17, 0xFF	; 255
    558c:	b4 e0       	ldi	r27, 0x04	; 4
    558e:	eb 0e       	add	r14, r27
    5590:	f1 1c       	adc	r15, r1
    5592:	20 31       	cpi	r18, 0x10	; 16
    5594:	f9 f0       	breq	.+62     	; 0x55d4 <main+0x59a>
    5596:	d8 01       	movw	r26, r16
    5598:	8c 91       	ld	r24, X
    559a:	84 30       	cpi	r24, 0x04	; 4
    559c:	a0 f3       	brcs	.-24     	; 0x5586 <main+0x54c>
    559e:	1c 92       	st	X, r1
    55a0:	f7 01       	movw	r30, r14
    55a2:	80 81       	ld	r24, Z
    55a4:	88 23       	and	r24, r24
    55a6:	09 f2       	breq	.-126    	; 0x552a <main+0x4f0>
    55a8:	10 82       	st	Z, r1
    55aa:	51 2c       	mov	r5, r1
    55ac:	c1 cf       	rjmp	.-126    	; 0x5530 <main+0x4f6>
    55ae:	40 ee       	ldi	r20, 0xE0	; 224
    55b0:	53 e9       	ldi	r21, 0x93	; 147
    55b2:	64 e0       	ldi	r22, 0x04	; 4
    55b4:	70 e0       	ldi	r23, 0x00	; 0
    55b6:	ce 01       	movw	r24, r28
    55b8:	41 96       	adiw	r24, 0x11	; 17
    55ba:	62 96       	adiw	r28, 0x12	; 18
    55bc:	2f af       	std	Y+63, r18	; 0x3f
    55be:	62 97       	sbiw	r28, 0x12	; 18
    55c0:	0e 94 b4 16 	call	0x2d68	; 0x2d68 <startTimeout>
    55c4:	80 91 16 28 	lds	r24, 0x2816
    55c8:	62 96       	adiw	r28, 0x12	; 18
    55ca:	2f ad       	ldd	r18, Y+63	; 0x3f
    55cc:	62 97       	sbiw	r28, 0x12	; 18
    55ce:	87 30       	cpi	r24, 0x07	; 7
    55d0:	39 f2       	breq	.-114    	; 0x5560 <main+0x526>
    55d2:	b8 cf       	rjmp	.-144    	; 0x5544 <main+0x50a>
    55d4:	71 10       	cpse	r7, r1
    55d6:	69 c0       	rjmp	.+210    	; 0x56aa <main+0x670>
    55d8:	91 10       	cpse	r9, r1
    55da:	60 c0       	rjmp	.+192    	; 0x569c <main+0x662>
    55dc:	80 91 22 20 	lds	r24, 0x2022
    55e0:	81 11       	cpse	r24, r1
    55e2:	50 c0       	rjmp	.+160    	; 0x5684 <main+0x64a>
    55e4:	81 10       	cpse	r8, r1
    55e6:	14 c0       	rjmp	.+40     	; 0x5610 <main+0x5d6>
    55e8:	80 91 26 20 	lds	r24, 0x2026
    55ec:	88 23       	and	r24, r24
    55ee:	09 f4       	brne	.+2      	; 0x55f2 <main+0x5b8>
    55f0:	5d ce       	rjmp	.-838    	; 0x52ac <main+0x272>
    55f2:	20 91 e9 27 	lds	r18, 0x27E9
    55f6:	30 e0       	ldi	r19, 0x00	; 0
    55f8:	a4 e6       	ldi	r26, 0x64	; 100
    55fa:	b0 e0       	ldi	r27, 0x00	; 0
    55fc:	43 d1       	rcall	.+646    	; 0x5884 <__umulhisi3>
    55fe:	ab 01       	movw	r20, r22
    5600:	bc 01       	movw	r22, r24
    5602:	ce 01       	movw	r24, r28
    5604:	c1 96       	adiw	r24, 0x31	; 49
    5606:	0e 94 b4 16 	call	0x2d68	; 0x2d68 <startTimeout>
    560a:	86 2d       	mov	r24, r6
    560c:	0e 94 ae 09 	call	0x135c	; 0x135c <displayWhichConfiguration>
    5610:	80 91 26 20 	lds	r24, 0x2026
    5614:	88 23       	and	r24, r24
    5616:	09 f4       	brne	.+2      	; 0x561a <main+0x5e0>
    5618:	7e c0       	rjmp	.+252    	; 0x5716 <main+0x6dc>
    561a:	88 24       	eor	r8, r8
    561c:	83 94       	inc	r8
    561e:	46 ce       	rjmp	.-884    	; 0x52ac <main+0x272>
    5620:	40 e0       	ldi	r20, 0x00	; 0
    5622:	60 e0       	ldi	r22, 0x00	; 0
    5624:	80 e0       	ldi	r24, 0x00	; 0
    5626:	0e 94 bc 15 	call	0x2b78	; 0x2b78 <setLEDValue>
    562a:	80 91 ee 27 	lds	r24, 0x27EE
    562e:	88 1f       	adc	r24, r24
    5630:	88 27       	eor	r24, r24
    5632:	88 1f       	adc	r24, r24
    5634:	90 91 ef 27 	lds	r25, 0x27EF
    5638:	9f 73       	andi	r25, 0x3F	; 63
    563a:	99 0f       	add	r25, r25
    563c:	98 2b       	or	r25, r24
    563e:	81 e0       	ldi	r24, 0x01	; 1
    5640:	09 f4       	brne	.+2      	; 0x5644 <main+0x60a>
    5642:	80 e0       	ldi	r24, 0x00	; 0
    5644:	0e 94 13 15 	call	0x2a26	; 0x2a26 <powerOff>
    5648:	ce 01       	movw	r24, r28
    564a:	c1 96       	adiw	r24, 0x31	; 49
    564c:	0e 94 cd 16 	call	0x2d9a	; 0x2d9a <checkTimeout>
    5650:	88 23       	and	r24, r24
    5652:	09 f4       	brne	.+2      	; 0x5656 <main+0x61c>
    5654:	56 ce       	rjmp	.-852    	; 0x5302 <main+0x2c8>
    5656:	ce 01       	movw	r24, r28
    5658:	c1 96       	adiw	r24, 0x31	; 49
    565a:	0e 94 fc 16 	call	0x2df8	; 0x2df8 <cancelTimeout>
    565e:	71 da       	rcall	.-2846   	; 0x4b42 <bt_exitBypass>
    5660:	13 dc       	rcall	.-2010   	; 0x4e88 <btClearAutoConnectList>
    5662:	40 e0       	ldi	r20, 0x00	; 0
    5664:	61 e0       	ldi	r22, 0x01	; 1
    5666:	80 e0       	ldi	r24, 0x00	; 0
    5668:	0e 94 bc 15 	call	0x2b78	; 0x2b78 <setLEDValue>
    566c:	8b ea       	ldi	r24, 0xAB	; 171
    566e:	92 ec       	ldi	r25, 0xC2	; 194
    5670:	a2 ea       	ldi	r26, 0xA2	; 162
    5672:	b0 e0       	ldi	r27, 0x00	; 0
    5674:	01 97       	sbiw	r24, 0x01	; 1
    5676:	a1 09       	sbc	r26, r1
    5678:	b1 09       	sbc	r27, r1
    567a:	00 97       	sbiw	r24, 0x00	; 0
    567c:	a1 05       	cpc	r26, r1
    567e:	b1 05       	cpc	r27, r1
    5680:	c9 f7       	brne	.-14     	; 0x5674 <main+0x63a>
    5682:	2d dc       	rcall	.-1958   	; 0x4ede <reset_do_soft_reset>
    5684:	20 91 e9 27 	lds	r18, 0x27E9
    5688:	30 e0       	ldi	r19, 0x00	; 0
    568a:	a2 e3       	ldi	r26, 0x32	; 50
    568c:	b0 e0       	ldi	r27, 0x00	; 0
    568e:	fa d0       	rcall	.+500    	; 0x5884 <__umulhisi3>
    5690:	ab 01       	movw	r20, r22
    5692:	bc 01       	movw	r22, r24
    5694:	ce 01       	movw	r24, r28
    5696:	c9 96       	adiw	r24, 0x39	; 57
    5698:	0e 94 b4 16 	call	0x2d68	; 0x2d68 <startTimeout>
    569c:	80 91 22 20 	lds	r24, 0x2022
    56a0:	88 23       	and	r24, r24
    56a2:	99 f1       	breq	.+102    	; 0x570a <main+0x6d0>
    56a4:	99 24       	eor	r9, r9
    56a6:	93 94       	inc	r9
    56a8:	9d cf       	rjmp	.-198    	; 0x55e4 <main+0x5aa>
    56aa:	ce 01       	movw	r24, r28
    56ac:	09 96       	adiw	r24, 0x09	; 9
    56ae:	0e 94 cd 16 	call	0x2d9a	; 0x2d9a <checkTimeout>
    56b2:	88 23       	and	r24, r24
    56b4:	09 f4       	brne	.+2      	; 0x56b8 <main+0x67e>
    56b6:	90 cf       	rjmp	.-224    	; 0x55d8 <main+0x59e>
    56b8:	e0 91 e5 27 	lds	r30, 0x27E5
    56bc:	f0 91 e6 27 	lds	r31, 0x27E6
    56c0:	60 e0       	ldi	r22, 0x00	; 0
    56c2:	88 e0       	ldi	r24, 0x08	; 8
    56c4:	09 95       	icall
    56c6:	71 2c       	mov	r7, r1
    56c8:	87 cf       	rjmp	.-242    	; 0x55d8 <main+0x59e>
    56ca:	43 e2       	ldi	r20, 0x23	; 35
    56cc:	50 e0       	ldi	r21, 0x00	; 0
    56ce:	60 e0       	ldi	r22, 0x00	; 0
    56d0:	70 e0       	ldi	r23, 0x00	; 0
    56d2:	ce 01       	movw	r24, r28
    56d4:	01 96       	adiw	r24, 0x01	; 1
    56d6:	0e 94 b4 16 	call	0x2d68	; 0x2d68 <startTimeout>
    56da:	e0 91 e5 27 	lds	r30, 0x27E5
    56de:	f0 91 e6 27 	lds	r31, 0x27E6
    56e2:	60 e0       	ldi	r22, 0x00	; 0
    56e4:	81 e1       	ldi	r24, 0x11	; 17
    56e6:	09 95       	icall
    56e8:	80 91 ea 26 	lds	r24, 0x26EA
    56ec:	88 23       	and	r24, r24
    56ee:	51 f0       	breq	.+20     	; 0x5704 <main+0x6ca>
    56f0:	40 ee       	ldi	r20, 0xE0	; 224
    56f2:	53 e9       	ldi	r21, 0x93	; 147
    56f4:	64 e0       	ldi	r22, 0x04	; 4
    56f6:	70 e0       	ldi	r23, 0x00	; 0
    56f8:	ce 01       	movw	r24, r28
    56fa:	41 96       	adiw	r24, 0x11	; 17
    56fc:	0e 94 b4 16 	call	0x2d68	; 0x2d68 <startTimeout>
    5700:	10 92 ea 26 	sts	0x26EA, r1
    5704:	0e 94 36 0c 	call	0x186c	; 0x186c <GamepadSendReport>
    5708:	cc ce       	rjmp	.-616    	; 0x54a2 <main+0x468>
    570a:	ce 01       	movw	r24, r28
    570c:	c9 96       	adiw	r24, 0x39	; 57
    570e:	0e 94 fc 16 	call	0x2df8	; 0x2df8 <cancelTimeout>
    5712:	91 2c       	mov	r9, r1
    5714:	67 cf       	rjmp	.-306    	; 0x55e4 <main+0x5aa>
    5716:	ce 01       	movw	r24, r28
    5718:	c1 96       	adiw	r24, 0x31	; 49
    571a:	0e 94 fc 16 	call	0x2df8	; 0x2df8 <cancelTimeout>
    571e:	81 2c       	mov	r8, r1
    5720:	c5 cd       	rjmp	.-1142   	; 0x52ac <main+0x272>
    5722:	87 ee       	ldi	r24, 0xE7	; 231
    5724:	95 e2       	ldi	r25, 0x25	; 37
    5726:	0e 94 57 13 	call	0x26ae	; 0x26ae <sendDBGLine>
    572a:	3e cd       	rjmp	.-1412   	; 0x51a8 <main+0x16e>
    572c:	51 10       	cpse	r5, r1
    572e:	1b cf       	rjmp	.-458    	; 0x5566 <main+0x52c>
    5730:	80 91 22 20 	lds	r24, 0x2022
    5734:	81 30       	cpi	r24, 0x01	; 1
    5736:	09 f0       	breq	.+2      	; 0x573a <main+0x700>
    5738:	26 cf       	rjmp	.-436    	; 0x5586 <main+0x54c>
    573a:	40 92 22 20 	sts	0x2022, r4
    573e:	46 e9       	ldi	r20, 0x96	; 150
    5740:	50 e0       	ldi	r21, 0x00	; 0
    5742:	60 e0       	ldi	r22, 0x00	; 0
    5744:	70 e0       	ldi	r23, 0x00	; 0
    5746:	ce 01       	movw	r24, r28
    5748:	09 96       	adiw	r24, 0x09	; 9
    574a:	62 96       	adiw	r28, 0x12	; 18
    574c:	2f af       	std	Y+63, r18	; 0x3f
    574e:	62 97       	sbiw	r28, 0x12	; 18
    5750:	0e 94 b4 16 	call	0x2d68	; 0x2d68 <startTimeout>
    5754:	77 24       	eor	r7, r7
    5756:	73 94       	inc	r7
    5758:	62 96       	adiw	r28, 0x12	; 18
    575a:	2f ad       	ldd	r18, Y+63	; 0x3f
    575c:	62 97       	sbiw	r28, 0x12	; 18
    575e:	13 cf       	rjmp	.-474    	; 0x5586 <main+0x54c>

00005760 <__vector_104>:
    5760:	1f 92       	push	r1
    5762:	0f 92       	push	r0
    5764:	0f b6       	in	r0, 0x3f	; 63
    5766:	0f 92       	push	r0
    5768:	11 24       	eor	r1, r1
    576a:	0b b6       	in	r0, 0x3b	; 59
    576c:	0f 92       	push	r0
    576e:	2f 93       	push	r18
    5770:	3f 93       	push	r19
    5772:	4f 93       	push	r20
    5774:	5f 93       	push	r21
    5776:	6f 93       	push	r22
    5778:	7f 93       	push	r23
    577a:	8f 93       	push	r24
    577c:	9f 93       	push	r25
    577e:	af 93       	push	r26
    5780:	bf 93       	push	r27
    5782:	ef 93       	push	r30
    5784:	ff 93       	push	r31
    5786:	9f b7       	in	r25, 0x3f	; 63
    5788:	f8 94       	cli
    578a:	80 91 ac 06 	lds	r24, 0x06AC
    578e:	80 ff       	sbrs	r24, 0
    5790:	03 c0       	rjmp	.+6      	; 0x5798 <__vector_104+0x38>
    5792:	81 e0       	ldi	r24, 0x01	; 1
    5794:	80 93 ac 06 	sts	0x06AC, r24
    5798:	80 91 14 28 	lds	r24, 0x2814
    579c:	88 23       	and	r24, r24
    579e:	a1 f0       	breq	.+40     	; 0x57c8 <__vector_104+0x68>
    57a0:	9f bf       	out	0x3f, r25	; 63
    57a2:	ff 91       	pop	r31
    57a4:	ef 91       	pop	r30
    57a6:	bf 91       	pop	r27
    57a8:	af 91       	pop	r26
    57aa:	9f 91       	pop	r25
    57ac:	8f 91       	pop	r24
    57ae:	7f 91       	pop	r23
    57b0:	6f 91       	pop	r22
    57b2:	5f 91       	pop	r21
    57b4:	4f 91       	pop	r20
    57b6:	3f 91       	pop	r19
    57b8:	2f 91       	pop	r18
    57ba:	0f 90       	pop	r0
    57bc:	0b be       	out	0x3b, r0	; 59
    57be:	0f 90       	pop	r0
    57c0:	0f be       	out	0x3f, r0	; 63
    57c2:	0f 90       	pop	r0
    57c4:	1f 90       	pop	r1
    57c6:	18 95       	reti
    57c8:	8a db       	rcall	.-2284   	; 0x4ede <reset_do_soft_reset>

000057ca <__divmodhi4>:
    57ca:	97 fb       	bst	r25, 7
    57cc:	07 2e       	mov	r0, r23
    57ce:	16 f4       	brtc	.+4      	; 0x57d4 <__divmodhi4+0xa>
    57d0:	00 94       	com	r0
    57d2:	06 d0       	rcall	.+12     	; 0x57e0 <__divmodhi4_neg1>
    57d4:	77 fd       	sbrc	r23, 7
    57d6:	08 d0       	rcall	.+16     	; 0x57e8 <__divmodhi4_neg2>
    57d8:	6a d0       	rcall	.+212    	; 0x58ae <__udivmodhi4>
    57da:	07 fc       	sbrc	r0, 7
    57dc:	05 d0       	rcall	.+10     	; 0x57e8 <__divmodhi4_neg2>
    57de:	3e f4       	brtc	.+14     	; 0x57ee <__divmodhi4_exit>

000057e0 <__divmodhi4_neg1>:
    57e0:	90 95       	com	r25
    57e2:	81 95       	neg	r24
    57e4:	9f 4f       	sbci	r25, 0xFF	; 255
    57e6:	08 95       	ret

000057e8 <__divmodhi4_neg2>:
    57e8:	70 95       	com	r23
    57ea:	61 95       	neg	r22
    57ec:	7f 4f       	sbci	r23, 0xFF	; 255

000057ee <__divmodhi4_exit>:
    57ee:	08 95       	ret

000057f0 <__udivmodsi4>:
    57f0:	a1 e2       	ldi	r26, 0x21	; 33
    57f2:	1a 2e       	mov	r1, r26
    57f4:	aa 1b       	sub	r26, r26
    57f6:	bb 1b       	sub	r27, r27
    57f8:	fd 01       	movw	r30, r26
    57fa:	0d c0       	rjmp	.+26     	; 0x5816 <__udivmodsi4_ep>

000057fc <__udivmodsi4_loop>:
    57fc:	aa 1f       	adc	r26, r26
    57fe:	bb 1f       	adc	r27, r27
    5800:	ee 1f       	adc	r30, r30
    5802:	ff 1f       	adc	r31, r31
    5804:	a2 17       	cp	r26, r18
    5806:	b3 07       	cpc	r27, r19
    5808:	e4 07       	cpc	r30, r20
    580a:	f5 07       	cpc	r31, r21
    580c:	20 f0       	brcs	.+8      	; 0x5816 <__udivmodsi4_ep>
    580e:	a2 1b       	sub	r26, r18
    5810:	b3 0b       	sbc	r27, r19
    5812:	e4 0b       	sbc	r30, r20
    5814:	f5 0b       	sbc	r31, r21

00005816 <__udivmodsi4_ep>:
    5816:	66 1f       	adc	r22, r22
    5818:	77 1f       	adc	r23, r23
    581a:	88 1f       	adc	r24, r24
    581c:	99 1f       	adc	r25, r25
    581e:	1a 94       	dec	r1
    5820:	69 f7       	brne	.-38     	; 0x57fc <__udivmodsi4_loop>
    5822:	60 95       	com	r22
    5824:	70 95       	com	r23
    5826:	80 95       	com	r24
    5828:	90 95       	com	r25
    582a:	9b 01       	movw	r18, r22
    582c:	ac 01       	movw	r20, r24
    582e:	bd 01       	movw	r22, r26
    5830:	cf 01       	movw	r24, r30
    5832:	08 95       	ret

00005834 <__divmodsi4>:
    5834:	05 2e       	mov	r0, r21
    5836:	97 fb       	bst	r25, 7
    5838:	16 f4       	brtc	.+4      	; 0x583e <__divmodsi4+0xa>
    583a:	00 94       	com	r0
    583c:	0f d0       	rcall	.+30     	; 0x585c <__negsi2>
    583e:	57 fd       	sbrc	r21, 7
    5840:	05 d0       	rcall	.+10     	; 0x584c <__divmodsi4_neg2>
    5842:	d6 df       	rcall	.-84     	; 0x57f0 <__udivmodsi4>
    5844:	07 fc       	sbrc	r0, 7
    5846:	02 d0       	rcall	.+4      	; 0x584c <__divmodsi4_neg2>
    5848:	46 f4       	brtc	.+16     	; 0x585a <__divmodsi4_exit>
    584a:	08 c0       	rjmp	.+16     	; 0x585c <__negsi2>

0000584c <__divmodsi4_neg2>:
    584c:	50 95       	com	r21
    584e:	40 95       	com	r20
    5850:	30 95       	com	r19
    5852:	21 95       	neg	r18
    5854:	3f 4f       	sbci	r19, 0xFF	; 255
    5856:	4f 4f       	sbci	r20, 0xFF	; 255
    5858:	5f 4f       	sbci	r21, 0xFF	; 255

0000585a <__divmodsi4_exit>:
    585a:	08 95       	ret

0000585c <__negsi2>:
    585c:	90 95       	com	r25
    585e:	80 95       	com	r24
    5860:	70 95       	com	r23
    5862:	61 95       	neg	r22
    5864:	7f 4f       	sbci	r23, 0xFF	; 255
    5866:	8f 4f       	sbci	r24, 0xFF	; 255
    5868:	9f 4f       	sbci	r25, 0xFF	; 255
    586a:	08 95       	ret

0000586c <__tablejump2__>:
    586c:	ee 0f       	add	r30, r30
    586e:	ff 1f       	adc	r31, r31

00005870 <__tablejump__>:
    5870:	05 90       	lpm	r0, Z+
    5872:	f4 91       	lpm	r31, Z
    5874:	e0 2d       	mov	r30, r0
    5876:	09 94       	ijmp

00005878 <__mulhisi3>:
    5878:	05 d0       	rcall	.+10     	; 0x5884 <__umulhisi3>
    587a:	33 23       	and	r19, r19
    587c:	12 f4       	brpl	.+4      	; 0x5882 <__mulhisi3+0xa>
    587e:	8a 1b       	sub	r24, r26
    5880:	9b 0b       	sbc	r25, r27
    5882:	10 c0       	rjmp	.+32     	; 0x58a4 <__usmulhisi3_tail>

00005884 <__umulhisi3>:
    5884:	a2 9f       	mul	r26, r18
    5886:	b0 01       	movw	r22, r0
    5888:	b3 9f       	mul	r27, r19
    588a:	c0 01       	movw	r24, r0
    588c:	a3 9f       	mul	r26, r19
    588e:	70 0d       	add	r23, r0
    5890:	81 1d       	adc	r24, r1
    5892:	11 24       	eor	r1, r1
    5894:	91 1d       	adc	r25, r1
    5896:	b2 9f       	mul	r27, r18
    5898:	70 0d       	add	r23, r0
    589a:	81 1d       	adc	r24, r1
    589c:	11 24       	eor	r1, r1
    589e:	91 1d       	adc	r25, r1
    58a0:	08 95       	ret

000058a2 <__usmulhisi3>:
    58a2:	f0 df       	rcall	.-32     	; 0x5884 <__umulhisi3>

000058a4 <__usmulhisi3_tail>:
    58a4:	b7 ff       	sbrs	r27, 7
    58a6:	08 95       	ret
    58a8:	82 1b       	sub	r24, r18
    58aa:	93 0b       	sbc	r25, r19
    58ac:	08 95       	ret

000058ae <__udivmodhi4>:
    58ae:	aa 1b       	sub	r26, r26
    58b0:	bb 1b       	sub	r27, r27
    58b2:	51 e1       	ldi	r21, 0x11	; 17
    58b4:	07 c0       	rjmp	.+14     	; 0x58c4 <__udivmodhi4_ep>

000058b6 <__udivmodhi4_loop>:
    58b6:	aa 1f       	adc	r26, r26
    58b8:	bb 1f       	adc	r27, r27
    58ba:	a6 17       	cp	r26, r22
    58bc:	b7 07       	cpc	r27, r23
    58be:	10 f0       	brcs	.+4      	; 0x58c4 <__udivmodhi4_ep>
    58c0:	a6 1b       	sub	r26, r22
    58c2:	b7 0b       	sbc	r27, r23

000058c4 <__udivmodhi4_ep>:
    58c4:	88 1f       	adc	r24, r24
    58c6:	99 1f       	adc	r25, r25
    58c8:	5a 95       	dec	r21
    58ca:	a9 f7       	brne	.-22     	; 0x58b6 <__udivmodhi4_loop>
    58cc:	80 95       	com	r24
    58ce:	90 95       	com	r25
    58d0:	bc 01       	movw	r22, r24
    58d2:	cd 01       	movw	r24, r26
    58d4:	08 95       	ret

000058d6 <memchr>:
    58d6:	fc 01       	movw	r30, r24
    58d8:	41 50       	subi	r20, 0x01	; 1
    58da:	50 40       	sbci	r21, 0x00	; 0
    58dc:	30 f0       	brcs	.+12     	; 0x58ea <memchr+0x14>
    58de:	01 90       	ld	r0, Z+
    58e0:	06 16       	cp	r0, r22
    58e2:	d1 f7       	brne	.-12     	; 0x58d8 <memchr+0x2>
    58e4:	31 97       	sbiw	r30, 0x01	; 1
    58e6:	cf 01       	movw	r24, r30
    58e8:	08 95       	ret
    58ea:	88 27       	eor	r24, r24
    58ec:	99 27       	eor	r25, r25
    58ee:	08 95       	ret

000058f0 <memcpy>:
    58f0:	fb 01       	movw	r30, r22
    58f2:	dc 01       	movw	r26, r24
    58f4:	02 c0       	rjmp	.+4      	; 0x58fa <memcpy+0xa>
    58f6:	01 90       	ld	r0, Z+
    58f8:	0d 92       	st	X+, r0
    58fa:	41 50       	subi	r20, 0x01	; 1
    58fc:	50 40       	sbci	r21, 0x00	; 0
    58fe:	d8 f7       	brcc	.-10     	; 0x58f6 <memcpy+0x6>
    5900:	08 95       	ret

00005902 <memset>:
    5902:	dc 01       	movw	r26, r24
    5904:	01 c0       	rjmp	.+2      	; 0x5908 <memset+0x6>
    5906:	6d 93       	st	X+, r22
    5908:	41 50       	subi	r20, 0x01	; 1
    590a:	50 40       	sbci	r21, 0x00	; 0
    590c:	e0 f7       	brcc	.-8      	; 0x5906 <memset+0x4>
    590e:	08 95       	ret

00005910 <strcmp>:
    5910:	fb 01       	movw	r30, r22
    5912:	dc 01       	movw	r26, r24
    5914:	8d 91       	ld	r24, X+
    5916:	01 90       	ld	r0, Z+
    5918:	80 19       	sub	r24, r0
    591a:	01 10       	cpse	r0, r1
    591c:	d9 f3       	breq	.-10     	; 0x5914 <strcmp+0x4>
    591e:	99 0b       	sbc	r25, r25
    5920:	08 95       	ret

00005922 <__itoa_ncheck>:
    5922:	bb 27       	eor	r27, r27
    5924:	4a 30       	cpi	r20, 0x0A	; 10
    5926:	31 f4       	brne	.+12     	; 0x5934 <__itoa_ncheck+0x12>
    5928:	99 23       	and	r25, r25
    592a:	22 f4       	brpl	.+8      	; 0x5934 <__itoa_ncheck+0x12>
    592c:	bd e2       	ldi	r27, 0x2D	; 45
    592e:	90 95       	com	r25
    5930:	81 95       	neg	r24
    5932:	9f 4f       	sbci	r25, 0xFF	; 255
    5934:	01 c0       	rjmp	.+2      	; 0x5938 <__utoa_common>

00005936 <__utoa_ncheck>:
    5936:	bb 27       	eor	r27, r27

00005938 <__utoa_common>:
    5938:	fb 01       	movw	r30, r22
    593a:	55 27       	eor	r21, r21
    593c:	aa 27       	eor	r26, r26
    593e:	88 0f       	add	r24, r24
    5940:	99 1f       	adc	r25, r25
    5942:	aa 1f       	adc	r26, r26
    5944:	a4 17       	cp	r26, r20
    5946:	10 f0       	brcs	.+4      	; 0x594c <__utoa_common+0x14>
    5948:	a4 1b       	sub	r26, r20
    594a:	83 95       	inc	r24
    594c:	50 51       	subi	r21, 0x10	; 16
    594e:	b9 f7       	brne	.-18     	; 0x593e <__utoa_common+0x6>
    5950:	a0 5d       	subi	r26, 0xD0	; 208
    5952:	aa 33       	cpi	r26, 0x3A	; 58
    5954:	08 f0       	brcs	.+2      	; 0x5958 <__utoa_common+0x20>
    5956:	a9 5d       	subi	r26, 0xD9	; 217
    5958:	a1 93       	st	Z+, r26
    595a:	00 97       	sbiw	r24, 0x00	; 0
    595c:	79 f7       	brne	.-34     	; 0x593c <__utoa_common+0x4>
    595e:	b1 11       	cpse	r27, r1
    5960:	b1 93       	st	Z+, r27
    5962:	11 92       	st	Z+, r1
    5964:	cb 01       	movw	r24, r22
    5966:	00 c0       	rjmp	.+0      	; 0x5968 <strrev>

00005968 <strrev>:
    5968:	dc 01       	movw	r26, r24
    596a:	fc 01       	movw	r30, r24
    596c:	67 2f       	mov	r22, r23
    596e:	71 91       	ld	r23, Z+
    5970:	77 23       	and	r23, r23
    5972:	e1 f7       	brne	.-8      	; 0x596c <strrev+0x4>
    5974:	32 97       	sbiw	r30, 0x02	; 2
    5976:	04 c0       	rjmp	.+8      	; 0x5980 <strrev+0x18>
    5978:	7c 91       	ld	r23, X
    597a:	6d 93       	st	X+, r22
    597c:	70 83       	st	Z, r23
    597e:	62 91       	ld	r22, -Z
    5980:	ae 17       	cp	r26, r30
    5982:	bf 07       	cpc	r27, r31
    5984:	c8 f3       	brcs	.-14     	; 0x5978 <strrev+0x10>
    5986:	08 95       	ret

00005988 <_exit>:
    5988:	f8 94       	cli

0000598a <__stop_program>:
    598a:	ff cf       	rjmp	.-2      	; 0x598a <__stop_program>
